ARM GAS  /tmp/cc6USLMC.s 			page 1


   1              		.cpu cortex-m3
   2              		.eabi_attribute 20, 1
   3              		.eabi_attribute 21, 1
   4              		.eabi_attribute 23, 3
   5              		.eabi_attribute 24, 1
   6              		.eabi_attribute 25, 1
   7              		.eabi_attribute 26, 1
   8              		.eabi_attribute 30, 1
   9              		.eabi_attribute 34, 1
  10              		.eabi_attribute 18, 4
  11              		.file	"ads1115.c"
  12              		.text
  13              	.Ltext0:
  14              		.cfi_sections	.debug_frame
  15              		.section	.text.ADS1115_Setup,"ax",%progbits
  16              		.align	1
  17              		.global	ADS1115_Setup
  18              		.arch armv7-m
  19              		.syntax unified
  20              		.thumb
  21              		.thumb_func
  22              		.fpu softvfp
  24              	ADS1115_Setup:
  25              	.LFB65:
  26              		.file 1 "User/ads1115.c"
   1:User/ads1115.c **** /*
   2:User/ads1115.c ****  * ads1115.c
   3:User/ads1115.c ****  *
   4:User/ads1115.c ****  *  Created on: 2021年7月22日
   5:User/ads1115.c ****  *      Author: SHEN Zhong
   6:User/ads1115.c ****  */
   7:User/ads1115.c **** #include "main.h"
   8:User/ads1115.c **** #include "ads1115.h"
   9:User/ads1115.c **** #include "i2c.h"
  10:User/ads1115.c **** 
  11:User/ads1115.c **** 
  12:User/ads1115.c **** _Bool ad_flag = 0;
  13:User/ads1115.c **** 
  14:User/ads1115.c **** /* ADS115 setup function
  15:User/ads1115.c ****  * RDY is connected to PA15
  16:User/ads1115.c ****  * AIN0, AIN1, AIN2, AIN3 are connected to Vout1_H, Vout1_L, Vout2_H, Vout2_L respectively
  17:User/ads1115.c ****  * Full scale range is set to +-4.096V
  18:User/ads1115.c ****  * Sample rate is 250SPS
  19:User/ads1115.c ****  * Single-shot mode
  20:User/ads1115.c ****  * Conversion Ready pi enabled (MSB of Lo_thresh is 0 and MSB of Hi_thresh is 1)
  21:User/ads1115.c ****  */
  22:User/ads1115.c **** void ADS1115_Setup(void)
  23:User/ads1115.c **** {
  27              		.loc 1 23 1 view -0
  28              		.cfi_startproc
  29              		@ args = 0, pretend = 0, frame = 8
  30              		@ frame_needed = 0, uses_anonymous_args = 0
  31 0000 2DE9F041 		push	{r4, r5, r6, r7, r8, lr}
  32              	.LCFI0:
  33              		.cfi_def_cfa_offset 24
  34              		.cfi_offset 4, -24
  35              		.cfi_offset 5, -20
ARM GAS  /tmp/cc6USLMC.s 			page 2


  36              		.cfi_offset 6, -16
  37              		.cfi_offset 7, -12
  38              		.cfi_offset 8, -8
  39              		.cfi_offset 14, -4
  40 0004 86B0     		sub	sp, sp, #24
  41              	.LCFI1:
  42              		.cfi_def_cfa_offset 48
  24:User/ads1115.c **** 	uint8_t txbuf[2];
  43              		.loc 1 24 2 view .LVU1
  25:User/ads1115.c **** 
  26:User/ads1115.c **** 	txbuf[0] = (CONFIG_PGA_0 | CONFIG_MODE) >> 8;				//Single-shot mode
  44              		.loc 1 26 2 view .LVU2
  45              		.loc 1 26 11 is_stmt 0 view .LVU3
  46 0006 4FF00308 		mov	r8, #3
  47 000a 8DF81480 		strb	r8, [sp, #20]
  27:User/ads1115.c **** 	txbuf[1] = CONFIG_DR_2 | CONFIG_DR_0;
  48              		.loc 1 27 2 is_stmt 1 view .LVU4
  49              		.loc 1 27 11 is_stmt 0 view .LVU5
  50 000e A023     		movs	r3, #160
  51 0010 8DF81530 		strb	r3, [sp, #21]
  28:User/ads1115.c **** 	HAL_I2C_Mem_Write(&hi2c2, ADS1115_ADDR, CONFIG_ADDR, I2C_MEMADD_SIZE_8BIT, txbuf,2, 100);
  52              		.loc 1 28 2 is_stmt 1 view .LVU6
  53 0014 154D     		ldr	r5, .L3
  54 0016 6427     		movs	r7, #100
  55 0018 0297     		str	r7, [sp, #8]
  56 001a 0224     		movs	r4, #2
  57 001c 0194     		str	r4, [sp, #4]
  58 001e 05AE     		add	r6, sp, #20
  59 0020 0096     		str	r6, [sp]
  60 0022 0123     		movs	r3, #1
  61 0024 1A46     		mov	r2, r3
  62 0026 4821     		movs	r1, #72
  63 0028 2846     		mov	r0, r5
  64 002a FFF7FEFF 		bl	HAL_I2C_Mem_Write
  65              	.LVL0:
  29:User/ads1115.c **** 
  30:User/ads1115.c **** 	txbuf[0] = 0x0;											//Set MSB of Lo_thresh to 0
  66              		.loc 1 30 2 view .LVU7
  67              		.loc 1 30 11 is_stmt 0 view .LVU8
  68 002e 0023     		movs	r3, #0
  69 0030 8DF81430 		strb	r3, [sp, #20]
  31:User/ads1115.c **** 	txbuf[1] = 0x0;
  70              		.loc 1 31 2 is_stmt 1 view .LVU9
  71              		.loc 1 31 11 is_stmt 0 view .LVU10
  72 0034 8DF81530 		strb	r3, [sp, #21]
  32:User/ads1115.c **** 	HAL_I2C_Mem_Write(&hi2c2, ADS1115_ADDR,  LO_THRESH_ADDR, I2C_MEMADD_SIZE_8BIT,  txbuf, 2,100);
  73              		.loc 1 32 2 is_stmt 1 view .LVU11
  74 0038 0297     		str	r7, [sp, #8]
  75 003a 0194     		str	r4, [sp, #4]
  76 003c 0096     		str	r6, [sp]
  77 003e 0123     		movs	r3, #1
  78 0040 2246     		mov	r2, r4
  79 0042 4821     		movs	r1, #72
  80 0044 2846     		mov	r0, r5
  81 0046 FFF7FEFF 		bl	HAL_I2C_Mem_Write
  82              	.LVL1:
  33:User/ads1115.c **** 
ARM GAS  /tmp/cc6USLMC.s 			page 3


  34:User/ads1115.c **** 	txbuf[0] = 0xFF;											//Set MSB of Hi_thresh to 1
  83              		.loc 1 34 2 view .LVU12
  84              		.loc 1 34 11 is_stmt 0 view .LVU13
  85 004a FF23     		movs	r3, #255
  86 004c 8DF81430 		strb	r3, [sp, #20]
  35:User/ads1115.c **** 	txbuf[1] = 0xFF;
  87              		.loc 1 35 2 is_stmt 1 view .LVU14
  88              		.loc 1 35 11 is_stmt 0 view .LVU15
  89 0050 8DF81530 		strb	r3, [sp, #21]
  36:User/ads1115.c **** 	HAL_I2C_Mem_Write(&hi2c2, ADS1115_ADDR, HI_THRESH_ADDR,I2C_MEMADD_SIZE_8BIT,  txbuf, 2,100);
  90              		.loc 1 36 2 is_stmt 1 view .LVU16
  91 0054 0297     		str	r7, [sp, #8]
  92 0056 0194     		str	r4, [sp, #4]
  93 0058 0096     		str	r6, [sp]
  94 005a 0123     		movs	r3, #1
  95 005c 4246     		mov	r2, r8
  96 005e 4821     		movs	r1, #72
  97 0060 2846     		mov	r0, r5
  98 0062 FFF7FEFF 		bl	HAL_I2C_Mem_Write
  99              	.LVL2:
  37:User/ads1115.c **** 
  38:User/ads1115.c **** }
 100              		.loc 1 38 1 is_stmt 0 view .LVU17
 101 0066 06B0     		add	sp, sp, #24
 102              	.LCFI2:
 103              		.cfi_def_cfa_offset 24
 104              		@ sp needed
 105 0068 BDE8F081 		pop	{r4, r5, r6, r7, r8, pc}
 106              	.L4:
 107              		.align	2
 108              	.L3:
 109 006c 00000000 		.word	hi2c2
 110              		.cfi_endproc
 111              	.LFE65:
 113              		.section	.text.ADS1115_Read,"ax",%progbits
 114              		.align	1
 115              		.global	ADS1115_Read
 116              		.syntax unified
 117              		.thumb
 118              		.thumb_func
 119              		.fpu softvfp
 121              	ADS1115_Read:
 122              	.LVL3:
 123              	.LFB66:
  39:User/ads1115.c **** 
  40:User/ads1115.c **** 
  41:User/ads1115.c **** int16_t ADS1115_Read(int num)
  42:User/ads1115.c **** {
 124              		.loc 1 42 1 is_stmt 1 view -0
 125              		.cfi_startproc
 126              		@ args = 0, pretend = 0, frame = 8
 127              		@ frame_needed = 0, uses_anonymous_args = 0
 128              		.loc 1 42 1 is_stmt 0 view .LVU19
 129 0000 70B5     		push	{r4, r5, r6, lr}
 130              	.LCFI3:
 131              		.cfi_def_cfa_offset 16
 132              		.cfi_offset 4, -16
ARM GAS  /tmp/cc6USLMC.s 			page 4


 133              		.cfi_offset 5, -12
 134              		.cfi_offset 6, -8
 135              		.cfi_offset 14, -4
 136 0002 86B0     		sub	sp, sp, #24
 137              	.LCFI4:
 138              		.cfi_def_cfa_offset 40
 139 0004 0446     		mov	r4, r0
  43:User/ads1115.c **** 	int16_t data;
 140              		.loc 1 43 2 is_stmt 1 view .LVU20
  44:User/ads1115.c **** 	uint8_t txBuf[2];
 141              		.loc 1 44 2 view .LVU21
  45:User/ads1115.c **** 	uint8_t rxBuf[2];
 142              		.loc 1 45 2 view .LVU22
  46:User/ads1115.c **** 
  47:User/ads1115.c **** 	txBuf[0] = CONFIG_ADDR;									//Read the setting of current CONFIG register
 143              		.loc 1 47 2 view .LVU23
 144              		.loc 1 47 11 is_stmt 0 view .LVU24
 145 0006 0123     		movs	r3, #1
 146 0008 8DF81430 		strb	r3, [sp, #20]
  48:User/ads1115.c **** 	HAL_I2C_Master_Transmit(&hi2c2, ADS1115_ADDR,  txBuf,1,100);
 147              		.loc 1 48 2 is_stmt 1 view .LVU25
 148 000c 384D     		ldr	r5, .L10
 149 000e 6426     		movs	r6, #100
 150 0010 0096     		str	r6, [sp]
 151 0012 05AA     		add	r2, sp, #20
 152 0014 4821     		movs	r1, #72
 153 0016 2846     		mov	r0, r5
 154              	.LVL4:
 155              		.loc 1 48 2 is_stmt 0 view .LVU26
 156 0018 FFF7FEFF 		bl	HAL_I2C_Master_Transmit
 157              	.LVL5:
  49:User/ads1115.c **** 	HAL_I2C_Master_Receive(&hi2c2, ADS1115_ADDR,  rxBuf,2,100);
 158              		.loc 1 49 2 is_stmt 1 view .LVU27
 159 001c 0096     		str	r6, [sp]
 160 001e 0223     		movs	r3, #2
 161 0020 04AA     		add	r2, sp, #16
 162 0022 4821     		movs	r1, #72
 163 0024 2846     		mov	r0, r5
 164 0026 FFF7FEFF 		bl	HAL_I2C_Master_Receive
 165              	.LVL6:
  50:User/ads1115.c **** 
  51:User/ads1115.c **** 	if(num==0){
 166              		.loc 1 51 2 view .LVU28
 167              		.loc 1 51 4 is_stmt 0 view .LVU29
 168 002a 002C     		cmp	r4, #0
 169 002c 45D1     		bne	.L6
  52:User/ads1115.c **** 	txBuf[0] = rxBuf[0] ;
 170              		.loc 1 52 2 is_stmt 1 view .LVU30
 171              		.loc 1 52 18 is_stmt 0 view .LVU31
 172 002e 9DF81030 		ldrb	r3, [sp, #16]	@ zero_extendqisi2
 173              		.loc 1 52 11 view .LVU32
 174 0032 8DF81430 		strb	r3, [sp, #20]
  53:User/ads1115.c **** 	txBuf[0] |= CONFIG_OS >> 8;								//Set OS pin to 1 to start a conversion
 175              		.loc 1 53 2 is_stmt 1 view .LVU33
 176              		.loc 1 53 11 is_stmt 0 view .LVU34
 177 0036 43F08003 		orr	r3, r3, #128
 178 003a 8DF81430 		strb	r3, [sp, #20]
ARM GAS  /tmp/cc6USLMC.s 			page 5


  54:User/ads1115.c **** 	txBuf[0] &= ~(CONFIG_MUX_0 >> 8);						//Set MUX to 000 (AIN_p = AIN0, AIN_n = AIN1)
 179              		.loc 1 54 2 is_stmt 1 view .LVU35
 180              		.loc 1 54 11 is_stmt 0 view .LVU36
 181 003e 03F0EF03 		and	r3, r3, #239
 182 0042 8DF81430 		strb	r3, [sp, #20]
  55:User/ads1115.c **** 	txBuf[0] &= ~(CONFIG_MUX_1 >> 8);
 183              		.loc 1 55 2 is_stmt 1 view .LVU37
 184              		.loc 1 55 11 is_stmt 0 view .LVU38
 185 0046 03F0CF03 		and	r3, r3, #207
 186 004a 8DF81430 		strb	r3, [sp, #20]
  56:User/ads1115.c **** 	txBuf[0] &= ~(CONFIG_MUX_2 >> 8);
 187              		.loc 1 56 2 is_stmt 1 view .LVU39
 188              		.loc 1 56 11 is_stmt 0 view .LVU40
 189 004e 23F04003 		bic	r3, r3, #64
 190 0052 8DF81430 		strb	r3, [sp, #20]
  57:User/ads1115.c **** 	txBuf[1] = rxBuf[1];
 191              		.loc 1 57 2 is_stmt 1 view .LVU41
 192              		.loc 1 57 18 is_stmt 0 view .LVU42
 193 0056 9DF81130 		ldrb	r3, [sp, #17]	@ zero_extendqisi2
 194              		.loc 1 57 11 view .LVU43
 195 005a 8DF81530 		strb	r3, [sp, #21]
 196              	.L7:
  58:User/ads1115.c **** 	}
  59:User/ads1115.c **** 	else if(num==1){
  60:User/ads1115.c **** 	txBuf[0] = rxBuf[0] ;
  61:User/ads1115.c **** 	txBuf[0] |= CONFIG_OS >> 8;								//Set OS pin to 1 to start a conversion
  62:User/ads1115.c **** 	txBuf[0] |= CONFIG_MUX_0 >> 8;							//Set MUX to 011 (AIN_p = AIN2, AIN_n = AIN3)
  63:User/ads1115.c **** 	txBuf[0] |= CONFIG_MUX_1 >> 8;
  64:User/ads1115.c **** 	txBuf[0] &= ~(CONFIG_MUX_2 >> 8);
  65:User/ads1115.c **** 	txBuf[1] = rxBuf[1];
  66:User/ads1115.c **** 	}
  67:User/ads1115.c **** 	HAL_I2C_Mem_Write(&hi2c2, ADS1115_ADDR, CONFIG_ADDR,I2C_MEMADD_SIZE_8BIT, txBuf,2, 100);
 197              		.loc 1 67 2 is_stmt 1 view .LVU44
 198 005e 6423     		movs	r3, #100
 199 0060 0293     		str	r3, [sp, #8]
 200 0062 0223     		movs	r3, #2
 201 0064 0193     		str	r3, [sp, #4]
 202 0066 05AB     		add	r3, sp, #20
 203 0068 0093     		str	r3, [sp]
 204 006a 0123     		movs	r3, #1
 205 006c 1A46     		mov	r2, r3
 206 006e 4821     		movs	r1, #72
 207 0070 1F48     		ldr	r0, .L10
 208 0072 FFF7FEFF 		bl	HAL_I2C_Mem_Write
 209              	.LVL7:
  68:User/ads1115.c **** 
  69:User/ads1115.c **** 	while(ad_flag == 0);										//Wait until flag is set (conversion complete)
 210              		.loc 1 69 2 view .LVU45
 211              	.L8:
 212              		.loc 1 69 21 discriminator 1 view .LVU46
 213              		.loc 1 69 7 discriminator 1 view .LVU47
 214              		.loc 1 69 16 is_stmt 0 discriminator 1 view .LVU48
 215 0076 1F4B     		ldr	r3, .L10+4
 216 0078 1B78     		ldrb	r3, [r3]	@ zero_extendqisi2
 217              		.loc 1 69 7 discriminator 1 view .LVU49
 218 007a 002B     		cmp	r3, #0
 219 007c FBD0     		beq	.L8
ARM GAS  /tmp/cc6USLMC.s 			page 6


  70:User/ads1115.c **** 	ad_flag = 0;												//Clear flag
 220              		.loc 1 70 2 is_stmt 1 view .LVU50
 221              		.loc 1 70 10 is_stmt 0 view .LVU51
 222 007e 0023     		movs	r3, #0
 223 0080 1C4A     		ldr	r2, .L10+4
 224 0082 1370     		strb	r3, [r2]
  71:User/ads1115.c **** 	txBuf[0] = CONVERSION_ADDR;								//Read data
 225              		.loc 1 71 2 is_stmt 1 view .LVU52
 226              		.loc 1 71 11 is_stmt 0 view .LVU53
 227 0084 8DF81430 		strb	r3, [sp, #20]
  72:User/ads1115.c **** 	HAL_I2C_Master_Transmit(&hi2c2, ADS1115_ADDR,  txBuf,1,100);
 228              		.loc 1 72 2 is_stmt 1 view .LVU54
 229 0088 194C     		ldr	r4, .L10
 230              	.LVL8:
 231              		.loc 1 72 2 is_stmt 0 view .LVU55
 232 008a 6425     		movs	r5, #100
 233 008c 0095     		str	r5, [sp]
 234 008e 0123     		movs	r3, #1
 235 0090 05AA     		add	r2, sp, #20
 236 0092 4821     		movs	r1, #72
 237 0094 2046     		mov	r0, r4
 238 0096 FFF7FEFF 		bl	HAL_I2C_Master_Transmit
 239              	.LVL9:
  73:User/ads1115.c **** 	HAL_I2C_Master_Receive(&hi2c2, ADS1115_ADDR,  rxBuf,2,100);
 240              		.loc 1 73 2 is_stmt 1 view .LVU56
 241 009a 0095     		str	r5, [sp]
 242 009c 0223     		movs	r3, #2
 243 009e 04AA     		add	r2, sp, #16
 244 00a0 4821     		movs	r1, #72
 245 00a2 2046     		mov	r0, r4
 246 00a4 FFF7FEFF 		bl	HAL_I2C_Master_Receive
 247              	.LVL10:
  74:User/ads1115.c **** 
  75:User/ads1115.c **** 	data = rxBuf[0] << 8 | rxBuf[1];
 248              		.loc 1 75 2 view .LVU57
 249              		.loc 1 75 14 is_stmt 0 view .LVU58
 250 00a8 9DF81030 		ldrb	r3, [sp, #16]	@ zero_extendqisi2
 251              		.loc 1 75 18 view .LVU59
 252 00ac 1B02     		lsls	r3, r3, #8
 253              		.loc 1 75 23 view .LVU60
 254 00ae 1BB2     		sxth	r3, r3
 255              		.loc 1 75 30 view .LVU61
 256 00b0 9DF81100 		ldrb	r0, [sp, #17]	@ zero_extendqisi2
 257              	.LVL11:
  76:User/ads1115.c **** 	return data;
 258              		.loc 1 76 2 is_stmt 1 view .LVU62
  77:User/ads1115.c **** }
 259              		.loc 1 77 1 is_stmt 0 view .LVU63
 260 00b4 1843     		orrs	r0, r0, r3
 261              	.LVL12:
 262              		.loc 1 77 1 view .LVU64
 263 00b6 06B0     		add	sp, sp, #24
 264              	.LCFI5:
 265              		.cfi_remember_state
 266              		.cfi_def_cfa_offset 16
 267              		@ sp needed
 268 00b8 70BD     		pop	{r4, r5, r6, pc}
ARM GAS  /tmp/cc6USLMC.s 			page 7


 269              	.LVL13:
 270              	.L6:
 271              	.LCFI6:
 272              		.cfi_restore_state
  59:User/ads1115.c **** 	txBuf[0] = rxBuf[0] ;
 273              		.loc 1 59 7 is_stmt 1 view .LVU65
  59:User/ads1115.c **** 	txBuf[0] = rxBuf[0] ;
 274              		.loc 1 59 9 is_stmt 0 view .LVU66
 275 00ba 012C     		cmp	r4, #1
 276 00bc CFD1     		bne	.L7
  60:User/ads1115.c **** 	txBuf[0] |= CONFIG_OS >> 8;								//Set OS pin to 1 to start a conversion
 277              		.loc 1 60 2 is_stmt 1 view .LVU67
  60:User/ads1115.c **** 	txBuf[0] |= CONFIG_OS >> 8;								//Set OS pin to 1 to start a conversion
 278              		.loc 1 60 18 is_stmt 0 view .LVU68
 279 00be 9DF81030 		ldrb	r3, [sp, #16]	@ zero_extendqisi2
  60:User/ads1115.c **** 	txBuf[0] |= CONFIG_OS >> 8;								//Set OS pin to 1 to start a conversion
 280              		.loc 1 60 11 view .LVU69
 281 00c2 8DF81430 		strb	r3, [sp, #20]
  61:User/ads1115.c **** 	txBuf[0] |= CONFIG_MUX_0 >> 8;							//Set MUX to 011 (AIN_p = AIN2, AIN_n = AIN3)
 282              		.loc 1 61 2 is_stmt 1 view .LVU70
  61:User/ads1115.c **** 	txBuf[0] |= CONFIG_MUX_0 >> 8;							//Set MUX to 011 (AIN_p = AIN2, AIN_n = AIN3)
 283              		.loc 1 61 11 is_stmt 0 view .LVU71
 284 00c6 43F08003 		orr	r3, r3, #128
 285 00ca 8DF81430 		strb	r3, [sp, #20]
  62:User/ads1115.c **** 	txBuf[0] |= CONFIG_MUX_1 >> 8;
 286              		.loc 1 62 2 is_stmt 1 view .LVU72
  62:User/ads1115.c **** 	txBuf[0] |= CONFIG_MUX_1 >> 8;
 287              		.loc 1 62 11 is_stmt 0 view .LVU73
 288 00ce 43F01003 		orr	r3, r3, #16
 289 00d2 8DF81430 		strb	r3, [sp, #20]
  63:User/ads1115.c **** 	txBuf[0] &= ~(CONFIG_MUX_2 >> 8);
 290              		.loc 1 63 2 is_stmt 1 view .LVU74
  63:User/ads1115.c **** 	txBuf[0] &= ~(CONFIG_MUX_2 >> 8);
 291              		.loc 1 63 11 is_stmt 0 view .LVU75
 292 00d6 43F02003 		orr	r3, r3, #32
 293 00da 8DF81430 		strb	r3, [sp, #20]
  64:User/ads1115.c **** 	txBuf[1] = rxBuf[1];
 294              		.loc 1 64 2 is_stmt 1 view .LVU76
  64:User/ads1115.c **** 	txBuf[1] = rxBuf[1];
 295              		.loc 1 64 11 is_stmt 0 view .LVU77
 296 00de 23F04003 		bic	r3, r3, #64
 297 00e2 8DF81430 		strb	r3, [sp, #20]
  65:User/ads1115.c **** 	}
 298              		.loc 1 65 2 is_stmt 1 view .LVU78
  65:User/ads1115.c **** 	}
 299              		.loc 1 65 18 is_stmt 0 view .LVU79
 300 00e6 9DF81130 		ldrb	r3, [sp, #17]	@ zero_extendqisi2
  65:User/ads1115.c **** 	}
 301              		.loc 1 65 11 view .LVU80
 302 00ea 8DF81530 		strb	r3, [sp, #21]
 303 00ee B6E7     		b	.L7
 304              	.L11:
 305              		.align	2
 306              	.L10:
 307 00f0 00000000 		.word	hi2c2
 308 00f4 00000000 		.word	.LANCHOR0
 309              		.cfi_endproc
ARM GAS  /tmp/cc6USLMC.s 			page 8


 310              	.LFE66:
 312              		.section	.text.HAL_GPIO_EXTI_Callback,"ax",%progbits
 313              		.align	1
 314              		.global	HAL_GPIO_EXTI_Callback
 315              		.syntax unified
 316              		.thumb
 317              		.thumb_func
 318              		.fpu softvfp
 320              	HAL_GPIO_EXTI_Callback:
 321              	.LVL14:
 322              	.LFB67:
  78:User/ads1115.c **** 
  79:User/ads1115.c **** void HAL_GPIO_EXTI_Callback(uint16_t GPIO_Pin){
 323              		.loc 1 79 47 is_stmt 1 view -0
 324              		.cfi_startproc
 325              		@ args = 0, pretend = 0, frame = 0
 326              		@ frame_needed = 0, uses_anonymous_args = 0
 327              		@ link register save eliminated.
  80:User/ads1115.c **** 	if(GPIO_Pin == GPIO_PIN_15){
 328              		.loc 1 80 2 view .LVU82
 329              		.loc 1 80 4 is_stmt 0 view .LVU83
 330 0000 B0F5004F 		cmp	r0, #32768
 331 0004 00D0     		beq	.L14
 332              	.L12:
  81:User/ads1115.c **** 		ad_flag = 1;
  82:User/ads1115.c **** 	}
  83:User/ads1115.c **** }
 333              		.loc 1 83 1 view .LVU84
 334 0006 7047     		bx	lr
 335              	.L14:
  81:User/ads1115.c **** 		ad_flag = 1;
 336              		.loc 1 81 3 is_stmt 1 view .LVU85
  81:User/ads1115.c **** 		ad_flag = 1;
 337              		.loc 1 81 11 is_stmt 0 view .LVU86
 338 0008 014B     		ldr	r3, .L15
 339 000a 0122     		movs	r2, #1
 340 000c 1A70     		strb	r2, [r3]
 341              		.loc 1 83 1 view .LVU87
 342 000e FAE7     		b	.L12
 343              	.L16:
 344              		.align	2
 345              	.L15:
 346 0010 00000000 		.word	.LANCHOR0
 347              		.cfi_endproc
 348              	.LFE67:
 350              		.global	ad_flag
 351              		.section	.bss.ad_flag,"aw",%nobits
 352              		.set	.LANCHOR0,. + 0
 355              	ad_flag:
 356 0000 00       		.space	1
 357              		.text
 358              	.Letext0:
 359              		.file 2 "/home/softarm/.config/Code/User/globalStorage/bmd.stm32-for-vscode/@xpack-dev-tools/arm-n
 360              		.file 3 "/home/softarm/.config/Code/User/globalStorage/bmd.stm32-for-vscode/@xpack-dev-tools/arm-n
 361              		.file 4 "Drivers/CMSIS/Device/ST/STM32F1xx/Include/stm32f103xb.h"
 362              		.file 5 "Drivers/STM32F1xx_HAL_Driver/Inc/stm32f1xx_hal_def.h"
 363              		.file 6 "Drivers/STM32F1xx_HAL_Driver/Inc/stm32f1xx_hal_dma.h"
ARM GAS  /tmp/cc6USLMC.s 			page 9


 364              		.file 7 "Drivers/STM32F1xx_HAL_Driver/Inc/stm32f1xx_hal_i2c.h"
 365              		.file 8 "Core/Inc/i2c.h"
ARM GAS  /tmp/cc6USLMC.s 			page 10

