ARM GAS  /tmp/ccgPptWl.s 			page 1


   1              		.cpu cortex-m3
   2              		.eabi_attribute 20, 1
   3              		.eabi_attribute 21, 1
   4              		.eabi_attribute 23, 3
   5              		.eabi_attribute 24, 1
   6              		.eabi_attribute 25, 1
   7              		.eabi_attribute 26, 1
   8              		.eabi_attribute 30, 1
   9              		.eabi_attribute 34, 1
  10              		.eabi_attribute 18, 4
  11              		.file	"HydroUnderwaterManipulator.cpp"
  12              		.text
  13              	.Ltext0:
  14              		.cfi_sections	.debug_frame
  15              		.section	.text._ZNK13hydrosoft_ros11Command_Arm9serializeEPh,"axG",%progbits,_ZNK13hydrosoft_ros11
  16              		.align	1
  17              		.weak	_ZNK13hydrosoft_ros11Command_Arm9serializeEPh
  18              		.arch armv7-m
  19              		.syntax unified
  20              		.thumb
  21              		.thumb_func
  22              		.fpu softvfp
  24              	_ZNK13hydrosoft_ros11Command_Arm9serializeEPh:
  25              		.fnstart
  26              	.LVL0:
  27              	.LFB426:
  28              		.file 1 "User/Inc/rosserialInc/hydrosoft_ros/Command_Arm.h"
   1:User/Inc/rosserialInc/hydrosoft_ros/Command_Arm.h **** #ifndef _ROS_hydrosoft_ros_Command_Arm_h
   2:User/Inc/rosserialInc/hydrosoft_ros/Command_Arm.h **** #define _ROS_hydrosoft_ros_Command_Arm_h
   3:User/Inc/rosserialInc/hydrosoft_ros/Command_Arm.h **** 
   4:User/Inc/rosserialInc/hydrosoft_ros/Command_Arm.h **** #include <stdint.h>
   5:User/Inc/rosserialInc/hydrosoft_ros/Command_Arm.h **** #include <string.h>
   6:User/Inc/rosserialInc/hydrosoft_ros/Command_Arm.h **** #include <stdlib.h>
   7:User/Inc/rosserialInc/hydrosoft_ros/Command_Arm.h **** #include "ros/msg.h"
   8:User/Inc/rosserialInc/hydrosoft_ros/Command_Arm.h **** 
   9:User/Inc/rosserialInc/hydrosoft_ros/Command_Arm.h **** namespace hydrosoft_ros
  10:User/Inc/rosserialInc/hydrosoft_ros/Command_Arm.h **** {
  11:User/Inc/rosserialInc/hydrosoft_ros/Command_Arm.h **** 
  12:User/Inc/rosserialInc/hydrosoft_ros/Command_Arm.h ****   class Command_Arm : public ros::Msg
  13:User/Inc/rosserialInc/hydrosoft_ros/Command_Arm.h ****   {
  14:User/Inc/rosserialInc/hydrosoft_ros/Command_Arm.h ****     public:
  15:User/Inc/rosserialInc/hydrosoft_ros/Command_Arm.h ****       typedef int16_t _controlModeCommand_type;
  16:User/Inc/rosserialInc/hydrosoft_ros/Command_Arm.h ****       _controlModeCommand_type controlModeCommand;
  17:User/Inc/rosserialInc/hydrosoft_ros/Command_Arm.h ****       uint32_t actuatorCommand_length;
  18:User/Inc/rosserialInc/hydrosoft_ros/Command_Arm.h ****       typedef int16_t _actuatorCommand_type;
  19:User/Inc/rosserialInc/hydrosoft_ros/Command_Arm.h ****       _actuatorCommand_type st_actuatorCommand;
  20:User/Inc/rosserialInc/hydrosoft_ros/Command_Arm.h ****       _actuatorCommand_type * actuatorCommand;
  21:User/Inc/rosserialInc/hydrosoft_ros/Command_Arm.h ****       typedef int16_t _gripperCommand_type;
  22:User/Inc/rosserialInc/hydrosoft_ros/Command_Arm.h ****       _gripperCommand_type gripperCommand;
  23:User/Inc/rosserialInc/hydrosoft_ros/Command_Arm.h ****       typedef int16_t _pSourceCommand_type;
  24:User/Inc/rosserialInc/hydrosoft_ros/Command_Arm.h ****       _pSourceCommand_type pSourceCommand;
  25:User/Inc/rosserialInc/hydrosoft_ros/Command_Arm.h ****       typedef int16_t _pSinkCommand_type;
  26:User/Inc/rosserialInc/hydrosoft_ros/Command_Arm.h ****       _pSinkCommand_type pSinkCommand;
  27:User/Inc/rosserialInc/hydrosoft_ros/Command_Arm.h **** 
  28:User/Inc/rosserialInc/hydrosoft_ros/Command_Arm.h ****     Command_Arm():
  29:User/Inc/rosserialInc/hydrosoft_ros/Command_Arm.h ****       controlModeCommand(0),
  30:User/Inc/rosserialInc/hydrosoft_ros/Command_Arm.h ****       actuatorCommand_length(0), st_actuatorCommand(), actuatorCommand(nullptr),
ARM GAS  /tmp/ccgPptWl.s 			page 2


  31:User/Inc/rosserialInc/hydrosoft_ros/Command_Arm.h ****       gripperCommand(0),
  32:User/Inc/rosserialInc/hydrosoft_ros/Command_Arm.h ****       pSourceCommand(0),
  33:User/Inc/rosserialInc/hydrosoft_ros/Command_Arm.h ****       pSinkCommand(0)
  34:User/Inc/rosserialInc/hydrosoft_ros/Command_Arm.h ****     {
  35:User/Inc/rosserialInc/hydrosoft_ros/Command_Arm.h ****     }
  36:User/Inc/rosserialInc/hydrosoft_ros/Command_Arm.h **** 
  37:User/Inc/rosserialInc/hydrosoft_ros/Command_Arm.h ****     virtual int serialize(unsigned char *outbuffer) const override
  29              		.loc 1 37 17 view -0
  30              		.cfi_startproc
  31              		@ args = 0, pretend = 0, frame = 0
  32              		@ frame_needed = 0, uses_anonymous_args = 0
  33              		.loc 1 37 17 is_stmt 0 view .LVU1
  34 0000 00B5     		push	{lr}
  35              	.LCFI0:
  36              		.cfi_def_cfa_offset 4
  37              		.cfi_offset 14, -4
  38:User/Inc/rosserialInc/hydrosoft_ros/Command_Arm.h ****     {
  39:User/Inc/rosserialInc/hydrosoft_ros/Command_Arm.h ****       int offset = 0;
  38              		.loc 1 39 7 is_stmt 1 view .LVU2
  39              	.LVL1:
  40:User/Inc/rosserialInc/hydrosoft_ros/Command_Arm.h ****       union {
  40              		.loc 1 40 7 view .LVU3
  41:User/Inc/rosserialInc/hydrosoft_ros/Command_Arm.h ****         int16_t real;
  42:User/Inc/rosserialInc/hydrosoft_ros/Command_Arm.h ****         uint16_t base;
  43:User/Inc/rosserialInc/hydrosoft_ros/Command_Arm.h ****       } u_controlModeCommand;
  44:User/Inc/rosserialInc/hydrosoft_ros/Command_Arm.h ****       u_controlModeCommand.real = this->controlModeCommand;
  41              		.loc 1 44 7 view .LVU4
  42              		.loc 1 44 41 is_stmt 0 view .LVU5
  43 0002 B0F90430 		ldrsh	r3, [r0, #4]
  45:User/Inc/rosserialInc/hydrosoft_ros/Command_Arm.h ****       *(outbuffer + offset + 0) = (u_controlModeCommand.base >> (8 * 0)) & 0xFF;
  44              		.loc 1 45 7 is_stmt 1 view .LVU6
  45 0006 9BB2     		uxth	r3, r3
  46              		.loc 1 45 33 is_stmt 0 view .LVU7
  47 0008 0B70     		strb	r3, [r1]
  46:User/Inc/rosserialInc/hydrosoft_ros/Command_Arm.h ****       *(outbuffer + offset + 1) = (u_controlModeCommand.base >> (8 * 1)) & 0xFF;
  48              		.loc 1 46 7 is_stmt 1 view .LVU8
  49              		.loc 1 46 62 is_stmt 0 view .LVU9
  50 000a 1B0A     		lsrs	r3, r3, #8
  51              		.loc 1 46 33 view .LVU10
  52 000c 4B70     		strb	r3, [r1, #1]
  47:User/Inc/rosserialInc/hydrosoft_ros/Command_Arm.h ****       offset += sizeof(this->controlModeCommand);
  53              		.loc 1 47 7 is_stmt 1 view .LVU11
  54              	.LVL2:
  48:User/Inc/rosserialInc/hydrosoft_ros/Command_Arm.h ****       *(outbuffer + offset + 0) = (this->actuatorCommand_length >> (8 * 0)) & 0xFF;
  55              		.loc 1 48 7 view .LVU12
  56              		.loc 1 48 42 is_stmt 0 view .LVU13
  57 000e 8368     		ldr	r3, [r0, #8]
  58              		.loc 1 48 33 view .LVU14
  59 0010 8B70     		strb	r3, [r1, #2]
  49:User/Inc/rosserialInc/hydrosoft_ros/Command_Arm.h ****       *(outbuffer + offset + 1) = (this->actuatorCommand_length >> (8 * 1)) & 0xFF;
  60              		.loc 1 49 7 is_stmt 1 view .LVU15
  61              		.loc 1 49 42 is_stmt 0 view .LVU16
  62 0012 8368     		ldr	r3, [r0, #8]
  63              		.loc 1 49 65 view .LVU17
  64 0014 1B0A     		lsrs	r3, r3, #8
  65              		.loc 1 49 33 view .LVU18
  66 0016 CB70     		strb	r3, [r1, #3]
ARM GAS  /tmp/ccgPptWl.s 			page 3


  50:User/Inc/rosserialInc/hydrosoft_ros/Command_Arm.h ****       *(outbuffer + offset + 2) = (this->actuatorCommand_length >> (8 * 2)) & 0xFF;
  67              		.loc 1 50 7 is_stmt 1 view .LVU19
  68              		.loc 1 50 65 is_stmt 0 view .LVU20
  69 0018 4389     		ldrh	r3, [r0, #10]
  70              		.loc 1 50 33 view .LVU21
  71 001a 0B71     		strb	r3, [r1, #4]
  51:User/Inc/rosserialInc/hydrosoft_ros/Command_Arm.h ****       *(outbuffer + offset + 3) = (this->actuatorCommand_length >> (8 * 3)) & 0xFF;
  72              		.loc 1 51 7 is_stmt 1 view .LVU22
  73              		.loc 1 51 65 is_stmt 0 view .LVU23
  74 001c C37A     		ldrb	r3, [r0, #11]	@ zero_extendqisi2
  75              		.loc 1 51 33 view .LVU24
  76 001e 4B71     		strb	r3, [r1, #5]
  52:User/Inc/rosserialInc/hydrosoft_ros/Command_Arm.h ****       offset += sizeof(this->actuatorCommand_length);
  77              		.loc 1 52 7 is_stmt 1 view .LVU25
  78              	.LVL3:
  53:User/Inc/rosserialInc/hydrosoft_ros/Command_Arm.h ****       for( uint32_t i = 0; i < actuatorCommand_length; i++){
  79              		.loc 1 53 7 view .LVU26
  80              	.LBB45:
  81              		.loc 1 53 21 is_stmt 0 view .LVU27
  82 0020 4FF0000C 		mov	ip, #0
  83              	.LBE45:
  52:User/Inc/rosserialInc/hydrosoft_ros/Command_Arm.h ****       offset += sizeof(this->actuatorCommand_length);
  84              		.loc 1 52 14 view .LVU28
  85 0024 0622     		movs	r2, #6
  86 0026 0CE0     		b	.L3
  87              	.LVL4:
  88              	.L5:
  89              	.LBB47:
  90              	.LBB46:
  54:User/Inc/rosserialInc/hydrosoft_ros/Command_Arm.h ****       union {
  91              		.loc 1 54 7 is_stmt 1 discriminator 2 view .LVU29
  55:User/Inc/rosserialInc/hydrosoft_ros/Command_Arm.h ****         int16_t real;
  56:User/Inc/rosserialInc/hydrosoft_ros/Command_Arm.h ****         uint16_t base;
  57:User/Inc/rosserialInc/hydrosoft_ros/Command_Arm.h ****       } u_actuatorCommandi;
  58:User/Inc/rosserialInc/hydrosoft_ros/Command_Arm.h ****       u_actuatorCommandi.real = this->actuatorCommand[i];
  92              		.loc 1 58 7 discriminator 2 view .LVU30
  93              		.loc 1 58 39 is_stmt 0 discriminator 2 view .LVU31
  94 0028 0369     		ldr	r3, [r0, #16]
  95              		.loc 1 58 56 discriminator 2 view .LVU32
  96 002a 33F91C30 		ldrsh	r3, [r3, ip, lsl #1]
  59:User/Inc/rosserialInc/hydrosoft_ros/Command_Arm.h ****       *(outbuffer + offset + 0) = (u_actuatorCommandi.base >> (8 * 0)) & 0xFF;
  97              		.loc 1 59 7 is_stmt 1 discriminator 2 view .LVU33
  98 002e 9BB2     		uxth	r3, r3
  99              		.loc 1 59 33 is_stmt 0 discriminator 2 view .LVU34
 100 0030 8B54     		strb	r3, [r1, r2]
  60:User/Inc/rosserialInc/hydrosoft_ros/Command_Arm.h ****       *(outbuffer + offset + 1) = (u_actuatorCommandi.base >> (8 * 1)) & 0xFF;
 101              		.loc 1 60 7 is_stmt 1 discriminator 2 view .LVU35
 102              		.loc 1 60 60 is_stmt 0 discriminator 2 view .LVU36
 103 0032 1B0A     		lsrs	r3, r3, #8
 104              		.loc 1 60 28 discriminator 2 view .LVU37
 105 0034 02F1010E 		add	lr, r2, #1
 106              		.loc 1 60 33 discriminator 2 view .LVU38
 107 0038 01F80E30 		strb	r3, [r1, lr]
  61:User/Inc/rosserialInc/hydrosoft_ros/Command_Arm.h ****       offset += sizeof(this->actuatorCommand[i]);
 108              		.loc 1 61 7 is_stmt 1 discriminator 2 view .LVU39
 109              		.loc 1 61 14 is_stmt 0 discriminator 2 view .LVU40
 110 003c 0232     		adds	r2, r2, #2
ARM GAS  /tmp/ccgPptWl.s 			page 4


 111              	.LVL5:
 112              		.loc 1 61 14 discriminator 2 view .LVU41
 113              	.LBE46:
  53:User/Inc/rosserialInc/hydrosoft_ros/Command_Arm.h ****       union {
 114              		.loc 1 53 7 is_stmt 1 discriminator 2 view .LVU42
 115 003e 0CF1010C 		add	ip, ip, #1
 116              	.LVL6:
 117              	.L3:
  53:User/Inc/rosserialInc/hydrosoft_ros/Command_Arm.h ****       union {
 118              		.loc 1 53 30 discriminator 3 view .LVU43
  53:User/Inc/rosserialInc/hydrosoft_ros/Command_Arm.h ****       union {
 119              		.loc 1 53 32 is_stmt 0 discriminator 3 view .LVU44
 120 0042 8368     		ldr	r3, [r0, #8]
  53:User/Inc/rosserialInc/hydrosoft_ros/Command_Arm.h ****       union {
 121              		.loc 1 53 30 discriminator 3 view .LVU45
 122 0044 6345     		cmp	r3, ip
 123 0046 EFD8     		bhi	.L5
 124              	.LBE47:
  62:User/Inc/rosserialInc/hydrosoft_ros/Command_Arm.h ****       }
  63:User/Inc/rosserialInc/hydrosoft_ros/Command_Arm.h ****       union {
 125              		.loc 1 63 7 is_stmt 1 view .LVU46
  64:User/Inc/rosserialInc/hydrosoft_ros/Command_Arm.h ****         int16_t real;
  65:User/Inc/rosserialInc/hydrosoft_ros/Command_Arm.h ****         uint16_t base;
  66:User/Inc/rosserialInc/hydrosoft_ros/Command_Arm.h ****       } u_gripperCommand;
  67:User/Inc/rosserialInc/hydrosoft_ros/Command_Arm.h ****       u_gripperCommand.real = this->gripperCommand;
 126              		.loc 1 67 7 view .LVU47
 127              		.loc 1 67 37 is_stmt 0 view .LVU48
 128 0048 B0F91430 		ldrsh	r3, [r0, #20]
  68:User/Inc/rosserialInc/hydrosoft_ros/Command_Arm.h ****       *(outbuffer + offset + 0) = (u_gripperCommand.base >> (8 * 0)) & 0xFF;
 129              		.loc 1 68 7 is_stmt 1 view .LVU49
 130 004c 9BB2     		uxth	r3, r3
 131              		.loc 1 68 33 is_stmt 0 view .LVU50
 132 004e 8B54     		strb	r3, [r1, r2]
  69:User/Inc/rosserialInc/hydrosoft_ros/Command_Arm.h ****       *(outbuffer + offset + 1) = (u_gripperCommand.base >> (8 * 1)) & 0xFF;
 133              		.loc 1 69 7 is_stmt 1 view .LVU51
 134              		.loc 1 69 58 is_stmt 0 view .LVU52
 135 0050 1B0A     		lsrs	r3, r3, #8
 136              		.loc 1 69 28 view .LVU53
 137 0052 02F1010C 		add	ip, r2, #1
 138              	.LVL7:
 139              		.loc 1 69 33 view .LVU54
 140 0056 01F80C30 		strb	r3, [r1, ip]
  70:User/Inc/rosserialInc/hydrosoft_ros/Command_Arm.h ****       offset += sizeof(this->gripperCommand);
 141              		.loc 1 70 7 is_stmt 1 view .LVU55
 142              		.loc 1 70 14 is_stmt 0 view .LVU56
 143 005a 02F1020C 		add	ip, r2, #2
 144              	.LVL8:
  71:User/Inc/rosserialInc/hydrosoft_ros/Command_Arm.h ****       union {
 145              		.loc 1 71 7 is_stmt 1 view .LVU57
  72:User/Inc/rosserialInc/hydrosoft_ros/Command_Arm.h ****         int16_t real;
  73:User/Inc/rosserialInc/hydrosoft_ros/Command_Arm.h ****         uint16_t base;
  74:User/Inc/rosserialInc/hydrosoft_ros/Command_Arm.h ****       } u_pSourceCommand;
  75:User/Inc/rosserialInc/hydrosoft_ros/Command_Arm.h ****       u_pSourceCommand.real = this->pSourceCommand;
 146              		.loc 1 75 7 view .LVU58
 147              		.loc 1 75 37 is_stmt 0 view .LVU59
 148 005e B0F91630 		ldrsh	r3, [r0, #22]
  76:User/Inc/rosserialInc/hydrosoft_ros/Command_Arm.h ****       *(outbuffer + offset + 0) = (u_pSourceCommand.base >> (8 * 0)) & 0xFF;
ARM GAS  /tmp/ccgPptWl.s 			page 5


 149              		.loc 1 76 7 is_stmt 1 view .LVU60
 150 0062 9BB2     		uxth	r3, r3
 151              		.loc 1 76 33 is_stmt 0 view .LVU61
 152 0064 01F80C30 		strb	r3, [r1, ip]
  77:User/Inc/rosserialInc/hydrosoft_ros/Command_Arm.h ****       *(outbuffer + offset + 1) = (u_pSourceCommand.base >> (8 * 1)) & 0xFF;
 153              		.loc 1 77 7 is_stmt 1 view .LVU62
 154              		.loc 1 77 58 is_stmt 0 view .LVU63
 155 0068 1B0A     		lsrs	r3, r3, #8
 156              		.loc 1 77 28 view .LVU64
 157 006a 02F1030C 		add	ip, r2, #3
 158              	.LVL9:
 159              		.loc 1 77 33 view .LVU65
 160 006e 01F80C30 		strb	r3, [r1, ip]
  78:User/Inc/rosserialInc/hydrosoft_ros/Command_Arm.h ****       offset += sizeof(this->pSourceCommand);
 161              		.loc 1 78 7 is_stmt 1 view .LVU66
 162              		.loc 1 78 14 is_stmt 0 view .LVU67
 163 0072 02F1040C 		add	ip, r2, #4
 164              	.LVL10:
  79:User/Inc/rosserialInc/hydrosoft_ros/Command_Arm.h ****       union {
 165              		.loc 1 79 7 is_stmt 1 view .LVU68
  80:User/Inc/rosserialInc/hydrosoft_ros/Command_Arm.h ****         int16_t real;
  81:User/Inc/rosserialInc/hydrosoft_ros/Command_Arm.h ****         uint16_t base;
  82:User/Inc/rosserialInc/hydrosoft_ros/Command_Arm.h ****       } u_pSinkCommand;
  83:User/Inc/rosserialInc/hydrosoft_ros/Command_Arm.h ****       u_pSinkCommand.real = this->pSinkCommand;
 166              		.loc 1 83 7 view .LVU69
 167              		.loc 1 83 35 is_stmt 0 view .LVU70
 168 0076 B0F91830 		ldrsh	r3, [r0, #24]
  84:User/Inc/rosserialInc/hydrosoft_ros/Command_Arm.h ****       *(outbuffer + offset + 0) = (u_pSinkCommand.base >> (8 * 0)) & 0xFF;
 169              		.loc 1 84 7 is_stmt 1 view .LVU71
 170 007a 9BB2     		uxth	r3, r3
 171              		.loc 1 84 33 is_stmt 0 view .LVU72
 172 007c 01F80C30 		strb	r3, [r1, ip]
  85:User/Inc/rosserialInc/hydrosoft_ros/Command_Arm.h ****       *(outbuffer + offset + 1) = (u_pSinkCommand.base >> (8 * 1)) & 0xFF;
 173              		.loc 1 85 7 is_stmt 1 view .LVU73
 174              		.loc 1 85 56 is_stmt 0 view .LVU74
 175 0080 1B0A     		lsrs	r3, r3, #8
 176              		.loc 1 85 28 view .LVU75
 177 0082 501D     		adds	r0, r2, #5
 178              	.LVL11:
 179              		.loc 1 85 33 view .LVU76
 180 0084 0B54     		strb	r3, [r1, r0]
  86:User/Inc/rosserialInc/hydrosoft_ros/Command_Arm.h ****       offset += sizeof(this->pSinkCommand);
 181              		.loc 1 86 7 is_stmt 1 view .LVU77
 182              	.LVL12:
  87:User/Inc/rosserialInc/hydrosoft_ros/Command_Arm.h ****       return offset;
 183              		.loc 1 87 7 view .LVU78
  88:User/Inc/rosserialInc/hydrosoft_ros/Command_Arm.h ****     }
 184              		.loc 1 88 5 is_stmt 0 view .LVU79
 185 0086 901D     		adds	r0, r2, #6
 186              	.LVL13:
 187              		.loc 1 88 5 view .LVU80
 188 0088 5DF804FB 		ldr	pc, [sp], #4
 189              		.cfi_endproc
 190              	.LFE426:
 191              		.cantunwind
 192              		.fnend
 194              		.section	.rodata._ZN13hydrosoft_ros11Command_Arm7getTypeEv.str1.4,"aMS",%progbits,1
ARM GAS  /tmp/ccgPptWl.s 			page 6


 195              		.align	2
 196              	.LC0:
 197 0000 68796472 		.ascii	"hydrosoft_ros/Command_Arm\000"
 197      6F736F66 
 197      745F726F 
 197      732F436F 
 197      6D6D616E 
 198              		.section	.text._ZN13hydrosoft_ros11Command_Arm7getTypeEv,"axG",%progbits,_ZN13hydrosoft_ros11Comma
 199              		.align	1
 200              		.weak	_ZN13hydrosoft_ros11Command_Arm7getTypeEv
 201              		.syntax unified
 202              		.thumb
 203              		.thumb_func
 204              		.fpu softvfp
 206              	_ZN13hydrosoft_ros11Command_Arm7getTypeEv:
 207              		.fnstart
 208              	.LVL14:
 209              	.LFB428:
  89:User/Inc/rosserialInc/hydrosoft_ros/Command_Arm.h **** 
  90:User/Inc/rosserialInc/hydrosoft_ros/Command_Arm.h ****     virtual int deserialize(unsigned char *inbuffer) override
  91:User/Inc/rosserialInc/hydrosoft_ros/Command_Arm.h ****     {
  92:User/Inc/rosserialInc/hydrosoft_ros/Command_Arm.h ****       int offset = 0;
  93:User/Inc/rosserialInc/hydrosoft_ros/Command_Arm.h ****       union {
  94:User/Inc/rosserialInc/hydrosoft_ros/Command_Arm.h ****         int16_t real;
  95:User/Inc/rosserialInc/hydrosoft_ros/Command_Arm.h ****         uint16_t base;
  96:User/Inc/rosserialInc/hydrosoft_ros/Command_Arm.h ****       } u_controlModeCommand;
  97:User/Inc/rosserialInc/hydrosoft_ros/Command_Arm.h ****       u_controlModeCommand.base = 0;
  98:User/Inc/rosserialInc/hydrosoft_ros/Command_Arm.h ****       u_controlModeCommand.base |= ((uint16_t) (*(inbuffer + offset + 0))) << (8 * 0);
  99:User/Inc/rosserialInc/hydrosoft_ros/Command_Arm.h ****       u_controlModeCommand.base |= ((uint16_t) (*(inbuffer + offset + 1))) << (8 * 1);
 100:User/Inc/rosserialInc/hydrosoft_ros/Command_Arm.h ****       this->controlModeCommand = u_controlModeCommand.real;
 101:User/Inc/rosserialInc/hydrosoft_ros/Command_Arm.h ****       offset += sizeof(this->controlModeCommand);
 102:User/Inc/rosserialInc/hydrosoft_ros/Command_Arm.h ****       uint32_t actuatorCommand_lengthT = ((uint32_t) (*(inbuffer + offset))); 
 103:User/Inc/rosserialInc/hydrosoft_ros/Command_Arm.h ****       actuatorCommand_lengthT |= ((uint32_t) (*(inbuffer + offset + 1))) << (8 * 1); 
 104:User/Inc/rosserialInc/hydrosoft_ros/Command_Arm.h ****       actuatorCommand_lengthT |= ((uint32_t) (*(inbuffer + offset + 2))) << (8 * 2); 
 105:User/Inc/rosserialInc/hydrosoft_ros/Command_Arm.h ****       actuatorCommand_lengthT |= ((uint32_t) (*(inbuffer + offset + 3))) << (8 * 3); 
 106:User/Inc/rosserialInc/hydrosoft_ros/Command_Arm.h ****       offset += sizeof(this->actuatorCommand_length);
 107:User/Inc/rosserialInc/hydrosoft_ros/Command_Arm.h ****       if(actuatorCommand_lengthT > actuatorCommand_length)
 108:User/Inc/rosserialInc/hydrosoft_ros/Command_Arm.h ****         this->actuatorCommand = (int16_t*)realloc(this->actuatorCommand, actuatorCommand_lengthT * 
 109:User/Inc/rosserialInc/hydrosoft_ros/Command_Arm.h ****       actuatorCommand_length = actuatorCommand_lengthT;
 110:User/Inc/rosserialInc/hydrosoft_ros/Command_Arm.h ****       for( uint32_t i = 0; i < actuatorCommand_length; i++){
 111:User/Inc/rosserialInc/hydrosoft_ros/Command_Arm.h ****       union {
 112:User/Inc/rosserialInc/hydrosoft_ros/Command_Arm.h ****         int16_t real;
 113:User/Inc/rosserialInc/hydrosoft_ros/Command_Arm.h ****         uint16_t base;
 114:User/Inc/rosserialInc/hydrosoft_ros/Command_Arm.h ****       } u_st_actuatorCommand;
 115:User/Inc/rosserialInc/hydrosoft_ros/Command_Arm.h ****       u_st_actuatorCommand.base = 0;
 116:User/Inc/rosserialInc/hydrosoft_ros/Command_Arm.h ****       u_st_actuatorCommand.base |= ((uint16_t) (*(inbuffer + offset + 0))) << (8 * 0);
 117:User/Inc/rosserialInc/hydrosoft_ros/Command_Arm.h ****       u_st_actuatorCommand.base |= ((uint16_t) (*(inbuffer + offset + 1))) << (8 * 1);
 118:User/Inc/rosserialInc/hydrosoft_ros/Command_Arm.h ****       this->st_actuatorCommand = u_st_actuatorCommand.real;
 119:User/Inc/rosserialInc/hydrosoft_ros/Command_Arm.h ****       offset += sizeof(this->st_actuatorCommand);
 120:User/Inc/rosserialInc/hydrosoft_ros/Command_Arm.h ****         memcpy( &(this->actuatorCommand[i]), &(this->st_actuatorCommand), sizeof(int16_t));
 121:User/Inc/rosserialInc/hydrosoft_ros/Command_Arm.h ****       }
 122:User/Inc/rosserialInc/hydrosoft_ros/Command_Arm.h ****       union {
 123:User/Inc/rosserialInc/hydrosoft_ros/Command_Arm.h ****         int16_t real;
 124:User/Inc/rosserialInc/hydrosoft_ros/Command_Arm.h ****         uint16_t base;
 125:User/Inc/rosserialInc/hydrosoft_ros/Command_Arm.h ****       } u_gripperCommand;
 126:User/Inc/rosserialInc/hydrosoft_ros/Command_Arm.h ****       u_gripperCommand.base = 0;
 127:User/Inc/rosserialInc/hydrosoft_ros/Command_Arm.h ****       u_gripperCommand.base |= ((uint16_t) (*(inbuffer + offset + 0))) << (8 * 0);
ARM GAS  /tmp/ccgPptWl.s 			page 7


 128:User/Inc/rosserialInc/hydrosoft_ros/Command_Arm.h ****       u_gripperCommand.base |= ((uint16_t) (*(inbuffer + offset + 1))) << (8 * 1);
 129:User/Inc/rosserialInc/hydrosoft_ros/Command_Arm.h ****       this->gripperCommand = u_gripperCommand.real;
 130:User/Inc/rosserialInc/hydrosoft_ros/Command_Arm.h ****       offset += sizeof(this->gripperCommand);
 131:User/Inc/rosserialInc/hydrosoft_ros/Command_Arm.h ****       union {
 132:User/Inc/rosserialInc/hydrosoft_ros/Command_Arm.h ****         int16_t real;
 133:User/Inc/rosserialInc/hydrosoft_ros/Command_Arm.h ****         uint16_t base;
 134:User/Inc/rosserialInc/hydrosoft_ros/Command_Arm.h ****       } u_pSourceCommand;
 135:User/Inc/rosserialInc/hydrosoft_ros/Command_Arm.h ****       u_pSourceCommand.base = 0;
 136:User/Inc/rosserialInc/hydrosoft_ros/Command_Arm.h ****       u_pSourceCommand.base |= ((uint16_t) (*(inbuffer + offset + 0))) << (8 * 0);
 137:User/Inc/rosserialInc/hydrosoft_ros/Command_Arm.h ****       u_pSourceCommand.base |= ((uint16_t) (*(inbuffer + offset + 1))) << (8 * 1);
 138:User/Inc/rosserialInc/hydrosoft_ros/Command_Arm.h ****       this->pSourceCommand = u_pSourceCommand.real;
 139:User/Inc/rosserialInc/hydrosoft_ros/Command_Arm.h ****       offset += sizeof(this->pSourceCommand);
 140:User/Inc/rosserialInc/hydrosoft_ros/Command_Arm.h ****       union {
 141:User/Inc/rosserialInc/hydrosoft_ros/Command_Arm.h ****         int16_t real;
 142:User/Inc/rosserialInc/hydrosoft_ros/Command_Arm.h ****         uint16_t base;
 143:User/Inc/rosserialInc/hydrosoft_ros/Command_Arm.h ****       } u_pSinkCommand;
 144:User/Inc/rosserialInc/hydrosoft_ros/Command_Arm.h ****       u_pSinkCommand.base = 0;
 145:User/Inc/rosserialInc/hydrosoft_ros/Command_Arm.h ****       u_pSinkCommand.base |= ((uint16_t) (*(inbuffer + offset + 0))) << (8 * 0);
 146:User/Inc/rosserialInc/hydrosoft_ros/Command_Arm.h ****       u_pSinkCommand.base |= ((uint16_t) (*(inbuffer + offset + 1))) << (8 * 1);
 147:User/Inc/rosserialInc/hydrosoft_ros/Command_Arm.h ****       this->pSinkCommand = u_pSinkCommand.real;
 148:User/Inc/rosserialInc/hydrosoft_ros/Command_Arm.h ****       offset += sizeof(this->pSinkCommand);
 149:User/Inc/rosserialInc/hydrosoft_ros/Command_Arm.h ****      return offset;
 150:User/Inc/rosserialInc/hydrosoft_ros/Command_Arm.h ****     }
 151:User/Inc/rosserialInc/hydrosoft_ros/Command_Arm.h **** 
 152:User/Inc/rosserialInc/hydrosoft_ros/Command_Arm.h ****     virtual const char * getType() override { return "hydrosoft_ros/Command_Arm"; };
 210              		.loc 1 152 26 is_stmt 1 view -0
 211              		.cfi_startproc
 212              		@ args = 0, pretend = 0, frame = 0
 213              		@ frame_needed = 0, uses_anonymous_args = 0
 214              		@ link register save eliminated.
 215              		.loc 1 152 47 view .LVU82
 216              		.loc 1 152 83 is_stmt 0 view .LVU83
 217 0000 0048     		ldr	r0, .L7
 218              	.LVL15:
 219              		.loc 1 152 83 view .LVU84
 220 0002 7047     		bx	lr
 221              	.L8:
 222              		.align	2
 223              	.L7:
 224 0004 00000000 		.word	.LC0
 225              		.cfi_endproc
 226              	.LFE428:
 227              		.cantunwind
 228              		.fnend
 230              		.section	.rodata._ZN13hydrosoft_ros11Command_Arm6getMD5Ev.str1.4,"aMS",%progbits,1
 231              		.align	2
 232              	.LC1:
 233 0000 33366630 		.ascii	"36f0809d92e060c19f205ca26715d3a2\000"
 233      38303964 
 233      39326530 
 233      36306331 
 233      39663230 
 234              		.section	.text._ZN13hydrosoft_ros11Command_Arm6getMD5Ev,"axG",%progbits,_ZN13hydrosoft_ros11Comman
 235              		.align	1
 236              		.weak	_ZN13hydrosoft_ros11Command_Arm6getMD5Ev
 237              		.syntax unified
 238              		.thumb
ARM GAS  /tmp/ccgPptWl.s 			page 8


 239              		.thumb_func
 240              		.fpu softvfp
 242              	_ZN13hydrosoft_ros11Command_Arm6getMD5Ev:
 243              		.fnstart
 244              	.LVL16:
 245              	.LFB429:
 153:User/Inc/rosserialInc/hydrosoft_ros/Command_Arm.h ****     virtual const char * getMD5() override { return "36f0809d92e060c19f205ca26715d3a2"; };
 246              		.loc 1 153 26 is_stmt 1 view -0
 247              		.cfi_startproc
 248              		@ args = 0, pretend = 0, frame = 0
 249              		@ frame_needed = 0, uses_anonymous_args = 0
 250              		@ link register save eliminated.
 251              		.loc 1 153 46 view .LVU86
 252              		.loc 1 153 89 is_stmt 0 view .LVU87
 253 0000 0048     		ldr	r0, .L10
 254              	.LVL17:
 255              		.loc 1 153 89 view .LVU88
 256 0002 7047     		bx	lr
 257              	.L11:
 258              		.align	2
 259              	.L10:
 260 0004 00000000 		.word	.LC1
 261              		.cfi_endproc
 262              	.LFE429:
 263              		.cantunwind
 264              		.fnend
 266              		.section	.text._ZNK13hydrosoft_ros10Sensor_Arm9serializeEPh,"axG",%progbits,_ZNK13hydrosoft_ros10S
 267              		.align	1
 268              		.weak	_ZNK13hydrosoft_ros10Sensor_Arm9serializeEPh
 269              		.syntax unified
 270              		.thumb
 271              		.thumb_func
 272              		.fpu softvfp
 274              	_ZNK13hydrosoft_ros10Sensor_Arm9serializeEPh:
 275              		.fnstart
 276              	.LVL18:
 277              	.LFB433:
 278              		.file 2 "User/Inc/rosserialInc/hydrosoft_ros/Sensor_Arm.h"
   1:User/Inc/rosserialInc/hydrosoft_ros/Sensor_Arm.h **** #ifndef _ROS_hydrosoft_ros_Sensor_Arm_h
   2:User/Inc/rosserialInc/hydrosoft_ros/Sensor_Arm.h **** #define _ROS_hydrosoft_ros_Sensor_Arm_h
   3:User/Inc/rosserialInc/hydrosoft_ros/Sensor_Arm.h **** 
   4:User/Inc/rosserialInc/hydrosoft_ros/Sensor_Arm.h **** #include <stdint.h>
   5:User/Inc/rosserialInc/hydrosoft_ros/Sensor_Arm.h **** #include <string.h>
   6:User/Inc/rosserialInc/hydrosoft_ros/Sensor_Arm.h **** #include <stdlib.h>
   7:User/Inc/rosserialInc/hydrosoft_ros/Sensor_Arm.h **** #include "ros/msg.h"
   8:User/Inc/rosserialInc/hydrosoft_ros/Sensor_Arm.h **** 
   9:User/Inc/rosserialInc/hydrosoft_ros/Sensor_Arm.h **** namespace hydrosoft_ros
  10:User/Inc/rosserialInc/hydrosoft_ros/Sensor_Arm.h **** {
  11:User/Inc/rosserialInc/hydrosoft_ros/Sensor_Arm.h **** 
  12:User/Inc/rosserialInc/hydrosoft_ros/Sensor_Arm.h ****   class Sensor_Arm : public ros::Msg
  13:User/Inc/rosserialInc/hydrosoft_ros/Sensor_Arm.h ****   {
  14:User/Inc/rosserialInc/hydrosoft_ros/Sensor_Arm.h ****     public:
  15:User/Inc/rosserialInc/hydrosoft_ros/Sensor_Arm.h ****       typedef int16_t _controlModeStatus_type;
  16:User/Inc/rosserialInc/hydrosoft_ros/Sensor_Arm.h ****       _controlModeStatus_type controlModeStatus;
  17:User/Inc/rosserialInc/hydrosoft_ros/Sensor_Arm.h ****       uint32_t actuatorStatus_length;
  18:User/Inc/rosserialInc/hydrosoft_ros/Sensor_Arm.h ****       typedef int16_t _actuatorStatus_type;
  19:User/Inc/rosserialInc/hydrosoft_ros/Sensor_Arm.h ****       _actuatorStatus_type st_actuatorStatus;
ARM GAS  /tmp/ccgPptWl.s 			page 9


  20:User/Inc/rosserialInc/hydrosoft_ros/Sensor_Arm.h ****       _actuatorStatus_type * actuatorStatus;
  21:User/Inc/rosserialInc/hydrosoft_ros/Sensor_Arm.h ****       typedef int16_t _gripperStatus_type;
  22:User/Inc/rosserialInc/hydrosoft_ros/Sensor_Arm.h ****       _gripperStatus_type gripperStatus;
  23:User/Inc/rosserialInc/hydrosoft_ros/Sensor_Arm.h ****       typedef int16_t _pSourceStatus_type;
  24:User/Inc/rosserialInc/hydrosoft_ros/Sensor_Arm.h ****       _pSourceStatus_type pSourceStatus;
  25:User/Inc/rosserialInc/hydrosoft_ros/Sensor_Arm.h ****       typedef int16_t _pSinkStatus_type;
  26:User/Inc/rosserialInc/hydrosoft_ros/Sensor_Arm.h ****       _pSinkStatus_type pSinkStatus;
  27:User/Inc/rosserialInc/hydrosoft_ros/Sensor_Arm.h ****       uint32_t quaternions_length;
  28:User/Inc/rosserialInc/hydrosoft_ros/Sensor_Arm.h ****       typedef int16_t _quaternions_type;
  29:User/Inc/rosserialInc/hydrosoft_ros/Sensor_Arm.h ****       _quaternions_type st_quaternions;
  30:User/Inc/rosserialInc/hydrosoft_ros/Sensor_Arm.h ****       _quaternions_type * quaternions;
  31:User/Inc/rosserialInc/hydrosoft_ros/Sensor_Arm.h **** 
  32:User/Inc/rosserialInc/hydrosoft_ros/Sensor_Arm.h ****     Sensor_Arm():
  33:User/Inc/rosserialInc/hydrosoft_ros/Sensor_Arm.h ****       controlModeStatus(0),
  34:User/Inc/rosserialInc/hydrosoft_ros/Sensor_Arm.h ****       actuatorStatus_length(0), st_actuatorStatus(), actuatorStatus(nullptr),
  35:User/Inc/rosserialInc/hydrosoft_ros/Sensor_Arm.h ****       gripperStatus(0),
  36:User/Inc/rosserialInc/hydrosoft_ros/Sensor_Arm.h ****       pSourceStatus(0),
  37:User/Inc/rosserialInc/hydrosoft_ros/Sensor_Arm.h ****       pSinkStatus(0),
  38:User/Inc/rosserialInc/hydrosoft_ros/Sensor_Arm.h ****       quaternions_length(0), st_quaternions(), quaternions(nullptr)
  39:User/Inc/rosserialInc/hydrosoft_ros/Sensor_Arm.h ****     {
  40:User/Inc/rosserialInc/hydrosoft_ros/Sensor_Arm.h ****     }
  41:User/Inc/rosserialInc/hydrosoft_ros/Sensor_Arm.h **** 
  42:User/Inc/rosserialInc/hydrosoft_ros/Sensor_Arm.h ****     virtual int serialize(unsigned char *outbuffer) const override
 279              		.loc 2 42 17 is_stmt 1 view -0
 280              		.cfi_startproc
 281              		@ args = 0, pretend = 0, frame = 0
 282              		@ frame_needed = 0, uses_anonymous_args = 0
 283              		.loc 2 42 17 is_stmt 0 view .LVU90
 284 0000 00B5     		push	{lr}
 285              	.LCFI1:
 286              		.cfi_def_cfa_offset 4
 287              		.cfi_offset 14, -4
 288 0002 8446     		mov	ip, r0
  43:User/Inc/rosserialInc/hydrosoft_ros/Sensor_Arm.h ****     {
  44:User/Inc/rosserialInc/hydrosoft_ros/Sensor_Arm.h ****       int offset = 0;
 289              		.loc 2 44 7 is_stmt 1 view .LVU91
 290              	.LVL19:
  45:User/Inc/rosserialInc/hydrosoft_ros/Sensor_Arm.h ****       union {
 291              		.loc 2 45 7 view .LVU92
  46:User/Inc/rosserialInc/hydrosoft_ros/Sensor_Arm.h ****         int16_t real;
  47:User/Inc/rosserialInc/hydrosoft_ros/Sensor_Arm.h ****         uint16_t base;
  48:User/Inc/rosserialInc/hydrosoft_ros/Sensor_Arm.h ****       } u_controlModeStatus;
  49:User/Inc/rosserialInc/hydrosoft_ros/Sensor_Arm.h ****       u_controlModeStatus.real = this->controlModeStatus;
 292              		.loc 2 49 7 view .LVU93
 293              		.loc 2 49 40 is_stmt 0 view .LVU94
 294 0004 B0F90430 		ldrsh	r3, [r0, #4]
  50:User/Inc/rosserialInc/hydrosoft_ros/Sensor_Arm.h ****       *(outbuffer + offset + 0) = (u_controlModeStatus.base >> (8 * 0)) & 0xFF;
 295              		.loc 2 50 7 is_stmt 1 view .LVU95
 296 0008 9BB2     		uxth	r3, r3
 297              		.loc 2 50 33 is_stmt 0 view .LVU96
 298 000a 0B70     		strb	r3, [r1]
  51:User/Inc/rosserialInc/hydrosoft_ros/Sensor_Arm.h ****       *(outbuffer + offset + 1) = (u_controlModeStatus.base >> (8 * 1)) & 0xFF;
 299              		.loc 2 51 7 is_stmt 1 view .LVU97
 300              		.loc 2 51 61 is_stmt 0 view .LVU98
 301 000c 1B0A     		lsrs	r3, r3, #8
 302              		.loc 2 51 33 view .LVU99
 303 000e 4B70     		strb	r3, [r1, #1]
ARM GAS  /tmp/ccgPptWl.s 			page 10


  52:User/Inc/rosserialInc/hydrosoft_ros/Sensor_Arm.h ****       offset += sizeof(this->controlModeStatus);
 304              		.loc 2 52 7 is_stmt 1 view .LVU100
 305              	.LVL20:
  53:User/Inc/rosserialInc/hydrosoft_ros/Sensor_Arm.h ****       *(outbuffer + offset + 0) = (this->actuatorStatus_length >> (8 * 0)) & 0xFF;
 306              		.loc 2 53 7 view .LVU101
 307              		.loc 2 53 42 is_stmt 0 view .LVU102
 308 0010 8368     		ldr	r3, [r0, #8]
 309              		.loc 2 53 33 view .LVU103
 310 0012 8B70     		strb	r3, [r1, #2]
  54:User/Inc/rosserialInc/hydrosoft_ros/Sensor_Arm.h ****       *(outbuffer + offset + 1) = (this->actuatorStatus_length >> (8 * 1)) & 0xFF;
 311              		.loc 2 54 7 is_stmt 1 view .LVU104
 312              		.loc 2 54 42 is_stmt 0 view .LVU105
 313 0014 8368     		ldr	r3, [r0, #8]
 314              		.loc 2 54 64 view .LVU106
 315 0016 1B0A     		lsrs	r3, r3, #8
 316              		.loc 2 54 33 view .LVU107
 317 0018 CB70     		strb	r3, [r1, #3]
  55:User/Inc/rosserialInc/hydrosoft_ros/Sensor_Arm.h ****       *(outbuffer + offset + 2) = (this->actuatorStatus_length >> (8 * 2)) & 0xFF;
 318              		.loc 2 55 7 is_stmt 1 view .LVU108
 319              		.loc 2 55 64 is_stmt 0 view .LVU109
 320 001a 4389     		ldrh	r3, [r0, #10]
 321              		.loc 2 55 33 view .LVU110
 322 001c 0B71     		strb	r3, [r1, #4]
  56:User/Inc/rosserialInc/hydrosoft_ros/Sensor_Arm.h ****       *(outbuffer + offset + 3) = (this->actuatorStatus_length >> (8 * 3)) & 0xFF;
 323              		.loc 2 56 7 is_stmt 1 view .LVU111
 324              		.loc 2 56 64 is_stmt 0 view .LVU112
 325 001e C37A     		ldrb	r3, [r0, #11]	@ zero_extendqisi2
 326              		.loc 2 56 33 view .LVU113
 327 0020 4B71     		strb	r3, [r1, #5]
  57:User/Inc/rosserialInc/hydrosoft_ros/Sensor_Arm.h ****       offset += sizeof(this->actuatorStatus_length);
 328              		.loc 2 57 7 is_stmt 1 view .LVU114
 329              	.LVL21:
  58:User/Inc/rosserialInc/hydrosoft_ros/Sensor_Arm.h ****       for( uint32_t i = 0; i < actuatorStatus_length; i++){
 330              		.loc 2 58 7 view .LVU115
 331              	.LBB48:
 332              		.loc 2 58 21 is_stmt 0 view .LVU116
 333 0022 0020     		movs	r0, #0
 334              	.LVL22:
 335              		.loc 2 58 21 view .LVU117
 336              	.LBE48:
  57:User/Inc/rosserialInc/hydrosoft_ros/Sensor_Arm.h ****       offset += sizeof(this->actuatorStatus_length);
 337              		.loc 2 57 14 view .LVU118
 338 0024 0623     		movs	r3, #6
 339 0026 0CE0     		b	.L14
 340              	.LVL23:
 341              	.L18:
 342              	.LBB50:
 343              	.LBB49:
  59:User/Inc/rosserialInc/hydrosoft_ros/Sensor_Arm.h ****       union {
 344              		.loc 2 59 7 is_stmt 1 discriminator 2 view .LVU119
  60:User/Inc/rosserialInc/hydrosoft_ros/Sensor_Arm.h ****         int16_t real;
  61:User/Inc/rosserialInc/hydrosoft_ros/Sensor_Arm.h ****         uint16_t base;
  62:User/Inc/rosserialInc/hydrosoft_ros/Sensor_Arm.h ****       } u_actuatorStatusi;
  63:User/Inc/rosserialInc/hydrosoft_ros/Sensor_Arm.h ****       u_actuatorStatusi.real = this->actuatorStatus[i];
 345              		.loc 2 63 7 discriminator 2 view .LVU120
 346              		.loc 2 63 38 is_stmt 0 discriminator 2 view .LVU121
 347 0028 DCF81020 		ldr	r2, [ip, #16]
ARM GAS  /tmp/ccgPptWl.s 			page 11


 348              		.loc 2 63 54 discriminator 2 view .LVU122
 349 002c 32F91020 		ldrsh	r2, [r2, r0, lsl #1]
  64:User/Inc/rosserialInc/hydrosoft_ros/Sensor_Arm.h ****       *(outbuffer + offset + 0) = (u_actuatorStatusi.base >> (8 * 0)) & 0xFF;
 350              		.loc 2 64 7 is_stmt 1 discriminator 2 view .LVU123
 351 0030 92B2     		uxth	r2, r2
 352              		.loc 2 64 33 is_stmt 0 discriminator 2 view .LVU124
 353 0032 CA54     		strb	r2, [r1, r3]
  65:User/Inc/rosserialInc/hydrosoft_ros/Sensor_Arm.h ****       *(outbuffer + offset + 1) = (u_actuatorStatusi.base >> (8 * 1)) & 0xFF;
 354              		.loc 2 65 7 is_stmt 1 discriminator 2 view .LVU125
 355              		.loc 2 65 59 is_stmt 0 discriminator 2 view .LVU126
 356 0034 120A     		lsrs	r2, r2, #8
 357              		.loc 2 65 28 discriminator 2 view .LVU127
 358 0036 03F1010E 		add	lr, r3, #1
 359              		.loc 2 65 33 discriminator 2 view .LVU128
 360 003a 01F80E20 		strb	r2, [r1, lr]
  66:User/Inc/rosserialInc/hydrosoft_ros/Sensor_Arm.h ****       offset += sizeof(this->actuatorStatus[i]);
 361              		.loc 2 66 7 is_stmt 1 discriminator 2 view .LVU129
 362              		.loc 2 66 14 is_stmt 0 discriminator 2 view .LVU130
 363 003e 0233     		adds	r3, r3, #2
 364              	.LVL24:
 365              		.loc 2 66 14 discriminator 2 view .LVU131
 366              	.LBE49:
  58:User/Inc/rosserialInc/hydrosoft_ros/Sensor_Arm.h ****       union {
 367              		.loc 2 58 7 is_stmt 1 discriminator 2 view .LVU132
 368 0040 0130     		adds	r0, r0, #1
 369              	.LVL25:
 370              	.L14:
  58:User/Inc/rosserialInc/hydrosoft_ros/Sensor_Arm.h ****       union {
 371              		.loc 2 58 30 discriminator 3 view .LVU133
  58:User/Inc/rosserialInc/hydrosoft_ros/Sensor_Arm.h ****       union {
 372              		.loc 2 58 32 is_stmt 0 discriminator 3 view .LVU134
 373 0042 DCF80820 		ldr	r2, [ip, #8]
  58:User/Inc/rosserialInc/hydrosoft_ros/Sensor_Arm.h ****       union {
 374              		.loc 2 58 30 discriminator 3 view .LVU135
 375 0046 8242     		cmp	r2, r0
 376 0048 EED8     		bhi	.L18
 377              	.LBE50:
  67:User/Inc/rosserialInc/hydrosoft_ros/Sensor_Arm.h ****       }
  68:User/Inc/rosserialInc/hydrosoft_ros/Sensor_Arm.h ****       union {
 378              		.loc 2 68 7 is_stmt 1 view .LVU136
  69:User/Inc/rosserialInc/hydrosoft_ros/Sensor_Arm.h ****         int16_t real;
  70:User/Inc/rosserialInc/hydrosoft_ros/Sensor_Arm.h ****         uint16_t base;
  71:User/Inc/rosserialInc/hydrosoft_ros/Sensor_Arm.h ****       } u_gripperStatus;
  72:User/Inc/rosserialInc/hydrosoft_ros/Sensor_Arm.h ****       u_gripperStatus.real = this->gripperStatus;
 379              		.loc 2 72 7 view .LVU137
 380              		.loc 2 72 36 is_stmt 0 view .LVU138
 381 004a BCF91420 		ldrsh	r2, [ip, #20]
  73:User/Inc/rosserialInc/hydrosoft_ros/Sensor_Arm.h ****       *(outbuffer + offset + 0) = (u_gripperStatus.base >> (8 * 0)) & 0xFF;
 382              		.loc 2 73 7 is_stmt 1 view .LVU139
 383 004e 92B2     		uxth	r2, r2
 384              		.loc 2 73 33 is_stmt 0 view .LVU140
 385 0050 CA54     		strb	r2, [r1, r3]
  74:User/Inc/rosserialInc/hydrosoft_ros/Sensor_Arm.h ****       *(outbuffer + offset + 1) = (u_gripperStatus.base >> (8 * 1)) & 0xFF;
 386              		.loc 2 74 7 is_stmt 1 view .LVU141
 387              		.loc 2 74 57 is_stmt 0 view .LVU142
 388 0052 120A     		lsrs	r2, r2, #8
 389              		.loc 2 74 28 view .LVU143
ARM GAS  /tmp/ccgPptWl.s 			page 12


 390 0054 581C     		adds	r0, r3, #1
 391              	.LVL26:
 392              		.loc 2 74 33 view .LVU144
 393 0056 0A54     		strb	r2, [r1, r0]
  75:User/Inc/rosserialInc/hydrosoft_ros/Sensor_Arm.h ****       offset += sizeof(this->gripperStatus);
 394              		.loc 2 75 7 is_stmt 1 view .LVU145
 395              		.loc 2 75 14 is_stmt 0 view .LVU146
 396 0058 981C     		adds	r0, r3, #2
 397              	.LVL27:
  76:User/Inc/rosserialInc/hydrosoft_ros/Sensor_Arm.h ****       union {
 398              		.loc 2 76 7 is_stmt 1 view .LVU147
  77:User/Inc/rosserialInc/hydrosoft_ros/Sensor_Arm.h ****         int16_t real;
  78:User/Inc/rosserialInc/hydrosoft_ros/Sensor_Arm.h ****         uint16_t base;
  79:User/Inc/rosserialInc/hydrosoft_ros/Sensor_Arm.h ****       } u_pSourceStatus;
  80:User/Inc/rosserialInc/hydrosoft_ros/Sensor_Arm.h ****       u_pSourceStatus.real = this->pSourceStatus;
 399              		.loc 2 80 7 view .LVU148
 400              		.loc 2 80 36 is_stmt 0 view .LVU149
 401 005a BCF91620 		ldrsh	r2, [ip, #22]
  81:User/Inc/rosserialInc/hydrosoft_ros/Sensor_Arm.h ****       *(outbuffer + offset + 0) = (u_pSourceStatus.base >> (8 * 0)) & 0xFF;
 402              		.loc 2 81 7 is_stmt 1 view .LVU150
 403 005e 92B2     		uxth	r2, r2
 404              		.loc 2 81 33 is_stmt 0 view .LVU151
 405 0060 0A54     		strb	r2, [r1, r0]
  82:User/Inc/rosserialInc/hydrosoft_ros/Sensor_Arm.h ****       *(outbuffer + offset + 1) = (u_pSourceStatus.base >> (8 * 1)) & 0xFF;
 406              		.loc 2 82 7 is_stmt 1 view .LVU152
 407              		.loc 2 82 57 is_stmt 0 view .LVU153
 408 0062 120A     		lsrs	r2, r2, #8
 409              		.loc 2 82 28 view .LVU154
 410 0064 D81C     		adds	r0, r3, #3
 411              	.LVL28:
 412              		.loc 2 82 33 view .LVU155
 413 0066 0A54     		strb	r2, [r1, r0]
  83:User/Inc/rosserialInc/hydrosoft_ros/Sensor_Arm.h ****       offset += sizeof(this->pSourceStatus);
 414              		.loc 2 83 7 is_stmt 1 view .LVU156
 415              		.loc 2 83 14 is_stmt 0 view .LVU157
 416 0068 181D     		adds	r0, r3, #4
 417              	.LVL29:
  84:User/Inc/rosserialInc/hydrosoft_ros/Sensor_Arm.h ****       union {
 418              		.loc 2 84 7 is_stmt 1 view .LVU158
  85:User/Inc/rosserialInc/hydrosoft_ros/Sensor_Arm.h ****         int16_t real;
  86:User/Inc/rosserialInc/hydrosoft_ros/Sensor_Arm.h ****         uint16_t base;
  87:User/Inc/rosserialInc/hydrosoft_ros/Sensor_Arm.h ****       } u_pSinkStatus;
  88:User/Inc/rosserialInc/hydrosoft_ros/Sensor_Arm.h ****       u_pSinkStatus.real = this->pSinkStatus;
 419              		.loc 2 88 7 view .LVU159
 420              		.loc 2 88 34 is_stmt 0 view .LVU160
 421 006a BCF91820 		ldrsh	r2, [ip, #24]
  89:User/Inc/rosserialInc/hydrosoft_ros/Sensor_Arm.h ****       *(outbuffer + offset + 0) = (u_pSinkStatus.base >> (8 * 0)) & 0xFF;
 422              		.loc 2 89 7 is_stmt 1 view .LVU161
 423 006e 92B2     		uxth	r2, r2
 424              		.loc 2 89 33 is_stmt 0 view .LVU162
 425 0070 0A54     		strb	r2, [r1, r0]
  90:User/Inc/rosserialInc/hydrosoft_ros/Sensor_Arm.h ****       *(outbuffer + offset + 1) = (u_pSinkStatus.base >> (8 * 1)) & 0xFF;
 426              		.loc 2 90 7 is_stmt 1 view .LVU163
 427              		.loc 2 90 55 is_stmt 0 view .LVU164
 428 0072 120A     		lsrs	r2, r2, #8
 429              		.loc 2 90 28 view .LVU165
 430 0074 581D     		adds	r0, r3, #5
ARM GAS  /tmp/ccgPptWl.s 			page 13


 431              	.LVL30:
 432              		.loc 2 90 33 view .LVU166
 433 0076 0A54     		strb	r2, [r1, r0]
  91:User/Inc/rosserialInc/hydrosoft_ros/Sensor_Arm.h ****       offset += sizeof(this->pSinkStatus);
 434              		.loc 2 91 7 is_stmt 1 view .LVU167
 435              		.loc 2 91 14 is_stmt 0 view .LVU168
 436 0078 9A1D     		adds	r2, r3, #6
 437              	.LVL31:
  92:User/Inc/rosserialInc/hydrosoft_ros/Sensor_Arm.h ****       *(outbuffer + offset + 0) = (this->quaternions_length >> (8 * 0)) & 0xFF;
 438              		.loc 2 92 7 is_stmt 1 view .LVU169
 439              		.loc 2 92 42 is_stmt 0 view .LVU170
 440 007a DCF81C00 		ldr	r0, [ip, #28]
 441              		.loc 2 92 33 view .LVU171
 442 007e 8854     		strb	r0, [r1, r2]
  93:User/Inc/rosserialInc/hydrosoft_ros/Sensor_Arm.h ****       *(outbuffer + offset + 1) = (this->quaternions_length >> (8 * 1)) & 0xFF;
 443              		.loc 2 93 7 is_stmt 1 view .LVU172
 444              		.loc 2 93 42 is_stmt 0 view .LVU173
 445 0080 DCF81C20 		ldr	r2, [ip, #28]
 446              	.LVL32:
 447              		.loc 2 93 61 view .LVU174
 448 0084 120A     		lsrs	r2, r2, #8
 449              		.loc 2 93 28 view .LVU175
 450 0086 D81D     		adds	r0, r3, #7
 451              		.loc 2 93 33 view .LVU176
 452 0088 0A54     		strb	r2, [r1, r0]
  94:User/Inc/rosserialInc/hydrosoft_ros/Sensor_Arm.h ****       *(outbuffer + offset + 2) = (this->quaternions_length >> (8 * 2)) & 0xFF;
 453              		.loc 2 94 7 is_stmt 1 view .LVU177
 454              		.loc 2 94 61 is_stmt 0 view .LVU178
 455 008a BCF81E00 		ldrh	r0, [ip, #30]
 456              		.loc 2 94 28 view .LVU179
 457 008e 03F10802 		add	r2, r3, #8
 458              		.loc 2 94 33 view .LVU180
 459 0092 8854     		strb	r0, [r1, r2]
  95:User/Inc/rosserialInc/hydrosoft_ros/Sensor_Arm.h ****       *(outbuffer + offset + 3) = (this->quaternions_length >> (8 * 3)) & 0xFF;
 460              		.loc 2 95 7 is_stmt 1 view .LVU181
 461              		.loc 2 95 61 is_stmt 0 view .LVU182
 462 0094 9CF81F00 		ldrb	r0, [ip, #31]	@ zero_extendqisi2
 463              		.loc 2 95 28 view .LVU183
 464 0098 03F10902 		add	r2, r3, #9
 465              		.loc 2 95 33 view .LVU184
 466 009c 8854     		strb	r0, [r1, r2]
  96:User/Inc/rosserialInc/hydrosoft_ros/Sensor_Arm.h ****       offset += sizeof(this->quaternions_length);
 467              		.loc 2 96 7 is_stmt 1 view .LVU185
 468              		.loc 2 96 14 is_stmt 0 view .LVU186
 469 009e 03F10A00 		add	r0, r3, #10
 470              	.LVL33:
  97:User/Inc/rosserialInc/hydrosoft_ros/Sensor_Arm.h ****       for( uint32_t i = 0; i < quaternions_length; i++){
 471              		.loc 2 97 7 is_stmt 1 view .LVU187
 472              	.LBB51:
 473              		.loc 2 97 21 is_stmt 0 view .LVU188
 474 00a2 0022     		movs	r2, #0
 475 00a4 0CE0     		b	.L16
 476              	.LVL34:
 477              	.L19:
 478              	.LBB52:
  98:User/Inc/rosserialInc/hydrosoft_ros/Sensor_Arm.h ****       union {
 479              		.loc 2 98 7 is_stmt 1 discriminator 2 view .LVU189
ARM GAS  /tmp/ccgPptWl.s 			page 14


  99:User/Inc/rosserialInc/hydrosoft_ros/Sensor_Arm.h ****         int16_t real;
 100:User/Inc/rosserialInc/hydrosoft_ros/Sensor_Arm.h ****         uint16_t base;
 101:User/Inc/rosserialInc/hydrosoft_ros/Sensor_Arm.h ****       } u_quaternionsi;
 102:User/Inc/rosserialInc/hydrosoft_ros/Sensor_Arm.h ****       u_quaternionsi.real = this->quaternions[i];
 480              		.loc 2 102 7 discriminator 2 view .LVU190
 481              		.loc 2 102 35 is_stmt 0 discriminator 2 view .LVU191
 482 00a6 DCF82430 		ldr	r3, [ip, #36]
 483              		.loc 2 102 48 discriminator 2 view .LVU192
 484 00aa 33F91230 		ldrsh	r3, [r3, r2, lsl #1]
 103:User/Inc/rosserialInc/hydrosoft_ros/Sensor_Arm.h ****       *(outbuffer + offset + 0) = (u_quaternionsi.base >> (8 * 0)) & 0xFF;
 485              		.loc 2 103 7 is_stmt 1 discriminator 2 view .LVU193
 486 00ae 9BB2     		uxth	r3, r3
 487              		.loc 2 103 33 is_stmt 0 discriminator 2 view .LVU194
 488 00b0 0B54     		strb	r3, [r1, r0]
 104:User/Inc/rosserialInc/hydrosoft_ros/Sensor_Arm.h ****       *(outbuffer + offset + 1) = (u_quaternionsi.base >> (8 * 1)) & 0xFF;
 489              		.loc 2 104 7 is_stmt 1 discriminator 2 view .LVU195
 490              		.loc 2 104 56 is_stmt 0 discriminator 2 view .LVU196
 491 00b2 1B0A     		lsrs	r3, r3, #8
 492              		.loc 2 104 28 discriminator 2 view .LVU197
 493 00b4 00F1010E 		add	lr, r0, #1
 494              		.loc 2 104 33 discriminator 2 view .LVU198
 495 00b8 01F80E30 		strb	r3, [r1, lr]
 105:User/Inc/rosserialInc/hydrosoft_ros/Sensor_Arm.h ****       offset += sizeof(this->quaternions[i]);
 496              		.loc 2 105 7 is_stmt 1 discriminator 2 view .LVU199
 497              		.loc 2 105 14 is_stmt 0 discriminator 2 view .LVU200
 498 00bc 0230     		adds	r0, r0, #2
 499              	.LVL35:
 500              		.loc 2 105 14 discriminator 2 view .LVU201
 501              	.LBE52:
  97:User/Inc/rosserialInc/hydrosoft_ros/Sensor_Arm.h ****       union {
 502              		.loc 2 97 7 is_stmt 1 discriminator 2 view .LVU202
 503 00be 0132     		adds	r2, r2, #1
 504              	.LVL36:
 505              	.L16:
  97:User/Inc/rosserialInc/hydrosoft_ros/Sensor_Arm.h ****       union {
 506              		.loc 2 97 30 discriminator 3 view .LVU203
  97:User/Inc/rosserialInc/hydrosoft_ros/Sensor_Arm.h ****       union {
 507              		.loc 2 97 32 is_stmt 0 discriminator 3 view .LVU204
 508 00c0 DCF81C30 		ldr	r3, [ip, #28]
  97:User/Inc/rosserialInc/hydrosoft_ros/Sensor_Arm.h ****       union {
 509              		.loc 2 97 30 discriminator 3 view .LVU205
 510 00c4 9342     		cmp	r3, r2
 511 00c6 EED8     		bhi	.L19
  97:User/Inc/rosserialInc/hydrosoft_ros/Sensor_Arm.h ****       union {
 512              		.loc 2 97 30 discriminator 3 view .LVU206
 513              	.LBE51:
 106:User/Inc/rosserialInc/hydrosoft_ros/Sensor_Arm.h ****       }
 107:User/Inc/rosserialInc/hydrosoft_ros/Sensor_Arm.h ****       return offset;
 108:User/Inc/rosserialInc/hydrosoft_ros/Sensor_Arm.h ****     }
 514              		.loc 2 108 5 view .LVU207
 515 00c8 5DF804FB 		ldr	pc, [sp], #4
 516              		.cfi_endproc
 517              	.LFE433:
 518              		.cantunwind
 519              		.fnend
 521              		.section	.rodata._ZN13hydrosoft_ros10Sensor_Arm7getTypeEv.str1.4,"aMS",%progbits,1
 522              		.align	2
ARM GAS  /tmp/ccgPptWl.s 			page 15


 523              	.LC2:
 524 0000 68796472 		.ascii	"hydrosoft_ros/Sensor_Arm\000"
 524      6F736F66 
 524      745F726F 
 524      732F5365 
 524      6E736F72 
 525              		.section	.text._ZN13hydrosoft_ros10Sensor_Arm7getTypeEv,"axG",%progbits,_ZN13hydrosoft_ros10Sensor
 526              		.align	1
 527              		.weak	_ZN13hydrosoft_ros10Sensor_Arm7getTypeEv
 528              		.syntax unified
 529              		.thumb
 530              		.thumb_func
 531              		.fpu softvfp
 533              	_ZN13hydrosoft_ros10Sensor_Arm7getTypeEv:
 534              		.fnstart
 535              	.LVL37:
 536              	.LFB435:
 109:User/Inc/rosserialInc/hydrosoft_ros/Sensor_Arm.h **** 
 110:User/Inc/rosserialInc/hydrosoft_ros/Sensor_Arm.h ****     virtual int deserialize(unsigned char *inbuffer) override
 111:User/Inc/rosserialInc/hydrosoft_ros/Sensor_Arm.h ****     {
 112:User/Inc/rosserialInc/hydrosoft_ros/Sensor_Arm.h ****       int offset = 0;
 113:User/Inc/rosserialInc/hydrosoft_ros/Sensor_Arm.h ****       union {
 114:User/Inc/rosserialInc/hydrosoft_ros/Sensor_Arm.h ****         int16_t real;
 115:User/Inc/rosserialInc/hydrosoft_ros/Sensor_Arm.h ****         uint16_t base;
 116:User/Inc/rosserialInc/hydrosoft_ros/Sensor_Arm.h ****       } u_controlModeStatus;
 117:User/Inc/rosserialInc/hydrosoft_ros/Sensor_Arm.h ****       u_controlModeStatus.base = 0;
 118:User/Inc/rosserialInc/hydrosoft_ros/Sensor_Arm.h ****       u_controlModeStatus.base |= ((uint16_t) (*(inbuffer + offset + 0))) << (8 * 0);
 119:User/Inc/rosserialInc/hydrosoft_ros/Sensor_Arm.h ****       u_controlModeStatus.base |= ((uint16_t) (*(inbuffer + offset + 1))) << (8 * 1);
 120:User/Inc/rosserialInc/hydrosoft_ros/Sensor_Arm.h ****       this->controlModeStatus = u_controlModeStatus.real;
 121:User/Inc/rosserialInc/hydrosoft_ros/Sensor_Arm.h ****       offset += sizeof(this->controlModeStatus);
 122:User/Inc/rosserialInc/hydrosoft_ros/Sensor_Arm.h ****       uint32_t actuatorStatus_lengthT = ((uint32_t) (*(inbuffer + offset))); 
 123:User/Inc/rosserialInc/hydrosoft_ros/Sensor_Arm.h ****       actuatorStatus_lengthT |= ((uint32_t) (*(inbuffer + offset + 1))) << (8 * 1); 
 124:User/Inc/rosserialInc/hydrosoft_ros/Sensor_Arm.h ****       actuatorStatus_lengthT |= ((uint32_t) (*(inbuffer + offset + 2))) << (8 * 2); 
 125:User/Inc/rosserialInc/hydrosoft_ros/Sensor_Arm.h ****       actuatorStatus_lengthT |= ((uint32_t) (*(inbuffer + offset + 3))) << (8 * 3); 
 126:User/Inc/rosserialInc/hydrosoft_ros/Sensor_Arm.h ****       offset += sizeof(this->actuatorStatus_length);
 127:User/Inc/rosserialInc/hydrosoft_ros/Sensor_Arm.h ****       if(actuatorStatus_lengthT > actuatorStatus_length)
 128:User/Inc/rosserialInc/hydrosoft_ros/Sensor_Arm.h ****         this->actuatorStatus = (int16_t*)realloc(this->actuatorStatus, actuatorStatus_lengthT * siz
 129:User/Inc/rosserialInc/hydrosoft_ros/Sensor_Arm.h ****       actuatorStatus_length = actuatorStatus_lengthT;
 130:User/Inc/rosserialInc/hydrosoft_ros/Sensor_Arm.h ****       for( uint32_t i = 0; i < actuatorStatus_length; i++){
 131:User/Inc/rosserialInc/hydrosoft_ros/Sensor_Arm.h ****       union {
 132:User/Inc/rosserialInc/hydrosoft_ros/Sensor_Arm.h ****         int16_t real;
 133:User/Inc/rosserialInc/hydrosoft_ros/Sensor_Arm.h ****         uint16_t base;
 134:User/Inc/rosserialInc/hydrosoft_ros/Sensor_Arm.h ****       } u_st_actuatorStatus;
 135:User/Inc/rosserialInc/hydrosoft_ros/Sensor_Arm.h ****       u_st_actuatorStatus.base = 0;
 136:User/Inc/rosserialInc/hydrosoft_ros/Sensor_Arm.h ****       u_st_actuatorStatus.base |= ((uint16_t) (*(inbuffer + offset + 0))) << (8 * 0);
 137:User/Inc/rosserialInc/hydrosoft_ros/Sensor_Arm.h ****       u_st_actuatorStatus.base |= ((uint16_t) (*(inbuffer + offset + 1))) << (8 * 1);
 138:User/Inc/rosserialInc/hydrosoft_ros/Sensor_Arm.h ****       this->st_actuatorStatus = u_st_actuatorStatus.real;
 139:User/Inc/rosserialInc/hydrosoft_ros/Sensor_Arm.h ****       offset += sizeof(this->st_actuatorStatus);
 140:User/Inc/rosserialInc/hydrosoft_ros/Sensor_Arm.h ****         memcpy( &(this->actuatorStatus[i]), &(this->st_actuatorStatus), sizeof(int16_t));
 141:User/Inc/rosserialInc/hydrosoft_ros/Sensor_Arm.h ****       }
 142:User/Inc/rosserialInc/hydrosoft_ros/Sensor_Arm.h ****       union {
 143:User/Inc/rosserialInc/hydrosoft_ros/Sensor_Arm.h ****         int16_t real;
 144:User/Inc/rosserialInc/hydrosoft_ros/Sensor_Arm.h ****         uint16_t base;
 145:User/Inc/rosserialInc/hydrosoft_ros/Sensor_Arm.h ****       } u_gripperStatus;
 146:User/Inc/rosserialInc/hydrosoft_ros/Sensor_Arm.h ****       u_gripperStatus.base = 0;
 147:User/Inc/rosserialInc/hydrosoft_ros/Sensor_Arm.h ****       u_gripperStatus.base |= ((uint16_t) (*(inbuffer + offset + 0))) << (8 * 0);
 148:User/Inc/rosserialInc/hydrosoft_ros/Sensor_Arm.h ****       u_gripperStatus.base |= ((uint16_t) (*(inbuffer + offset + 1))) << (8 * 1);
ARM GAS  /tmp/ccgPptWl.s 			page 16


 149:User/Inc/rosserialInc/hydrosoft_ros/Sensor_Arm.h ****       this->gripperStatus = u_gripperStatus.real;
 150:User/Inc/rosserialInc/hydrosoft_ros/Sensor_Arm.h ****       offset += sizeof(this->gripperStatus);
 151:User/Inc/rosserialInc/hydrosoft_ros/Sensor_Arm.h ****       union {
 152:User/Inc/rosserialInc/hydrosoft_ros/Sensor_Arm.h ****         int16_t real;
 153:User/Inc/rosserialInc/hydrosoft_ros/Sensor_Arm.h ****         uint16_t base;
 154:User/Inc/rosserialInc/hydrosoft_ros/Sensor_Arm.h ****       } u_pSourceStatus;
 155:User/Inc/rosserialInc/hydrosoft_ros/Sensor_Arm.h ****       u_pSourceStatus.base = 0;
 156:User/Inc/rosserialInc/hydrosoft_ros/Sensor_Arm.h ****       u_pSourceStatus.base |= ((uint16_t) (*(inbuffer + offset + 0))) << (8 * 0);
 157:User/Inc/rosserialInc/hydrosoft_ros/Sensor_Arm.h ****       u_pSourceStatus.base |= ((uint16_t) (*(inbuffer + offset + 1))) << (8 * 1);
 158:User/Inc/rosserialInc/hydrosoft_ros/Sensor_Arm.h ****       this->pSourceStatus = u_pSourceStatus.real;
 159:User/Inc/rosserialInc/hydrosoft_ros/Sensor_Arm.h ****       offset += sizeof(this->pSourceStatus);
 160:User/Inc/rosserialInc/hydrosoft_ros/Sensor_Arm.h ****       union {
 161:User/Inc/rosserialInc/hydrosoft_ros/Sensor_Arm.h ****         int16_t real;
 162:User/Inc/rosserialInc/hydrosoft_ros/Sensor_Arm.h ****         uint16_t base;
 163:User/Inc/rosserialInc/hydrosoft_ros/Sensor_Arm.h ****       } u_pSinkStatus;
 164:User/Inc/rosserialInc/hydrosoft_ros/Sensor_Arm.h ****       u_pSinkStatus.base = 0;
 165:User/Inc/rosserialInc/hydrosoft_ros/Sensor_Arm.h ****       u_pSinkStatus.base |= ((uint16_t) (*(inbuffer + offset + 0))) << (8 * 0);
 166:User/Inc/rosserialInc/hydrosoft_ros/Sensor_Arm.h ****       u_pSinkStatus.base |= ((uint16_t) (*(inbuffer + offset + 1))) << (8 * 1);
 167:User/Inc/rosserialInc/hydrosoft_ros/Sensor_Arm.h ****       this->pSinkStatus = u_pSinkStatus.real;
 168:User/Inc/rosserialInc/hydrosoft_ros/Sensor_Arm.h ****       offset += sizeof(this->pSinkStatus);
 169:User/Inc/rosserialInc/hydrosoft_ros/Sensor_Arm.h ****       uint32_t quaternions_lengthT = ((uint32_t) (*(inbuffer + offset))); 
 170:User/Inc/rosserialInc/hydrosoft_ros/Sensor_Arm.h ****       quaternions_lengthT |= ((uint32_t) (*(inbuffer + offset + 1))) << (8 * 1); 
 171:User/Inc/rosserialInc/hydrosoft_ros/Sensor_Arm.h ****       quaternions_lengthT |= ((uint32_t) (*(inbuffer + offset + 2))) << (8 * 2); 
 172:User/Inc/rosserialInc/hydrosoft_ros/Sensor_Arm.h ****       quaternions_lengthT |= ((uint32_t) (*(inbuffer + offset + 3))) << (8 * 3); 
 173:User/Inc/rosserialInc/hydrosoft_ros/Sensor_Arm.h ****       offset += sizeof(this->quaternions_length);
 174:User/Inc/rosserialInc/hydrosoft_ros/Sensor_Arm.h ****       if(quaternions_lengthT > quaternions_length)
 175:User/Inc/rosserialInc/hydrosoft_ros/Sensor_Arm.h ****         this->quaternions = (int16_t*)realloc(this->quaternions, quaternions_lengthT * sizeof(int16
 176:User/Inc/rosserialInc/hydrosoft_ros/Sensor_Arm.h ****       quaternions_length = quaternions_lengthT;
 177:User/Inc/rosserialInc/hydrosoft_ros/Sensor_Arm.h ****       for( uint32_t i = 0; i < quaternions_length; i++){
 178:User/Inc/rosserialInc/hydrosoft_ros/Sensor_Arm.h ****       union {
 179:User/Inc/rosserialInc/hydrosoft_ros/Sensor_Arm.h ****         int16_t real;
 180:User/Inc/rosserialInc/hydrosoft_ros/Sensor_Arm.h ****         uint16_t base;
 181:User/Inc/rosserialInc/hydrosoft_ros/Sensor_Arm.h ****       } u_st_quaternions;
 182:User/Inc/rosserialInc/hydrosoft_ros/Sensor_Arm.h ****       u_st_quaternions.base = 0;
 183:User/Inc/rosserialInc/hydrosoft_ros/Sensor_Arm.h ****       u_st_quaternions.base |= ((uint16_t) (*(inbuffer + offset + 0))) << (8 * 0);
 184:User/Inc/rosserialInc/hydrosoft_ros/Sensor_Arm.h ****       u_st_quaternions.base |= ((uint16_t) (*(inbuffer + offset + 1))) << (8 * 1);
 185:User/Inc/rosserialInc/hydrosoft_ros/Sensor_Arm.h ****       this->st_quaternions = u_st_quaternions.real;
 186:User/Inc/rosserialInc/hydrosoft_ros/Sensor_Arm.h ****       offset += sizeof(this->st_quaternions);
 187:User/Inc/rosserialInc/hydrosoft_ros/Sensor_Arm.h ****         memcpy( &(this->quaternions[i]), &(this->st_quaternions), sizeof(int16_t));
 188:User/Inc/rosserialInc/hydrosoft_ros/Sensor_Arm.h ****       }
 189:User/Inc/rosserialInc/hydrosoft_ros/Sensor_Arm.h ****      return offset;
 190:User/Inc/rosserialInc/hydrosoft_ros/Sensor_Arm.h ****     }
 191:User/Inc/rosserialInc/hydrosoft_ros/Sensor_Arm.h **** 
 192:User/Inc/rosserialInc/hydrosoft_ros/Sensor_Arm.h ****     virtual const char * getType() override { return "hydrosoft_ros/Sensor_Arm"; };
 537              		.loc 2 192 26 is_stmt 1 view -0
 538              		.cfi_startproc
 539              		@ args = 0, pretend = 0, frame = 0
 540              		@ frame_needed = 0, uses_anonymous_args = 0
 541              		@ link register save eliminated.
 542              		.loc 2 192 47 view .LVU209
 543              		.loc 2 192 82 is_stmt 0 view .LVU210
 544 0000 0048     		ldr	r0, .L21
 545              	.LVL38:
 546              		.loc 2 192 82 view .LVU211
 547 0002 7047     		bx	lr
 548              	.L22:
 549              		.align	2
ARM GAS  /tmp/ccgPptWl.s 			page 17


 550              	.L21:
 551 0004 00000000 		.word	.LC2
 552              		.cfi_endproc
 553              	.LFE435:
 554              		.cantunwind
 555              		.fnend
 557              		.section	.rodata._ZN13hydrosoft_ros10Sensor_Arm6getMD5Ev.str1.4,"aMS",%progbits,1
 558              		.align	2
 559              	.LC3:
 560 0000 62633432 		.ascii	"bc428f4929dae1c25e71344937e9850d\000"
 560      38663439 
 560      32396461 
 560      65316332 
 560      35653731 
 561              		.section	.text._ZN13hydrosoft_ros10Sensor_Arm6getMD5Ev,"axG",%progbits,_ZN13hydrosoft_ros10Sensor_
 562              		.align	1
 563              		.weak	_ZN13hydrosoft_ros10Sensor_Arm6getMD5Ev
 564              		.syntax unified
 565              		.thumb
 566              		.thumb_func
 567              		.fpu softvfp
 569              	_ZN13hydrosoft_ros10Sensor_Arm6getMD5Ev:
 570              		.fnstart
 571              	.LVL39:
 572              	.LFB436:
 193:User/Inc/rosserialInc/hydrosoft_ros/Sensor_Arm.h ****     virtual const char * getMD5() override { return "bc428f4929dae1c25e71344937e9850d"; };
 573              		.loc 2 193 26 is_stmt 1 view -0
 574              		.cfi_startproc
 575              		@ args = 0, pretend = 0, frame = 0
 576              		@ frame_needed = 0, uses_anonymous_args = 0
 577              		@ link register save eliminated.
 578              		.loc 2 193 46 view .LVU213
 579              		.loc 2 193 89 is_stmt 0 view .LVU214
 580 0000 0048     		ldr	r0, .L24
 581              	.LVL40:
 582              		.loc 2 193 89 view .LVU215
 583 0002 7047     		bx	lr
 584              	.L25:
 585              		.align	2
 586              	.L24:
 587 0004 00000000 		.word	.LC3
 588              		.cfi_endproc
 589              	.LFE436:
 590              		.cantunwind
 591              		.fnend
 593              		.section	.text._ZN13hydrosoft_ros10Sensor_Arm11deserializeEPh,"axG",%progbits,_ZN13hydrosoft_ros10
 594              		.align	1
 595              		.weak	_ZN13hydrosoft_ros10Sensor_Arm11deserializeEPh
 596              		.syntax unified
 597              		.thumb
 598              		.thumb_func
 599              		.fpu softvfp
 601              	_ZN13hydrosoft_ros10Sensor_Arm11deserializeEPh:
 602              		.fnstart
 603              	.LVL41:
 604              	.LFB434:
 110:User/Inc/rosserialInc/hydrosoft_ros/Sensor_Arm.h ****     {
ARM GAS  /tmp/ccgPptWl.s 			page 18


 605              		.loc 2 110 17 is_stmt 1 view -0
 606              		.cfi_startproc
 607              		@ args = 0, pretend = 0, frame = 0
 608              		@ frame_needed = 0, uses_anonymous_args = 0
 110:User/Inc/rosserialInc/hydrosoft_ros/Sensor_Arm.h ****     {
 609              		.loc 2 110 17 is_stmt 0 view .LVU217
 610 0000 F8B5     		push	{r3, r4, r5, r6, r7, lr}
 611              	.LCFI2:
 612              		.cfi_def_cfa_offset 24
 613              		.cfi_offset 3, -24
 614              		.cfi_offset 4, -20
 615              		.cfi_offset 5, -16
 616              		.cfi_offset 6, -12
 617              		.cfi_offset 7, -8
 618              		.cfi_offset 14, -4
 619 0002 0546     		mov	r5, r0
 620 0004 0E46     		mov	r6, r1
 112:User/Inc/rosserialInc/hydrosoft_ros/Sensor_Arm.h ****       union {
 621              		.loc 2 112 7 is_stmt 1 view .LVU218
 622              	.LVL42:
 113:User/Inc/rosserialInc/hydrosoft_ros/Sensor_Arm.h ****         int16_t real;
 623              		.loc 2 113 7 view .LVU219
 117:User/Inc/rosserialInc/hydrosoft_ros/Sensor_Arm.h ****       u_controlModeStatus.base |= ((uint16_t) (*(inbuffer + offset + 0))) << (8 * 0);
 624              		.loc 2 117 7 view .LVU220
 118:User/Inc/rosserialInc/hydrosoft_ros/Sensor_Arm.h ****       u_controlModeStatus.base |= ((uint16_t) (*(inbuffer + offset + 1))) << (8 * 1);
 625              		.loc 2 118 7 view .LVU221
 118:User/Inc/rosserialInc/hydrosoft_ros/Sensor_Arm.h ****       u_controlModeStatus.base |= ((uint16_t) (*(inbuffer + offset + 1))) << (8 * 1);
 626              		.loc 2 118 48 is_stmt 0 view .LVU222
 627 0006 0B78     		ldrb	r3, [r1]	@ zero_extendqisi2
 119:User/Inc/rosserialInc/hydrosoft_ros/Sensor_Arm.h ****       this->controlModeStatus = u_controlModeStatus.real;
 628              		.loc 2 119 7 is_stmt 1 view .LVU223
 119:User/Inc/rosserialInc/hydrosoft_ros/Sensor_Arm.h ****       this->controlModeStatus = u_controlModeStatus.real;
 629              		.loc 2 119 48 is_stmt 0 view .LVU224
 630 0008 4A78     		ldrb	r2, [r1, #1]	@ zero_extendqisi2
 119:User/Inc/rosserialInc/hydrosoft_ros/Sensor_Arm.h ****       this->controlModeStatus = u_controlModeStatus.real;
 631              		.loc 2 119 32 view .LVU225
 632 000a 43EA0223 		orr	r3, r3, r2, lsl #8
 120:User/Inc/rosserialInc/hydrosoft_ros/Sensor_Arm.h ****       offset += sizeof(this->controlModeStatus);
 633              		.loc 2 120 7 is_stmt 1 view .LVU226
 120:User/Inc/rosserialInc/hydrosoft_ros/Sensor_Arm.h ****       offset += sizeof(this->controlModeStatus);
 634              		.loc 2 120 31 is_stmt 0 view .LVU227
 635 000e 8380     		strh	r3, [r0, #4]	@ movhi
 121:User/Inc/rosserialInc/hydrosoft_ros/Sensor_Arm.h ****       uint32_t actuatorStatus_lengthT = ((uint32_t) (*(inbuffer + offset))); 
 636              		.loc 2 121 7 is_stmt 1 view .LVU228
 637              	.LVL43:
 122:User/Inc/rosserialInc/hydrosoft_ros/Sensor_Arm.h ****       actuatorStatus_lengthT |= ((uint32_t) (*(inbuffer + offset + 1))) << (8 * 1); 
 638              		.loc 2 122 7 view .LVU229
 122:User/Inc/rosserialInc/hydrosoft_ros/Sensor_Arm.h ****       actuatorStatus_lengthT |= ((uint32_t) (*(inbuffer + offset + 1))) << (8 * 1); 
 639              		.loc 2 122 54 is_stmt 0 view .LVU230
 640 0010 8C78     		ldrb	r4, [r1, #2]	@ zero_extendqisi2
 641              	.LVL44:
 123:User/Inc/rosserialInc/hydrosoft_ros/Sensor_Arm.h ****       actuatorStatus_lengthT |= ((uint32_t) (*(inbuffer + offset + 2))) << (8 * 2); 
 642              		.loc 2 123 7 is_stmt 1 view .LVU231
 123:User/Inc/rosserialInc/hydrosoft_ros/Sensor_Arm.h ****       actuatorStatus_lengthT |= ((uint32_t) (*(inbuffer + offset + 2))) << (8 * 2); 
 643              		.loc 2 123 46 is_stmt 0 view .LVU232
 644 0012 CB78     		ldrb	r3, [r1, #3]	@ zero_extendqisi2
 123:User/Inc/rosserialInc/hydrosoft_ros/Sensor_Arm.h ****       actuatorStatus_lengthT |= ((uint32_t) (*(inbuffer + offset + 2))) << (8 * 2); 
ARM GAS  /tmp/ccgPptWl.s 			page 19


 645              		.loc 2 123 30 view .LVU233
 646 0014 44EA0324 		orr	r4, r4, r3, lsl #8
 647              	.LVL45:
 124:User/Inc/rosserialInc/hydrosoft_ros/Sensor_Arm.h ****       actuatorStatus_lengthT |= ((uint32_t) (*(inbuffer + offset + 3))) << (8 * 3); 
 648              		.loc 2 124 7 is_stmt 1 view .LVU234
 124:User/Inc/rosserialInc/hydrosoft_ros/Sensor_Arm.h ****       actuatorStatus_lengthT |= ((uint32_t) (*(inbuffer + offset + 3))) << (8 * 3); 
 649              		.loc 2 124 46 is_stmt 0 view .LVU235
 650 0018 0B79     		ldrb	r3, [r1, #4]	@ zero_extendqisi2
 124:User/Inc/rosserialInc/hydrosoft_ros/Sensor_Arm.h ****       actuatorStatus_lengthT |= ((uint32_t) (*(inbuffer + offset + 3))) << (8 * 3); 
 651              		.loc 2 124 30 view .LVU236
 652 001a 44EA0344 		orr	r4, r4, r3, lsl #16
 653              	.LVL46:
 125:User/Inc/rosserialInc/hydrosoft_ros/Sensor_Arm.h ****       offset += sizeof(this->actuatorStatus_length);
 654              		.loc 2 125 7 is_stmt 1 view .LVU237
 125:User/Inc/rosserialInc/hydrosoft_ros/Sensor_Arm.h ****       offset += sizeof(this->actuatorStatus_length);
 655              		.loc 2 125 46 is_stmt 0 view .LVU238
 656 001e 4B79     		ldrb	r3, [r1, #5]	@ zero_extendqisi2
 125:User/Inc/rosserialInc/hydrosoft_ros/Sensor_Arm.h ****       offset += sizeof(this->actuatorStatus_length);
 657              		.loc 2 125 30 view .LVU239
 658 0020 44EA0364 		orr	r4, r4, r3, lsl #24
 659              	.LVL47:
 126:User/Inc/rosserialInc/hydrosoft_ros/Sensor_Arm.h ****       if(actuatorStatus_lengthT > actuatorStatus_length)
 660              		.loc 2 126 7 is_stmt 1 view .LVU240
 127:User/Inc/rosserialInc/hydrosoft_ros/Sensor_Arm.h ****         this->actuatorStatus = (int16_t*)realloc(this->actuatorStatus, actuatorStatus_lengthT * siz
 661              		.loc 2 127 7 view .LVU241
 127:User/Inc/rosserialInc/hydrosoft_ros/Sensor_Arm.h ****         this->actuatorStatus = (int16_t*)realloc(this->actuatorStatus, actuatorStatus_lengthT * siz
 662              		.loc 2 127 35 is_stmt 0 view .LVU242
 663 0024 8368     		ldr	r3, [r0, #8]
 127:User/Inc/rosserialInc/hydrosoft_ros/Sensor_Arm.h ****         this->actuatorStatus = (int16_t*)realloc(this->actuatorStatus, actuatorStatus_lengthT * siz
 664              		.loc 2 127 7 view .LVU243
 665 0026 A342     		cmp	r3, r4
 666 0028 03D3     		bcc	.L34
 667              	.LVL48:
 668              	.L27:
 129:User/Inc/rosserialInc/hydrosoft_ros/Sensor_Arm.h ****       for( uint32_t i = 0; i < actuatorStatus_length; i++){
 669              		.loc 2 129 7 is_stmt 1 view .LVU244
 129:User/Inc/rosserialInc/hydrosoft_ros/Sensor_Arm.h ****       for( uint32_t i = 0; i < actuatorStatus_length; i++){
 670              		.loc 2 129 29 is_stmt 0 view .LVU245
 671 002a AC60     		str	r4, [r5, #8]
 130:User/Inc/rosserialInc/hydrosoft_ros/Sensor_Arm.h ****       union {
 672              		.loc 2 130 7 is_stmt 1 view .LVU246
 673              	.LVL49:
 674              	.LBB53:
 130:User/Inc/rosserialInc/hydrosoft_ros/Sensor_Arm.h ****       union {
 675              		.loc 2 130 21 is_stmt 0 view .LVU247
 676 002c 0021     		movs	r1, #0
 677              	.LBE53:
 126:User/Inc/rosserialInc/hydrosoft_ros/Sensor_Arm.h ****       if(actuatorStatus_lengthT > actuatorStatus_length)
 678              		.loc 2 126 14 view .LVU248
 679 002e 0623     		movs	r3, #6
 680 0030 10E0     		b	.L29
 681              	.LVL50:
 682              	.L34:
 128:User/Inc/rosserialInc/hydrosoft_ros/Sensor_Arm.h ****       actuatorStatus_length = actuatorStatus_lengthT;
 683              		.loc 2 128 9 is_stmt 1 view .LVU249
 128:User/Inc/rosserialInc/hydrosoft_ros/Sensor_Arm.h ****       actuatorStatus_length = actuatorStatus_lengthT;
 684              		.loc 2 128 49 is_stmt 0 view .LVU250
ARM GAS  /tmp/ccgPptWl.s 			page 20


 685 0032 6100     		lsls	r1, r4, #1
 686              	.LVL51:
 128:User/Inc/rosserialInc/hydrosoft_ros/Sensor_Arm.h ****       actuatorStatus_length = actuatorStatus_lengthT;
 687              		.loc 2 128 49 view .LVU251
 688 0034 0069     		ldr	r0, [r0, #16]
 689              	.LVL52:
 128:User/Inc/rosserialInc/hydrosoft_ros/Sensor_Arm.h ****       actuatorStatus_length = actuatorStatus_lengthT;
 690              		.loc 2 128 49 view .LVU252
 691 0036 FFF7FEFF 		bl	realloc
 692              	.LVL53:
 128:User/Inc/rosserialInc/hydrosoft_ros/Sensor_Arm.h ****       actuatorStatus_length = actuatorStatus_lengthT;
 693              		.loc 2 128 30 view .LVU253
 694 003a 2861     		str	r0, [r5, #16]
 695 003c F5E7     		b	.L27
 696              	.LVL54:
 697              	.L35:
 698              	.LBB55:
 699              	.LBB54:
 131:User/Inc/rosserialInc/hydrosoft_ros/Sensor_Arm.h ****         int16_t real;
 700              		.loc 2 131 7 is_stmt 1 discriminator 2 view .LVU254
 135:User/Inc/rosserialInc/hydrosoft_ros/Sensor_Arm.h ****       u_st_actuatorStatus.base |= ((uint16_t) (*(inbuffer + offset + 0))) << (8 * 0);
 701              		.loc 2 135 7 discriminator 2 view .LVU255
 136:User/Inc/rosserialInc/hydrosoft_ros/Sensor_Arm.h ****       u_st_actuatorStatus.base |= ((uint16_t) (*(inbuffer + offset + 1))) << (8 * 1);
 702              		.loc 2 136 7 discriminator 2 view .LVU256
 136:User/Inc/rosserialInc/hydrosoft_ros/Sensor_Arm.h ****       u_st_actuatorStatus.base |= ((uint16_t) (*(inbuffer + offset + 1))) << (8 * 1);
 703              		.loc 2 136 48 is_stmt 0 discriminator 2 view .LVU257
 704 003e F25C     		ldrb	r2, [r6, r3]	@ zero_extendqisi2
 137:User/Inc/rosserialInc/hydrosoft_ros/Sensor_Arm.h ****       this->st_actuatorStatus = u_st_actuatorStatus.real;
 705              		.loc 2 137 7 is_stmt 1 discriminator 2 view .LVU258
 137:User/Inc/rosserialInc/hydrosoft_ros/Sensor_Arm.h ****       this->st_actuatorStatus = u_st_actuatorStatus.real;
 706              		.loc 2 137 68 is_stmt 0 discriminator 2 view .LVU259
 707 0040 581C     		adds	r0, r3, #1
 137:User/Inc/rosserialInc/hydrosoft_ros/Sensor_Arm.h ****       this->st_actuatorStatus = u_st_actuatorStatus.real;
 708              		.loc 2 137 48 discriminator 2 view .LVU260
 709 0042 305C     		ldrb	r0, [r6, r0]	@ zero_extendqisi2
 137:User/Inc/rosserialInc/hydrosoft_ros/Sensor_Arm.h ****       this->st_actuatorStatus = u_st_actuatorStatus.real;
 710              		.loc 2 137 32 discriminator 2 view .LVU261
 711 0044 42EA0022 		orr	r2, r2, r0, lsl #8
 138:User/Inc/rosserialInc/hydrosoft_ros/Sensor_Arm.h ****       offset += sizeof(this->st_actuatorStatus);
 712              		.loc 2 138 7 is_stmt 1 discriminator 2 view .LVU262
 138:User/Inc/rosserialInc/hydrosoft_ros/Sensor_Arm.h ****       offset += sizeof(this->st_actuatorStatus);
 713              		.loc 2 138 31 is_stmt 0 discriminator 2 view .LVU263
 714 0048 AA81     		strh	r2, [r5, #12]	@ movhi
 139:User/Inc/rosserialInc/hydrosoft_ros/Sensor_Arm.h ****         memcpy( &(this->actuatorStatus[i]), &(this->st_actuatorStatus), sizeof(int16_t));
 715              		.loc 2 139 7 is_stmt 1 discriminator 2 view .LVU264
 139:User/Inc/rosserialInc/hydrosoft_ros/Sensor_Arm.h ****         memcpy( &(this->actuatorStatus[i]), &(this->st_actuatorStatus), sizeof(int16_t));
 716              		.loc 2 139 14 is_stmt 0 discriminator 2 view .LVU265
 717 004a 0233     		adds	r3, r3, #2
 718              	.LVL55:
 140:User/Inc/rosserialInc/hydrosoft_ros/Sensor_Arm.h ****       }
 719              		.loc 2 140 9 is_stmt 1 discriminator 2 view .LVU266
 140:User/Inc/rosserialInc/hydrosoft_ros/Sensor_Arm.h ****       }
 720              		.loc 2 140 25 is_stmt 0 discriminator 2 view .LVU267
 721 004c 2869     		ldr	r0, [r5, #16]
 140:User/Inc/rosserialInc/hydrosoft_ros/Sensor_Arm.h ****       }
 722              		.loc 2 140 15 discriminator 2 view .LVU268
 723 004e 20F81120 		strh	r2, [r0, r1, lsl #1]	@ unaligned
ARM GAS  /tmp/ccgPptWl.s 			page 21


 724              	.LBE54:
 130:User/Inc/rosserialInc/hydrosoft_ros/Sensor_Arm.h ****       union {
 725              		.loc 2 130 7 is_stmt 1 discriminator 2 view .LVU269
 726 0052 0131     		adds	r1, r1, #1
 727              	.LVL56:
 728              	.L29:
 130:User/Inc/rosserialInc/hydrosoft_ros/Sensor_Arm.h ****       union {
 729              		.loc 2 130 30 discriminator 3 view .LVU270
 130:User/Inc/rosserialInc/hydrosoft_ros/Sensor_Arm.h ****       union {
 730              		.loc 2 130 32 is_stmt 0 discriminator 3 view .LVU271
 731 0054 AA68     		ldr	r2, [r5, #8]
 130:User/Inc/rosserialInc/hydrosoft_ros/Sensor_Arm.h ****       union {
 732              		.loc 2 130 30 discriminator 3 view .LVU272
 733 0056 8A42     		cmp	r2, r1
 734 0058 F1D8     		bhi	.L35
 735              	.LBE55:
 142:User/Inc/rosserialInc/hydrosoft_ros/Sensor_Arm.h ****         int16_t real;
 736              		.loc 2 142 7 is_stmt 1 view .LVU273
 146:User/Inc/rosserialInc/hydrosoft_ros/Sensor_Arm.h ****       u_gripperStatus.base |= ((uint16_t) (*(inbuffer + offset + 0))) << (8 * 0);
 737              		.loc 2 146 7 view .LVU274
 147:User/Inc/rosserialInc/hydrosoft_ros/Sensor_Arm.h ****       u_gripperStatus.base |= ((uint16_t) (*(inbuffer + offset + 1))) << (8 * 1);
 738              		.loc 2 147 7 view .LVU275
 147:User/Inc/rosserialInc/hydrosoft_ros/Sensor_Arm.h ****       u_gripperStatus.base |= ((uint16_t) (*(inbuffer + offset + 1))) << (8 * 1);
 739              		.loc 2 147 44 is_stmt 0 view .LVU276
 740 005a F25C     		ldrb	r2, [r6, r3]	@ zero_extendqisi2
 148:User/Inc/rosserialInc/hydrosoft_ros/Sensor_Arm.h ****       this->gripperStatus = u_gripperStatus.real;
 741              		.loc 2 148 7 is_stmt 1 view .LVU277
 148:User/Inc/rosserialInc/hydrosoft_ros/Sensor_Arm.h ****       this->gripperStatus = u_gripperStatus.real;
 742              		.loc 2 148 64 is_stmt 0 view .LVU278
 743 005c 591C     		adds	r1, r3, #1
 744              	.LVL57:
 148:User/Inc/rosserialInc/hydrosoft_ros/Sensor_Arm.h ****       this->gripperStatus = u_gripperStatus.real;
 745              		.loc 2 148 44 view .LVU279
 746 005e 715C     		ldrb	r1, [r6, r1]	@ zero_extendqisi2
 148:User/Inc/rosserialInc/hydrosoft_ros/Sensor_Arm.h ****       this->gripperStatus = u_gripperStatus.real;
 747              		.loc 2 148 28 view .LVU280
 748 0060 42EA0122 		orr	r2, r2, r1, lsl #8
 149:User/Inc/rosserialInc/hydrosoft_ros/Sensor_Arm.h ****       offset += sizeof(this->gripperStatus);
 749              		.loc 2 149 7 is_stmt 1 view .LVU281
 149:User/Inc/rosserialInc/hydrosoft_ros/Sensor_Arm.h ****       offset += sizeof(this->gripperStatus);
 750              		.loc 2 149 27 is_stmt 0 view .LVU282
 751 0064 AA82     		strh	r2, [r5, #20]	@ movhi
 150:User/Inc/rosserialInc/hydrosoft_ros/Sensor_Arm.h ****       union {
 752              		.loc 2 150 7 is_stmt 1 view .LVU283
 150:User/Inc/rosserialInc/hydrosoft_ros/Sensor_Arm.h ****       union {
 753              		.loc 2 150 14 is_stmt 0 view .LVU284
 754 0066 9A1C     		adds	r2, r3, #2
 755              	.LVL58:
 151:User/Inc/rosserialInc/hydrosoft_ros/Sensor_Arm.h ****         int16_t real;
 756              		.loc 2 151 7 is_stmt 1 view .LVU285
 155:User/Inc/rosserialInc/hydrosoft_ros/Sensor_Arm.h ****       u_pSourceStatus.base |= ((uint16_t) (*(inbuffer + offset + 0))) << (8 * 0);
 757              		.loc 2 155 7 view .LVU286
 156:User/Inc/rosserialInc/hydrosoft_ros/Sensor_Arm.h ****       u_pSourceStatus.base |= ((uint16_t) (*(inbuffer + offset + 1))) << (8 * 1);
 758              		.loc 2 156 7 view .LVU287
 156:User/Inc/rosserialInc/hydrosoft_ros/Sensor_Arm.h ****       u_pSourceStatus.base |= ((uint16_t) (*(inbuffer + offset + 1))) << (8 * 1);
 759              		.loc 2 156 44 is_stmt 0 view .LVU288
 760 0068 B25C     		ldrb	r2, [r6, r2]	@ zero_extendqisi2
ARM GAS  /tmp/ccgPptWl.s 			page 22


 761              	.LVL59:
 157:User/Inc/rosserialInc/hydrosoft_ros/Sensor_Arm.h ****       this->pSourceStatus = u_pSourceStatus.real;
 762              		.loc 2 157 7 is_stmt 1 view .LVU289
 157:User/Inc/rosserialInc/hydrosoft_ros/Sensor_Arm.h ****       this->pSourceStatus = u_pSourceStatus.real;
 763              		.loc 2 157 64 is_stmt 0 view .LVU290
 764 006a D91C     		adds	r1, r3, #3
 157:User/Inc/rosserialInc/hydrosoft_ros/Sensor_Arm.h ****       this->pSourceStatus = u_pSourceStatus.real;
 765              		.loc 2 157 44 view .LVU291
 766 006c 715C     		ldrb	r1, [r6, r1]	@ zero_extendqisi2
 157:User/Inc/rosserialInc/hydrosoft_ros/Sensor_Arm.h ****       this->pSourceStatus = u_pSourceStatus.real;
 767              		.loc 2 157 28 view .LVU292
 768 006e 42EA0122 		orr	r2, r2, r1, lsl #8
 158:User/Inc/rosserialInc/hydrosoft_ros/Sensor_Arm.h ****       offset += sizeof(this->pSourceStatus);
 769              		.loc 2 158 7 is_stmt 1 view .LVU293
 158:User/Inc/rosserialInc/hydrosoft_ros/Sensor_Arm.h ****       offset += sizeof(this->pSourceStatus);
 770              		.loc 2 158 27 is_stmt 0 view .LVU294
 771 0072 EA82     		strh	r2, [r5, #22]	@ movhi
 159:User/Inc/rosserialInc/hydrosoft_ros/Sensor_Arm.h ****       union {
 772              		.loc 2 159 7 is_stmt 1 view .LVU295
 159:User/Inc/rosserialInc/hydrosoft_ros/Sensor_Arm.h ****       union {
 773              		.loc 2 159 14 is_stmt 0 view .LVU296
 774 0074 1A1D     		adds	r2, r3, #4
 775              	.LVL60:
 160:User/Inc/rosserialInc/hydrosoft_ros/Sensor_Arm.h ****         int16_t real;
 776              		.loc 2 160 7 is_stmt 1 view .LVU297
 164:User/Inc/rosserialInc/hydrosoft_ros/Sensor_Arm.h ****       u_pSinkStatus.base |= ((uint16_t) (*(inbuffer + offset + 0))) << (8 * 0);
 777              		.loc 2 164 7 view .LVU298
 165:User/Inc/rosserialInc/hydrosoft_ros/Sensor_Arm.h ****       u_pSinkStatus.base |= ((uint16_t) (*(inbuffer + offset + 1))) << (8 * 1);
 778              		.loc 2 165 7 view .LVU299
 165:User/Inc/rosserialInc/hydrosoft_ros/Sensor_Arm.h ****       u_pSinkStatus.base |= ((uint16_t) (*(inbuffer + offset + 1))) << (8 * 1);
 779              		.loc 2 165 42 is_stmt 0 view .LVU300
 780 0076 B25C     		ldrb	r2, [r6, r2]	@ zero_extendqisi2
 781              	.LVL61:
 166:User/Inc/rosserialInc/hydrosoft_ros/Sensor_Arm.h ****       this->pSinkStatus = u_pSinkStatus.real;
 782              		.loc 2 166 7 is_stmt 1 view .LVU301
 166:User/Inc/rosserialInc/hydrosoft_ros/Sensor_Arm.h ****       this->pSinkStatus = u_pSinkStatus.real;
 783              		.loc 2 166 62 is_stmt 0 view .LVU302
 784 0078 591D     		adds	r1, r3, #5
 166:User/Inc/rosserialInc/hydrosoft_ros/Sensor_Arm.h ****       this->pSinkStatus = u_pSinkStatus.real;
 785              		.loc 2 166 42 view .LVU303
 786 007a 715C     		ldrb	r1, [r6, r1]	@ zero_extendqisi2
 166:User/Inc/rosserialInc/hydrosoft_ros/Sensor_Arm.h ****       this->pSinkStatus = u_pSinkStatus.real;
 787              		.loc 2 166 26 view .LVU304
 788 007c 42EA0122 		orr	r2, r2, r1, lsl #8
 167:User/Inc/rosserialInc/hydrosoft_ros/Sensor_Arm.h ****       offset += sizeof(this->pSinkStatus);
 789              		.loc 2 167 7 is_stmt 1 view .LVU305
 167:User/Inc/rosserialInc/hydrosoft_ros/Sensor_Arm.h ****       offset += sizeof(this->pSinkStatus);
 790              		.loc 2 167 25 is_stmt 0 view .LVU306
 791 0080 2A83     		strh	r2, [r5, #24]	@ movhi
 168:User/Inc/rosserialInc/hydrosoft_ros/Sensor_Arm.h ****       uint32_t quaternions_lengthT = ((uint32_t) (*(inbuffer + offset))); 
 792              		.loc 2 168 7 is_stmt 1 view .LVU307
 168:User/Inc/rosserialInc/hydrosoft_ros/Sensor_Arm.h ****       uint32_t quaternions_lengthT = ((uint32_t) (*(inbuffer + offset))); 
 793              		.loc 2 168 14 is_stmt 0 view .LVU308
 794 0082 9A1D     		adds	r2, r3, #6
 795              	.LVL62:
 169:User/Inc/rosserialInc/hydrosoft_ros/Sensor_Arm.h ****       quaternions_lengthT |= ((uint32_t) (*(inbuffer + offset + 1))) << (8 * 1); 
 796              		.loc 2 169 7 is_stmt 1 view .LVU309
ARM GAS  /tmp/ccgPptWl.s 			page 23


 169:User/Inc/rosserialInc/hydrosoft_ros/Sensor_Arm.h ****       quaternions_lengthT |= ((uint32_t) (*(inbuffer + offset + 1))) << (8 * 1); 
 797              		.loc 2 169 51 is_stmt 0 view .LVU310
 798 0084 B75C     		ldrb	r7, [r6, r2]	@ zero_extendqisi2
 799              	.LVL63:
 170:User/Inc/rosserialInc/hydrosoft_ros/Sensor_Arm.h ****       quaternions_lengthT |= ((uint32_t) (*(inbuffer + offset + 2))) << (8 * 2); 
 800              		.loc 2 170 7 is_stmt 1 view .LVU311
 170:User/Inc/rosserialInc/hydrosoft_ros/Sensor_Arm.h ****       quaternions_lengthT |= ((uint32_t) (*(inbuffer + offset + 2))) << (8 * 2); 
 801              		.loc 2 170 63 is_stmt 0 view .LVU312
 802 0086 DA1D     		adds	r2, r3, #7
 803              	.LVL64:
 170:User/Inc/rosserialInc/hydrosoft_ros/Sensor_Arm.h ****       quaternions_lengthT |= ((uint32_t) (*(inbuffer + offset + 2))) << (8 * 2); 
 804              		.loc 2 170 43 view .LVU313
 805 0088 B25C     		ldrb	r2, [r6, r2]	@ zero_extendqisi2
 170:User/Inc/rosserialInc/hydrosoft_ros/Sensor_Arm.h ****       quaternions_lengthT |= ((uint32_t) (*(inbuffer + offset + 2))) << (8 * 2); 
 806              		.loc 2 170 27 view .LVU314
 807 008a 47EA0227 		orr	r7, r7, r2, lsl #8
 808              	.LVL65:
 171:User/Inc/rosserialInc/hydrosoft_ros/Sensor_Arm.h ****       quaternions_lengthT |= ((uint32_t) (*(inbuffer + offset + 3))) << (8 * 3); 
 809              		.loc 2 171 7 is_stmt 1 view .LVU315
 171:User/Inc/rosserialInc/hydrosoft_ros/Sensor_Arm.h ****       quaternions_lengthT |= ((uint32_t) (*(inbuffer + offset + 3))) << (8 * 3); 
 810              		.loc 2 171 63 is_stmt 0 view .LVU316
 811 008e 03F10802 		add	r2, r3, #8
 171:User/Inc/rosserialInc/hydrosoft_ros/Sensor_Arm.h ****       quaternions_lengthT |= ((uint32_t) (*(inbuffer + offset + 3))) << (8 * 3); 
 812              		.loc 2 171 43 view .LVU317
 813 0092 B25C     		ldrb	r2, [r6, r2]	@ zero_extendqisi2
 171:User/Inc/rosserialInc/hydrosoft_ros/Sensor_Arm.h ****       quaternions_lengthT |= ((uint32_t) (*(inbuffer + offset + 3))) << (8 * 3); 
 814              		.loc 2 171 27 view .LVU318
 815 0094 47EA0247 		orr	r7, r7, r2, lsl #16
 816              	.LVL66:
 172:User/Inc/rosserialInc/hydrosoft_ros/Sensor_Arm.h ****       offset += sizeof(this->quaternions_length);
 817              		.loc 2 172 7 is_stmt 1 view .LVU319
 172:User/Inc/rosserialInc/hydrosoft_ros/Sensor_Arm.h ****       offset += sizeof(this->quaternions_length);
 818              		.loc 2 172 63 is_stmt 0 view .LVU320
 819 0098 03F10902 		add	r2, r3, #9
 172:User/Inc/rosserialInc/hydrosoft_ros/Sensor_Arm.h ****       offset += sizeof(this->quaternions_length);
 820              		.loc 2 172 43 view .LVU321
 821 009c B25C     		ldrb	r2, [r6, r2]	@ zero_extendqisi2
 172:User/Inc/rosserialInc/hydrosoft_ros/Sensor_Arm.h ****       offset += sizeof(this->quaternions_length);
 822              		.loc 2 172 27 view .LVU322
 823 009e 47EA0267 		orr	r7, r7, r2, lsl #24
 824              	.LVL67:
 173:User/Inc/rosserialInc/hydrosoft_ros/Sensor_Arm.h ****       if(quaternions_lengthT > quaternions_length)
 825              		.loc 2 173 7 is_stmt 1 view .LVU323
 173:User/Inc/rosserialInc/hydrosoft_ros/Sensor_Arm.h ****       if(quaternions_lengthT > quaternions_length)
 826              		.loc 2 173 14 is_stmt 0 view .LVU324
 827 00a2 03F10A04 		add	r4, r3, #10
 828              	.LVL68:
 174:User/Inc/rosserialInc/hydrosoft_ros/Sensor_Arm.h ****         this->quaternions = (int16_t*)realloc(this->quaternions, quaternions_lengthT * sizeof(int16
 829              		.loc 2 174 7 is_stmt 1 view .LVU325
 174:User/Inc/rosserialInc/hydrosoft_ros/Sensor_Arm.h ****         this->quaternions = (int16_t*)realloc(this->quaternions, quaternions_lengthT * sizeof(int16
 830              		.loc 2 174 32 is_stmt 0 view .LVU326
 831 00a6 EB69     		ldr	r3, [r5, #28]
 174:User/Inc/rosserialInc/hydrosoft_ros/Sensor_Arm.h ****         this->quaternions = (int16_t*)realloc(this->quaternions, quaternions_lengthT * sizeof(int16
 832              		.loc 2 174 7 view .LVU327
 833 00a8 BB42     		cmp	r3, r7
 834 00aa 02D3     		bcc	.L36
 835              	.L30:
ARM GAS  /tmp/ccgPptWl.s 			page 24


 176:User/Inc/rosserialInc/hydrosoft_ros/Sensor_Arm.h ****       for( uint32_t i = 0; i < quaternions_length; i++){
 836              		.loc 2 176 7 is_stmt 1 view .LVU328
 176:User/Inc/rosserialInc/hydrosoft_ros/Sensor_Arm.h ****       for( uint32_t i = 0; i < quaternions_length; i++){
 837              		.loc 2 176 26 is_stmt 0 view .LVU329
 838 00ac EF61     		str	r7, [r5, #28]
 177:User/Inc/rosserialInc/hydrosoft_ros/Sensor_Arm.h ****       union {
 839              		.loc 2 177 7 is_stmt 1 view .LVU330
 840              	.LVL69:
 841              	.LBB56:
 177:User/Inc/rosserialInc/hydrosoft_ros/Sensor_Arm.h ****       union {
 842              		.loc 2 177 21 is_stmt 0 view .LVU331
 843 00ae 0022     		movs	r2, #0
 844 00b0 10E0     		b	.L32
 845              	.LVL70:
 846              	.L36:
 177:User/Inc/rosserialInc/hydrosoft_ros/Sensor_Arm.h ****       union {
 847              		.loc 2 177 21 view .LVU332
 848              	.LBE56:
 175:User/Inc/rosserialInc/hydrosoft_ros/Sensor_Arm.h ****       quaternions_length = quaternions_lengthT;
 849              		.loc 2 175 9 is_stmt 1 view .LVU333
 175:User/Inc/rosserialInc/hydrosoft_ros/Sensor_Arm.h ****       quaternions_length = quaternions_lengthT;
 850              		.loc 2 175 46 is_stmt 0 view .LVU334
 851 00b2 7900     		lsls	r1, r7, #1
 852 00b4 686A     		ldr	r0, [r5, #36]
 853 00b6 FFF7FEFF 		bl	realloc
 854              	.LVL71:
 175:User/Inc/rosserialInc/hydrosoft_ros/Sensor_Arm.h ****       quaternions_length = quaternions_lengthT;
 855              		.loc 2 175 27 view .LVU335
 856 00ba 6862     		str	r0, [r5, #36]
 857 00bc F6E7     		b	.L30
 858              	.LVL72:
 859              	.L37:
 860              	.LBB58:
 861              	.LBB57:
 178:User/Inc/rosserialInc/hydrosoft_ros/Sensor_Arm.h ****         int16_t real;
 862              		.loc 2 178 7 is_stmt 1 discriminator 2 view .LVU336
 182:User/Inc/rosserialInc/hydrosoft_ros/Sensor_Arm.h ****       u_st_quaternions.base |= ((uint16_t) (*(inbuffer + offset + 0))) << (8 * 0);
 863              		.loc 2 182 7 discriminator 2 view .LVU337
 183:User/Inc/rosserialInc/hydrosoft_ros/Sensor_Arm.h ****       u_st_quaternions.base |= ((uint16_t) (*(inbuffer + offset + 1))) << (8 * 1);
 864              		.loc 2 183 7 discriminator 2 view .LVU338
 183:User/Inc/rosserialInc/hydrosoft_ros/Sensor_Arm.h ****       u_st_quaternions.base |= ((uint16_t) (*(inbuffer + offset + 1))) << (8 * 1);
 865              		.loc 2 183 45 is_stmt 0 discriminator 2 view .LVU339
 866 00be 335D     		ldrb	r3, [r6, r4]	@ zero_extendqisi2
 184:User/Inc/rosserialInc/hydrosoft_ros/Sensor_Arm.h ****       this->st_quaternions = u_st_quaternions.real;
 867              		.loc 2 184 7 is_stmt 1 discriminator 2 view .LVU340
 184:User/Inc/rosserialInc/hydrosoft_ros/Sensor_Arm.h ****       this->st_quaternions = u_st_quaternions.real;
 868              		.loc 2 184 65 is_stmt 0 discriminator 2 view .LVU341
 869 00c0 611C     		adds	r1, r4, #1
 184:User/Inc/rosserialInc/hydrosoft_ros/Sensor_Arm.h ****       this->st_quaternions = u_st_quaternions.real;
 870              		.loc 2 184 45 discriminator 2 view .LVU342
 871 00c2 715C     		ldrb	r1, [r6, r1]	@ zero_extendqisi2
 184:User/Inc/rosserialInc/hydrosoft_ros/Sensor_Arm.h ****       this->st_quaternions = u_st_quaternions.real;
 872              		.loc 2 184 29 discriminator 2 view .LVU343
 873 00c4 43EA0123 		orr	r3, r3, r1, lsl #8
 185:User/Inc/rosserialInc/hydrosoft_ros/Sensor_Arm.h ****       offset += sizeof(this->st_quaternions);
 874              		.loc 2 185 7 is_stmt 1 discriminator 2 view .LVU344
 185:User/Inc/rosserialInc/hydrosoft_ros/Sensor_Arm.h ****       offset += sizeof(this->st_quaternions);
ARM GAS  /tmp/ccgPptWl.s 			page 25


 875              		.loc 2 185 28 is_stmt 0 discriminator 2 view .LVU345
 876 00c8 2B84     		strh	r3, [r5, #32]	@ movhi
 186:User/Inc/rosserialInc/hydrosoft_ros/Sensor_Arm.h ****         memcpy( &(this->quaternions[i]), &(this->st_quaternions), sizeof(int16_t));
 877              		.loc 2 186 7 is_stmt 1 discriminator 2 view .LVU346
 186:User/Inc/rosserialInc/hydrosoft_ros/Sensor_Arm.h ****         memcpy( &(this->quaternions[i]), &(this->st_quaternions), sizeof(int16_t));
 878              		.loc 2 186 14 is_stmt 0 discriminator 2 view .LVU347
 879 00ca 0234     		adds	r4, r4, #2
 880              	.LVL73:
 187:User/Inc/rosserialInc/hydrosoft_ros/Sensor_Arm.h ****       }
 881              		.loc 2 187 9 is_stmt 1 discriminator 2 view .LVU348
 187:User/Inc/rosserialInc/hydrosoft_ros/Sensor_Arm.h ****       }
 882              		.loc 2 187 25 is_stmt 0 discriminator 2 view .LVU349
 883 00cc 696A     		ldr	r1, [r5, #36]
 187:User/Inc/rosserialInc/hydrosoft_ros/Sensor_Arm.h ****       }
 884              		.loc 2 187 15 discriminator 2 view .LVU350
 885 00ce 21F81230 		strh	r3, [r1, r2, lsl #1]	@ unaligned
 886              	.LBE57:
 177:User/Inc/rosserialInc/hydrosoft_ros/Sensor_Arm.h ****       union {
 887              		.loc 2 177 7 is_stmt 1 discriminator 2 view .LVU351
 888 00d2 0132     		adds	r2, r2, #1
 889              	.LVL74:
 890              	.L32:
 177:User/Inc/rosserialInc/hydrosoft_ros/Sensor_Arm.h ****       union {
 891              		.loc 2 177 30 discriminator 3 view .LVU352
 177:User/Inc/rosserialInc/hydrosoft_ros/Sensor_Arm.h ****       union {
 892              		.loc 2 177 32 is_stmt 0 discriminator 3 view .LVU353
 893 00d4 EB69     		ldr	r3, [r5, #28]
 177:User/Inc/rosserialInc/hydrosoft_ros/Sensor_Arm.h ****       union {
 894              		.loc 2 177 30 discriminator 3 view .LVU354
 895 00d6 9342     		cmp	r3, r2
 896 00d8 F1D8     		bhi	.L37
 177:User/Inc/rosserialInc/hydrosoft_ros/Sensor_Arm.h ****       union {
 897              		.loc 2 177 30 discriminator 3 view .LVU355
 898              	.LBE58:
 190:User/Inc/rosserialInc/hydrosoft_ros/Sensor_Arm.h **** 
 899              		.loc 2 190 5 view .LVU356
 900 00da 2046     		mov	r0, r4
 901 00dc F8BD     		pop	{r3, r4, r5, r6, r7, pc}
 190:User/Inc/rosserialInc/hydrosoft_ros/Sensor_Arm.h **** 
 902              		.loc 2 190 5 view .LVU357
 903              		.cfi_endproc
 904              	.LFE434:
 905              		.cantunwind
 906              		.fnend
 908              		.section	.text._ZN13hydrosoft_ros11Command_Arm11deserializeEPh,"axG",%progbits,_ZN13hydrosoft_ros1
 909              		.align	1
 910              		.weak	_ZN13hydrosoft_ros11Command_Arm11deserializeEPh
 911              		.syntax unified
 912              		.thumb
 913              		.thumb_func
 914              		.fpu softvfp
 916              	_ZN13hydrosoft_ros11Command_Arm11deserializeEPh:
 917              		.fnstart
 918              	.LVL75:
 919              	.LFB427:
  90:User/Inc/rosserialInc/hydrosoft_ros/Command_Arm.h ****     {
 920              		.loc 1 90 17 is_stmt 1 view -0
ARM GAS  /tmp/ccgPptWl.s 			page 26


 921              		.cfi_startproc
 922              		@ args = 0, pretend = 0, frame = 0
 923              		@ frame_needed = 0, uses_anonymous_args = 0
  90:User/Inc/rosserialInc/hydrosoft_ros/Command_Arm.h ****     {
 924              		.loc 1 90 17 is_stmt 0 view .LVU359
 925 0000 70B5     		push	{r4, r5, r6, lr}
 926              	.LCFI3:
 927              		.cfi_def_cfa_offset 16
 928              		.cfi_offset 4, -16
 929              		.cfi_offset 5, -12
 930              		.cfi_offset 6, -8
 931              		.cfi_offset 14, -4
 932 0002 0446     		mov	r4, r0
 933 0004 0D46     		mov	r5, r1
  92:User/Inc/rosserialInc/hydrosoft_ros/Command_Arm.h ****       union {
 934              		.loc 1 92 7 is_stmt 1 view .LVU360
 935              	.LVL76:
  93:User/Inc/rosserialInc/hydrosoft_ros/Command_Arm.h ****         int16_t real;
 936              		.loc 1 93 7 view .LVU361
  97:User/Inc/rosserialInc/hydrosoft_ros/Command_Arm.h ****       u_controlModeCommand.base |= ((uint16_t) (*(inbuffer + offset + 0))) << (8 * 0);
 937              		.loc 1 97 7 view .LVU362
  98:User/Inc/rosserialInc/hydrosoft_ros/Command_Arm.h ****       u_controlModeCommand.base |= ((uint16_t) (*(inbuffer + offset + 1))) << (8 * 1);
 938              		.loc 1 98 7 view .LVU363
  98:User/Inc/rosserialInc/hydrosoft_ros/Command_Arm.h ****       u_controlModeCommand.base |= ((uint16_t) (*(inbuffer + offset + 1))) << (8 * 1);
 939              		.loc 1 98 49 is_stmt 0 view .LVU364
 940 0006 0B78     		ldrb	r3, [r1]	@ zero_extendqisi2
  99:User/Inc/rosserialInc/hydrosoft_ros/Command_Arm.h ****       this->controlModeCommand = u_controlModeCommand.real;
 941              		.loc 1 99 7 is_stmt 1 view .LVU365
  99:User/Inc/rosserialInc/hydrosoft_ros/Command_Arm.h ****       this->controlModeCommand = u_controlModeCommand.real;
 942              		.loc 1 99 49 is_stmt 0 view .LVU366
 943 0008 4A78     		ldrb	r2, [r1, #1]	@ zero_extendqisi2
  99:User/Inc/rosserialInc/hydrosoft_ros/Command_Arm.h ****       this->controlModeCommand = u_controlModeCommand.real;
 944              		.loc 1 99 33 view .LVU367
 945 000a 43EA0223 		orr	r3, r3, r2, lsl #8
 100:User/Inc/rosserialInc/hydrosoft_ros/Command_Arm.h ****       offset += sizeof(this->controlModeCommand);
 946              		.loc 1 100 7 is_stmt 1 view .LVU368
 100:User/Inc/rosserialInc/hydrosoft_ros/Command_Arm.h ****       offset += sizeof(this->controlModeCommand);
 947              		.loc 1 100 32 is_stmt 0 view .LVU369
 948 000e 8380     		strh	r3, [r0, #4]	@ movhi
 101:User/Inc/rosserialInc/hydrosoft_ros/Command_Arm.h ****       uint32_t actuatorCommand_lengthT = ((uint32_t) (*(inbuffer + offset))); 
 949              		.loc 1 101 7 is_stmt 1 view .LVU370
 950              	.LVL77:
 102:User/Inc/rosserialInc/hydrosoft_ros/Command_Arm.h ****       actuatorCommand_lengthT |= ((uint32_t) (*(inbuffer + offset + 1))) << (8 * 1); 
 951              		.loc 1 102 7 view .LVU371
 102:User/Inc/rosserialInc/hydrosoft_ros/Command_Arm.h ****       actuatorCommand_lengthT |= ((uint32_t) (*(inbuffer + offset + 1))) << (8 * 1); 
 952              		.loc 1 102 55 is_stmt 0 view .LVU372
 953 0010 8E78     		ldrb	r6, [r1, #2]	@ zero_extendqisi2
 954              	.LVL78:
 103:User/Inc/rosserialInc/hydrosoft_ros/Command_Arm.h ****       actuatorCommand_lengthT |= ((uint32_t) (*(inbuffer + offset + 2))) << (8 * 2); 
 955              		.loc 1 103 7 is_stmt 1 view .LVU373
 103:User/Inc/rosserialInc/hydrosoft_ros/Command_Arm.h ****       actuatorCommand_lengthT |= ((uint32_t) (*(inbuffer + offset + 2))) << (8 * 2); 
 956              		.loc 1 103 47 is_stmt 0 view .LVU374
 957 0012 CB78     		ldrb	r3, [r1, #3]	@ zero_extendqisi2
 103:User/Inc/rosserialInc/hydrosoft_ros/Command_Arm.h ****       actuatorCommand_lengthT |= ((uint32_t) (*(inbuffer + offset + 2))) << (8 * 2); 
 958              		.loc 1 103 31 view .LVU375
 959 0014 46EA0326 		orr	r6, r6, r3, lsl #8
 960              	.LVL79:
ARM GAS  /tmp/ccgPptWl.s 			page 27


 104:User/Inc/rosserialInc/hydrosoft_ros/Command_Arm.h ****       actuatorCommand_lengthT |= ((uint32_t) (*(inbuffer + offset + 3))) << (8 * 3); 
 961              		.loc 1 104 7 is_stmt 1 view .LVU376
 104:User/Inc/rosserialInc/hydrosoft_ros/Command_Arm.h ****       actuatorCommand_lengthT |= ((uint32_t) (*(inbuffer + offset + 3))) << (8 * 3); 
 962              		.loc 1 104 47 is_stmt 0 view .LVU377
 963 0018 0B79     		ldrb	r3, [r1, #4]	@ zero_extendqisi2
 104:User/Inc/rosserialInc/hydrosoft_ros/Command_Arm.h ****       actuatorCommand_lengthT |= ((uint32_t) (*(inbuffer + offset + 3))) << (8 * 3); 
 964              		.loc 1 104 31 view .LVU378
 965 001a 46EA0346 		orr	r6, r6, r3, lsl #16
 966              	.LVL80:
 105:User/Inc/rosserialInc/hydrosoft_ros/Command_Arm.h ****       offset += sizeof(this->actuatorCommand_length);
 967              		.loc 1 105 7 is_stmt 1 view .LVU379
 105:User/Inc/rosserialInc/hydrosoft_ros/Command_Arm.h ****       offset += sizeof(this->actuatorCommand_length);
 968              		.loc 1 105 47 is_stmt 0 view .LVU380
 969 001e 4B79     		ldrb	r3, [r1, #5]	@ zero_extendqisi2
 105:User/Inc/rosserialInc/hydrosoft_ros/Command_Arm.h ****       offset += sizeof(this->actuatorCommand_length);
 970              		.loc 1 105 31 view .LVU381
 971 0020 46EA0366 		orr	r6, r6, r3, lsl #24
 972              	.LVL81:
 106:User/Inc/rosserialInc/hydrosoft_ros/Command_Arm.h ****       if(actuatorCommand_lengthT > actuatorCommand_length)
 973              		.loc 1 106 7 is_stmt 1 view .LVU382
 107:User/Inc/rosserialInc/hydrosoft_ros/Command_Arm.h ****         this->actuatorCommand = (int16_t*)realloc(this->actuatorCommand, actuatorCommand_lengthT * 
 974              		.loc 1 107 7 view .LVU383
 107:User/Inc/rosserialInc/hydrosoft_ros/Command_Arm.h ****         this->actuatorCommand = (int16_t*)realloc(this->actuatorCommand, actuatorCommand_lengthT * 
 975              		.loc 1 107 36 is_stmt 0 view .LVU384
 976 0024 8368     		ldr	r3, [r0, #8]
 107:User/Inc/rosserialInc/hydrosoft_ros/Command_Arm.h ****         this->actuatorCommand = (int16_t*)realloc(this->actuatorCommand, actuatorCommand_lengthT * 
 977              		.loc 1 107 7 view .LVU385
 978 0026 B342     		cmp	r3, r6
 979 0028 03D3     		bcc	.L43
 980              	.LVL82:
 981              	.L39:
 109:User/Inc/rosserialInc/hydrosoft_ros/Command_Arm.h ****       for( uint32_t i = 0; i < actuatorCommand_length; i++){
 982              		.loc 1 109 7 is_stmt 1 view .LVU386
 109:User/Inc/rosserialInc/hydrosoft_ros/Command_Arm.h ****       for( uint32_t i = 0; i < actuatorCommand_length; i++){
 983              		.loc 1 109 30 is_stmt 0 view .LVU387
 984 002a A660     		str	r6, [r4, #8]
 110:User/Inc/rosserialInc/hydrosoft_ros/Command_Arm.h ****       union {
 985              		.loc 1 110 7 is_stmt 1 view .LVU388
 986              	.LVL83:
 987              	.LBB59:
 110:User/Inc/rosserialInc/hydrosoft_ros/Command_Arm.h ****       union {
 988              		.loc 1 110 21 is_stmt 0 view .LVU389
 989 002c 0020     		movs	r0, #0
 990              	.LBE59:
 106:User/Inc/rosserialInc/hydrosoft_ros/Command_Arm.h ****       if(actuatorCommand_lengthT > actuatorCommand_length)
 991              		.loc 1 106 14 view .LVU390
 992 002e 0622     		movs	r2, #6
 993 0030 10E0     		b	.L41
 994              	.LVL84:
 995              	.L43:
 108:User/Inc/rosserialInc/hydrosoft_ros/Command_Arm.h ****       actuatorCommand_length = actuatorCommand_lengthT;
 996              		.loc 1 108 9 is_stmt 1 view .LVU391
 108:User/Inc/rosserialInc/hydrosoft_ros/Command_Arm.h ****       actuatorCommand_length = actuatorCommand_lengthT;
 997              		.loc 1 108 50 is_stmt 0 view .LVU392
 998 0032 7100     		lsls	r1, r6, #1
 999              	.LVL85:
 108:User/Inc/rosserialInc/hydrosoft_ros/Command_Arm.h ****       actuatorCommand_length = actuatorCommand_lengthT;
ARM GAS  /tmp/ccgPptWl.s 			page 28


 1000              		.loc 1 108 50 view .LVU393
 1001 0034 0069     		ldr	r0, [r0, #16]
 1002              	.LVL86:
 108:User/Inc/rosserialInc/hydrosoft_ros/Command_Arm.h ****       actuatorCommand_length = actuatorCommand_lengthT;
 1003              		.loc 1 108 50 view .LVU394
 1004 0036 FFF7FEFF 		bl	realloc
 1005              	.LVL87:
 108:User/Inc/rosserialInc/hydrosoft_ros/Command_Arm.h ****       actuatorCommand_length = actuatorCommand_lengthT;
 1006              		.loc 1 108 31 view .LVU395
 1007 003a 2061     		str	r0, [r4, #16]
 1008 003c F5E7     		b	.L39
 1009              	.LVL88:
 1010              	.L44:
 1011              	.LBB61:
 1012              	.LBB60:
 111:User/Inc/rosserialInc/hydrosoft_ros/Command_Arm.h ****         int16_t real;
 1013              		.loc 1 111 7 is_stmt 1 discriminator 2 view .LVU396
 115:User/Inc/rosserialInc/hydrosoft_ros/Command_Arm.h ****       u_st_actuatorCommand.base |= ((uint16_t) (*(inbuffer + offset + 0))) << (8 * 0);
 1014              		.loc 1 115 7 discriminator 2 view .LVU397
 116:User/Inc/rosserialInc/hydrosoft_ros/Command_Arm.h ****       u_st_actuatorCommand.base |= ((uint16_t) (*(inbuffer + offset + 1))) << (8 * 1);
 1015              		.loc 1 116 7 discriminator 2 view .LVU398
 116:User/Inc/rosserialInc/hydrosoft_ros/Command_Arm.h ****       u_st_actuatorCommand.base |= ((uint16_t) (*(inbuffer + offset + 1))) << (8 * 1);
 1016              		.loc 1 116 49 is_stmt 0 discriminator 2 view .LVU399
 1017 003e AB5C     		ldrb	r3, [r5, r2]	@ zero_extendqisi2
 117:User/Inc/rosserialInc/hydrosoft_ros/Command_Arm.h ****       this->st_actuatorCommand = u_st_actuatorCommand.real;
 1018              		.loc 1 117 7 is_stmt 1 discriminator 2 view .LVU400
 117:User/Inc/rosserialInc/hydrosoft_ros/Command_Arm.h ****       this->st_actuatorCommand = u_st_actuatorCommand.real;
 1019              		.loc 1 117 69 is_stmt 0 discriminator 2 view .LVU401
 1020 0040 511C     		adds	r1, r2, #1
 117:User/Inc/rosserialInc/hydrosoft_ros/Command_Arm.h ****       this->st_actuatorCommand = u_st_actuatorCommand.real;
 1021              		.loc 1 117 49 discriminator 2 view .LVU402
 1022 0042 695C     		ldrb	r1, [r5, r1]	@ zero_extendqisi2
 117:User/Inc/rosserialInc/hydrosoft_ros/Command_Arm.h ****       this->st_actuatorCommand = u_st_actuatorCommand.real;
 1023              		.loc 1 117 33 discriminator 2 view .LVU403
 1024 0044 43EA0123 		orr	r3, r3, r1, lsl #8
 118:User/Inc/rosserialInc/hydrosoft_ros/Command_Arm.h ****       offset += sizeof(this->st_actuatorCommand);
 1025              		.loc 1 118 7 is_stmt 1 discriminator 2 view .LVU404
 118:User/Inc/rosserialInc/hydrosoft_ros/Command_Arm.h ****       offset += sizeof(this->st_actuatorCommand);
 1026              		.loc 1 118 32 is_stmt 0 discriminator 2 view .LVU405
 1027 0048 A381     		strh	r3, [r4, #12]	@ movhi
 119:User/Inc/rosserialInc/hydrosoft_ros/Command_Arm.h ****         memcpy( &(this->actuatorCommand[i]), &(this->st_actuatorCommand), sizeof(int16_t));
 1028              		.loc 1 119 7 is_stmt 1 discriminator 2 view .LVU406
 119:User/Inc/rosserialInc/hydrosoft_ros/Command_Arm.h ****         memcpy( &(this->actuatorCommand[i]), &(this->st_actuatorCommand), sizeof(int16_t));
 1029              		.loc 1 119 14 is_stmt 0 discriminator 2 view .LVU407
 1030 004a 0232     		adds	r2, r2, #2
 1031              	.LVL89:
 120:User/Inc/rosserialInc/hydrosoft_ros/Command_Arm.h ****       }
 1032              		.loc 1 120 9 is_stmt 1 discriminator 2 view .LVU408
 120:User/Inc/rosserialInc/hydrosoft_ros/Command_Arm.h ****       }
 1033              		.loc 1 120 25 is_stmt 0 discriminator 2 view .LVU409
 1034 004c 2169     		ldr	r1, [r4, #16]
 120:User/Inc/rosserialInc/hydrosoft_ros/Command_Arm.h ****       }
 1035              		.loc 1 120 15 discriminator 2 view .LVU410
 1036 004e 21F81030 		strh	r3, [r1, r0, lsl #1]	@ unaligned
 1037              	.LBE60:
 110:User/Inc/rosserialInc/hydrosoft_ros/Command_Arm.h ****       union {
 1038              		.loc 1 110 7 is_stmt 1 discriminator 2 view .LVU411
ARM GAS  /tmp/ccgPptWl.s 			page 29


 1039 0052 0130     		adds	r0, r0, #1
 1040              	.LVL90:
 1041              	.L41:
 110:User/Inc/rosserialInc/hydrosoft_ros/Command_Arm.h ****       union {
 1042              		.loc 1 110 30 discriminator 3 view .LVU412
 110:User/Inc/rosserialInc/hydrosoft_ros/Command_Arm.h ****       union {
 1043              		.loc 1 110 32 is_stmt 0 discriminator 3 view .LVU413
 1044 0054 A368     		ldr	r3, [r4, #8]
 110:User/Inc/rosserialInc/hydrosoft_ros/Command_Arm.h ****       union {
 1045              		.loc 1 110 30 discriminator 3 view .LVU414
 1046 0056 8342     		cmp	r3, r0
 1047 0058 F1D8     		bhi	.L44
 1048              	.LBE61:
 122:User/Inc/rosserialInc/hydrosoft_ros/Command_Arm.h ****         int16_t real;
 1049              		.loc 1 122 7 is_stmt 1 view .LVU415
 126:User/Inc/rosserialInc/hydrosoft_ros/Command_Arm.h ****       u_gripperCommand.base |= ((uint16_t) (*(inbuffer + offset + 0))) << (8 * 0);
 1050              		.loc 1 126 7 view .LVU416
 127:User/Inc/rosserialInc/hydrosoft_ros/Command_Arm.h ****       u_gripperCommand.base |= ((uint16_t) (*(inbuffer + offset + 1))) << (8 * 1);
 1051              		.loc 1 127 7 view .LVU417
 127:User/Inc/rosserialInc/hydrosoft_ros/Command_Arm.h ****       u_gripperCommand.base |= ((uint16_t) (*(inbuffer + offset + 1))) << (8 * 1);
 1052              		.loc 1 127 45 is_stmt 0 view .LVU418
 1053 005a AB5C     		ldrb	r3, [r5, r2]	@ zero_extendqisi2
 128:User/Inc/rosserialInc/hydrosoft_ros/Command_Arm.h ****       this->gripperCommand = u_gripperCommand.real;
 1054              		.loc 1 128 7 is_stmt 1 view .LVU419
 128:User/Inc/rosserialInc/hydrosoft_ros/Command_Arm.h ****       this->gripperCommand = u_gripperCommand.real;
 1055              		.loc 1 128 65 is_stmt 0 view .LVU420
 1056 005c 511C     		adds	r1, r2, #1
 128:User/Inc/rosserialInc/hydrosoft_ros/Command_Arm.h ****       this->gripperCommand = u_gripperCommand.real;
 1057              		.loc 1 128 45 view .LVU421
 1058 005e 695C     		ldrb	r1, [r5, r1]	@ zero_extendqisi2
 128:User/Inc/rosserialInc/hydrosoft_ros/Command_Arm.h ****       this->gripperCommand = u_gripperCommand.real;
 1059              		.loc 1 128 29 view .LVU422
 1060 0060 43EA0123 		orr	r3, r3, r1, lsl #8
 129:User/Inc/rosserialInc/hydrosoft_ros/Command_Arm.h ****       offset += sizeof(this->gripperCommand);
 1061              		.loc 1 129 7 is_stmt 1 view .LVU423
 129:User/Inc/rosserialInc/hydrosoft_ros/Command_Arm.h ****       offset += sizeof(this->gripperCommand);
 1062              		.loc 1 129 28 is_stmt 0 view .LVU424
 1063 0064 A382     		strh	r3, [r4, #20]	@ movhi
 130:User/Inc/rosserialInc/hydrosoft_ros/Command_Arm.h ****       union {
 1064              		.loc 1 130 7 is_stmt 1 view .LVU425
 130:User/Inc/rosserialInc/hydrosoft_ros/Command_Arm.h ****       union {
 1065              		.loc 1 130 14 is_stmt 0 view .LVU426
 1066 0066 931C     		adds	r3, r2, #2
 1067              	.LVL91:
 131:User/Inc/rosserialInc/hydrosoft_ros/Command_Arm.h ****         int16_t real;
 1068              		.loc 1 131 7 is_stmt 1 view .LVU427
 135:User/Inc/rosserialInc/hydrosoft_ros/Command_Arm.h ****       u_pSourceCommand.base |= ((uint16_t) (*(inbuffer + offset + 0))) << (8 * 0);
 1069              		.loc 1 135 7 view .LVU428
 136:User/Inc/rosserialInc/hydrosoft_ros/Command_Arm.h ****       u_pSourceCommand.base |= ((uint16_t) (*(inbuffer + offset + 1))) << (8 * 1);
 1070              		.loc 1 136 7 view .LVU429
 136:User/Inc/rosserialInc/hydrosoft_ros/Command_Arm.h ****       u_pSourceCommand.base |= ((uint16_t) (*(inbuffer + offset + 1))) << (8 * 1);
 1071              		.loc 1 136 45 is_stmt 0 view .LVU430
 1072 0068 EB5C     		ldrb	r3, [r5, r3]	@ zero_extendqisi2
 1073              	.LVL92:
 137:User/Inc/rosserialInc/hydrosoft_ros/Command_Arm.h ****       this->pSourceCommand = u_pSourceCommand.real;
 1074              		.loc 1 137 7 is_stmt 1 view .LVU431
 137:User/Inc/rosserialInc/hydrosoft_ros/Command_Arm.h ****       this->pSourceCommand = u_pSourceCommand.real;
ARM GAS  /tmp/ccgPptWl.s 			page 30


 1075              		.loc 1 137 65 is_stmt 0 view .LVU432
 1076 006a D11C     		adds	r1, r2, #3
 137:User/Inc/rosserialInc/hydrosoft_ros/Command_Arm.h ****       this->pSourceCommand = u_pSourceCommand.real;
 1077              		.loc 1 137 45 view .LVU433
 1078 006c 695C     		ldrb	r1, [r5, r1]	@ zero_extendqisi2
 137:User/Inc/rosserialInc/hydrosoft_ros/Command_Arm.h ****       this->pSourceCommand = u_pSourceCommand.real;
 1079              		.loc 1 137 29 view .LVU434
 1080 006e 43EA0123 		orr	r3, r3, r1, lsl #8
 138:User/Inc/rosserialInc/hydrosoft_ros/Command_Arm.h ****       offset += sizeof(this->pSourceCommand);
 1081              		.loc 1 138 7 is_stmt 1 view .LVU435
 138:User/Inc/rosserialInc/hydrosoft_ros/Command_Arm.h ****       offset += sizeof(this->pSourceCommand);
 1082              		.loc 1 138 28 is_stmt 0 view .LVU436
 1083 0072 E382     		strh	r3, [r4, #22]	@ movhi
 139:User/Inc/rosserialInc/hydrosoft_ros/Command_Arm.h ****       union {
 1084              		.loc 1 139 7 is_stmt 1 view .LVU437
 139:User/Inc/rosserialInc/hydrosoft_ros/Command_Arm.h ****       union {
 1085              		.loc 1 139 14 is_stmt 0 view .LVU438
 1086 0074 131D     		adds	r3, r2, #4
 1087              	.LVL93:
 140:User/Inc/rosserialInc/hydrosoft_ros/Command_Arm.h ****         int16_t real;
 1088              		.loc 1 140 7 is_stmt 1 view .LVU439
 144:User/Inc/rosserialInc/hydrosoft_ros/Command_Arm.h ****       u_pSinkCommand.base |= ((uint16_t) (*(inbuffer + offset + 0))) << (8 * 0);
 1089              		.loc 1 144 7 view .LVU440
 145:User/Inc/rosserialInc/hydrosoft_ros/Command_Arm.h ****       u_pSinkCommand.base |= ((uint16_t) (*(inbuffer + offset + 1))) << (8 * 1);
 1090              		.loc 1 145 7 view .LVU441
 145:User/Inc/rosserialInc/hydrosoft_ros/Command_Arm.h ****       u_pSinkCommand.base |= ((uint16_t) (*(inbuffer + offset + 1))) << (8 * 1);
 1091              		.loc 1 145 43 is_stmt 0 view .LVU442
 1092 0076 EB5C     		ldrb	r3, [r5, r3]	@ zero_extendqisi2
 1093              	.LVL94:
 146:User/Inc/rosserialInc/hydrosoft_ros/Command_Arm.h ****       this->pSinkCommand = u_pSinkCommand.real;
 1094              		.loc 1 146 7 is_stmt 1 view .LVU443
 146:User/Inc/rosserialInc/hydrosoft_ros/Command_Arm.h ****       this->pSinkCommand = u_pSinkCommand.real;
 1095              		.loc 1 146 63 is_stmt 0 view .LVU444
 1096 0078 511D     		adds	r1, r2, #5
 146:User/Inc/rosserialInc/hydrosoft_ros/Command_Arm.h ****       this->pSinkCommand = u_pSinkCommand.real;
 1097              		.loc 1 146 43 view .LVU445
 1098 007a 695C     		ldrb	r1, [r5, r1]	@ zero_extendqisi2
 146:User/Inc/rosserialInc/hydrosoft_ros/Command_Arm.h ****       this->pSinkCommand = u_pSinkCommand.real;
 1099              		.loc 1 146 27 view .LVU446
 1100 007c 43EA0123 		orr	r3, r3, r1, lsl #8
 147:User/Inc/rosserialInc/hydrosoft_ros/Command_Arm.h ****       offset += sizeof(this->pSinkCommand);
 1101              		.loc 1 147 7 is_stmt 1 view .LVU447
 147:User/Inc/rosserialInc/hydrosoft_ros/Command_Arm.h ****       offset += sizeof(this->pSinkCommand);
 1102              		.loc 1 147 26 is_stmt 0 view .LVU448
 1103 0080 2383     		strh	r3, [r4, #24]	@ movhi
 148:User/Inc/rosserialInc/hydrosoft_ros/Command_Arm.h ****      return offset;
 1104              		.loc 1 148 7 is_stmt 1 view .LVU449
 1105              	.LVL95:
 149:User/Inc/rosserialInc/hydrosoft_ros/Command_Arm.h ****     }
 1106              		.loc 1 149 6 view .LVU450
 150:User/Inc/rosserialInc/hydrosoft_ros/Command_Arm.h **** 
 1107              		.loc 1 150 5 is_stmt 0 view .LVU451
 1108 0082 901D     		adds	r0, r2, #6
 1109              	.LVL96:
 150:User/Inc/rosserialInc/hydrosoft_ros/Command_Arm.h **** 
 1110              		.loc 1 150 5 view .LVU452
 1111 0084 70BD     		pop	{r4, r5, r6, pc}
ARM GAS  /tmp/ccgPptWl.s 			page 31


 150:User/Inc/rosserialInc/hydrosoft_ros/Command_Arm.h **** 
 1112              		.loc 1 150 5 view .LVU453
 1113              		.cfi_endproc
 1114              	.LFE427:
 1115              		.cantunwind
 1116              		.fnend
 1118              		.section	.text._ZN26HydroUnderwaterManipulatorC2Ev,"ax",%progbits
 1119              		.align	1
 1120              		.global	_ZN26HydroUnderwaterManipulatorC2Ev
 1121              		.syntax unified
 1122              		.thumb
 1123              		.thumb_func
 1124              		.fpu softvfp
 1126              	_ZN26HydroUnderwaterManipulatorC2Ev:
 1127              		.fnstart
 1128              	.LVL97:
 1129              	.LFB444:
 1130              		.file 3 "User/HydroUnderwaterManipulator.cpp"
   1:User/HydroUnderwaterManipulator.cpp **** /*
   2:User/HydroUnderwaterManipulator.cpp ****  * SoftArm.c
   3:User/HydroUnderwaterManipulator.cpp ****  *
   4:User/HydroUnderwaterManipulator.cpp ****  *  Created on: May 12, 2018
   5:User/HydroUnderwaterManipulator.cpp ****  *      Author: 402072495
   6:User/HydroUnderwaterManipulator.cpp ****  */
   7:User/HydroUnderwaterManipulator.cpp **** #include "HydroUnderwaterManipulator.h"
   8:User/HydroUnderwaterManipulator.cpp **** 
   9:User/HydroUnderwaterManipulator.cpp **** #include "main.h"
  10:User/HydroUnderwaterManipulator.cpp **** 
  11:User/HydroUnderwaterManipulator.cpp **** /*************************SOFT ARM**************************
  12:User/HydroUnderwaterManipulator.cpp ****  *
  13:User/HydroUnderwaterManipulator.cpp ****  ***********************************************************/
  14:User/HydroUnderwaterManipulator.cpp **** HydroUnderwaterManipulator::HydroUnderwaterManipulator() : pSource(0, 0, HIGH_PRESSURE_SOURCE),
 1131              		.loc 3 14 1 is_stmt 1 view -0
 1132              		.cfi_startproc
 1133              		@ args = 0, pretend = 0, frame = 0
 1134              		@ frame_needed = 0, uses_anonymous_args = 0
 1135              		.loc 3 14 1 is_stmt 0 view .LVU455
 1136 0000 2DE9F041 		push	{r4, r5, r6, r7, r8, lr}
 1137              		.save {r4, r5, r6, r7, r8, lr}
 1138              	.LCFI4:
 1139              		.cfi_def_cfa_offset 24
 1140              		.cfi_offset 4, -24
 1141              		.cfi_offset 5, -20
 1142              		.cfi_offset 6, -16
 1143              		.cfi_offset 7, -12
 1144              		.cfi_offset 8, -8
 1145              		.cfi_offset 14, -4
 1146              		.pad #8
 1147 0004 82B0     		sub	sp, sp, #8
 1148              	.LCFI5:
 1149              		.cfi_def_cfa_offset 32
 1150 0006 0646     		mov	r6, r0
 1151              	.LBB79:
  15:User/HydroUnderwaterManipulator.cpp **** 														   pSink(0, 0, LOW_PRESSURE_SINK)
 1152              		.loc 3 15 47 view .LVU456
 1153 0008 8046     		mov	r8, r0
 1154 000a 0227     		movs	r7, #2
ARM GAS  /tmp/ccgPptWl.s 			page 32


 1155 000c 0CE0     		b	.L49
 1156              	.LVL98:
 1157              	.L51:
 1158              		.loc 3 15 47 discriminator 6 view .LVU457
 1159 000e 0023     		movs	r3, #0
 1160 0010 0122     		movs	r2, #1
 1161 0012 1946     		mov	r1, r3
 1162 0014 2846     		mov	r0, r5
 1163 0016 FFF7FEFF 		bl	_ZN7CHAMBERC1Eiii
 1164              	.LVL99:
 1165 001a 3C35     		adds	r5, r5, #60
 1166              		.loc 3 15 47 is_stmt 1 discriminator 6 view .LVU458
 1167 001c 013C     		subs	r4, r4, #1
 1168              	.L48:
 1169              		.loc 3 15 47 discriminator 7 view .LVU459
 1170 001e 002C     		cmp	r4, #0
 1171 0020 F5DA     		bge	.L51
 1172              		.loc 3 15 47 is_stmt 0 discriminator 5 view .LVU460
 1173 0022 08F1F008 		add	r8, r8, #240
 1174              		.loc 3 15 47 is_stmt 1 discriminator 5 view .LVU461
 1175 0026 013F     		subs	r7, r7, #1
 1176              	.L49:
 1177              		.loc 3 15 47 discriminator 8 view .LVU462
 1178 0028 002F     		cmp	r7, #0
 1179 002a 02DB     		blt	.L46
 1180              		.loc 3 15 47 is_stmt 0 view .LVU463
 1181 002c 4546     		mov	r5, r8
 1182 002e 0324     		movs	r4, #3
 1183 0030 F5E7     		b	.L48
 1184              	.L46:
 1185              		.loc 3 15 47 discriminator 2 view .LVU464
 1186 0032 0023     		movs	r3, #0
 1187 0034 0122     		movs	r2, #1
 1188 0036 1946     		mov	r1, r3
 1189 0038 06F53470 		add	r0, r6, #720
 1190 003c FFF7FEFF 		bl	_ZN7CHAMBERC1Eiii
 1191              	.LVL100:
 1192 0040 0024     		movs	r4, #0
 1193 0042 0094     		str	r4, [sp]
 1194 0044 2346     		mov	r3, r4
 1195 0046 2246     		mov	r2, r4
 1196 0048 2146     		mov	r1, r4
 1197 004a 06F54370 		add	r0, r6, #780
 1198 004e FFF7FEFF 		bl	_ZN15PRESSURE_SOURCEC1Ehhhh
 1199              	.LVL101:
 1200 0052 0094     		str	r4, [sp]
 1201 0054 0123     		movs	r3, #1
 1202 0056 2246     		mov	r2, r4
 1203 0058 2146     		mov	r1, r4
 1204 005a 06F55070 		add	r0, r6, #832
 1205 005e FFF7FEFF 		bl	_ZN15PRESSURE_SOURCEC1Ehhhh
 1206              	.LVL102:
 1207              	.LBB80:
 1208              	.LBI80:
 1209              		.file 4 "User/Inc/HydroUnderwaterManipulator.h"
   1:User/Inc/HydroUnderwaterManipulator.h **** /*
   2:User/Inc/HydroUnderwaterManipulator.h ****  *
ARM GAS  /tmp/ccgPptWl.s 			page 33


   3:User/Inc/HydroUnderwaterManipulator.h ****  *  Created on: May 12, 2018
   4:User/Inc/HydroUnderwaterManipulator.h ****  *      Author: 402072495
   5:User/Inc/HydroUnderwaterManipulator.h ****  */
   6:User/Inc/HydroUnderwaterManipulator.h **** 
   7:User/Inc/HydroUnderwaterManipulator.h **** #ifndef USERINC_SOFTARM_H_
   8:User/Inc/HydroUnderwaterManipulator.h **** #define USERINC_SOFTARM_H_
   9:User/Inc/HydroUnderwaterManipulator.h **** 
  10:User/Inc/HydroUnderwaterManipulator.h **** #include "CHAMBER.h"
  11:User/Inc/HydroUnderwaterManipulator.h **** #include "PRESSURESOURCE.h"
  12:User/Inc/HydroUnderwaterManipulator.h **** #include "messages.h"
  13:User/Inc/HydroUnderwaterManipulator.h **** #define SEGNUM 3
  14:User/Inc/HydroUnderwaterManipulator.h **** #define ACTNUM 4
  15:User/Inc/HydroUnderwaterManipulator.h **** #define P_ATM 101000
  16:User/Inc/HydroUnderwaterManipulator.h **** #include "ros.h"
  17:User/Inc/HydroUnderwaterManipulator.h **** #include "hydrosoft_ros/Command_Arm.h"
  18:User/Inc/HydroUnderwaterManipulator.h **** #include "hydrosoft_ros/Sensor_Arm.h"
  19:User/Inc/HydroUnderwaterManipulator.h **** 
  20:User/Inc/HydroUnderwaterManipulator.h **** typedef enum{
  21:User/Inc/HydroUnderwaterManipulator.h **** 	OpeningControlMode,
  22:User/Inc/HydroUnderwaterManipulator.h **** 	PressureControlMode
  23:User/Inc/HydroUnderwaterManipulator.h **** }CONTROLMODE;
  24:User/Inc/HydroUnderwaterManipulator.h **** 
  25:User/Inc/HydroUnderwaterManipulator.h **** class HydroManipulatorStatus : public hydrosoft_ros::Sensor_Arm
  26:User/Inc/HydroUnderwaterManipulator.h **** {
  27:User/Inc/HydroUnderwaterManipulator.h **** 	public:
  28:User/Inc/HydroUnderwaterManipulator.h **** 		HydroManipulatorStatus()
 1210              		.loc 4 28 3 is_stmt 1 discriminator 2 view .LVU465
 1211              	.LBB81:
 1212              	.LBB82:
 1213              	.LBI82:
  32:User/Inc/rosserialInc/hydrosoft_ros/Sensor_Arm.h ****       controlModeStatus(0),
 1214              		.loc 2 32 5 discriminator 2 view .LVU466
 1215              	.LBB83:
 1216              	.LBB84:
 1217              	.LBI84:
 1218              		.file 5 "User/Inc/rosserialInc/ros/msg.h"
   1:User/Inc/rosserialInc/ros/msg.h **** /*
   2:User/Inc/rosserialInc/ros/msg.h ****  * Software License Agreement (BSD License)
   3:User/Inc/rosserialInc/ros/msg.h ****  *
   4:User/Inc/rosserialInc/ros/msg.h ****  * Copyright (c) 2011, Willow Garage, Inc.
   5:User/Inc/rosserialInc/ros/msg.h ****  * All rights reserved.
   6:User/Inc/rosserialInc/ros/msg.h ****  *
   7:User/Inc/rosserialInc/ros/msg.h ****  * Redistribution and use in source and binary forms, with or without
   8:User/Inc/rosserialInc/ros/msg.h ****  * modification, are permitted provided that the following conditions
   9:User/Inc/rosserialInc/ros/msg.h ****  * are met:
  10:User/Inc/rosserialInc/ros/msg.h ****  *
  11:User/Inc/rosserialInc/ros/msg.h ****  *  * Redistributions of source code must retain the above copyright
  12:User/Inc/rosserialInc/ros/msg.h ****  *    notice, this list of conditions and the following disclaimer.
  13:User/Inc/rosserialInc/ros/msg.h ****  *  * Redistributions in binary form must reproduce the above
  14:User/Inc/rosserialInc/ros/msg.h ****  *    copyright notice, this list of conditions and the following
  15:User/Inc/rosserialInc/ros/msg.h ****  *    disclaimer in the documentation and/or other materials provided
  16:User/Inc/rosserialInc/ros/msg.h ****  *    with the distribution.
  17:User/Inc/rosserialInc/ros/msg.h ****  *  * Neither the name of Willow Garage, Inc. nor the names of its
  18:User/Inc/rosserialInc/ros/msg.h ****  *    contributors may be used to endorse or promote prducts derived
  19:User/Inc/rosserialInc/ros/msg.h ****  *    from this software without specific prior written permission.
  20:User/Inc/rosserialInc/ros/msg.h ****  *
  21:User/Inc/rosserialInc/ros/msg.h ****  * THIS SOFTWARE IS PROVIDED BY THE COPYRIGHT HOLDERS AND CONTRIBUTORS
ARM GAS  /tmp/ccgPptWl.s 			page 34


  22:User/Inc/rosserialInc/ros/msg.h ****  * "AS IS" AND ANY EXPRESS OR IMPLIED WARRANTIES, INCLUDING, BUT NOT
  23:User/Inc/rosserialInc/ros/msg.h ****  * LIMITED TO, THE IMPLIED WARRANTIES OF MERCHANTABILITY AND FITNESS
  24:User/Inc/rosserialInc/ros/msg.h ****  * FOR A PARTICULAR PURPOSE ARE DISCLAIMED. IN NO EVENT SHALL THE
  25:User/Inc/rosserialInc/ros/msg.h ****  * COPYRIGHT OWNER OR CONTRIBUTORS BE LIABLE FOR ANY DIRECT, INDIRECT,
  26:User/Inc/rosserialInc/ros/msg.h ****  * INCIDENTAL, SPECIAL, EXEMPLARY, OR CONSEQUENTIAL DAMAGES (INCLUDING,
  27:User/Inc/rosserialInc/ros/msg.h ****  * BUT NOT LIMITED TO, PROCUREMENT OF SUBSTITUTE GOODS OR SERVICES;
  28:User/Inc/rosserialInc/ros/msg.h ****  * LOSS OF USE, DATA, OR PROFITS; OR BUSINESS INTERRUPTION) HOWEVER
  29:User/Inc/rosserialInc/ros/msg.h ****  * CAUSED AND ON ANY THEORY OF LIABILITY, WHETHER IN CONTRACT, STRICT
  30:User/Inc/rosserialInc/ros/msg.h ****  * LIABILITY, OR TORT (INCLUDING NEGLIGENCE OR OTHERWISE) ARISING IN
  31:User/Inc/rosserialInc/ros/msg.h ****  * ANY WAY OUT OF THE USE OF THIS SOFTWARE, EVEN IF ADVISED OF THE
  32:User/Inc/rosserialInc/ros/msg.h ****  * POSSIBILITY OF SUCH DAMAGE.
  33:User/Inc/rosserialInc/ros/msg.h ****  */
  34:User/Inc/rosserialInc/ros/msg.h **** 
  35:User/Inc/rosserialInc/ros/msg.h **** #ifndef _ROS_MSG_H_
  36:User/Inc/rosserialInc/ros/msg.h **** #define _ROS_MSG_H_
  37:User/Inc/rosserialInc/ros/msg.h **** 
  38:User/Inc/rosserialInc/ros/msg.h **** #include <stdint.h>
  39:User/Inc/rosserialInc/ros/msg.h **** #include <stddef.h>
  40:User/Inc/rosserialInc/ros/msg.h **** #include <string.h>
  41:User/Inc/rosserialInc/ros/msg.h **** 
  42:User/Inc/rosserialInc/ros/msg.h **** namespace ros
  43:User/Inc/rosserialInc/ros/msg.h **** {
  44:User/Inc/rosserialInc/ros/msg.h **** 
  45:User/Inc/rosserialInc/ros/msg.h **** /* Base Message Type */
  46:User/Inc/rosserialInc/ros/msg.h **** class Msg
 1219              		.loc 5 46 7 discriminator 2 view .LVU467
 1220              	.LBB85:
 1221 0062 2549     		ldr	r1, .L52
 1222 0064 C6F87413 		str	r1, [r6, #884]
 1223              	.LVL103:
 1224              		.loc 5 46 7 is_stmt 0 discriminator 2 view .LVU468
 1225              	.LBE85:
 1226              	.LBE84:
  38:User/Inc/rosserialInc/hydrosoft_ros/Sensor_Arm.h ****     {
 1227              		.loc 2 38 67 discriminator 2 view .LVU469
 1228 0068 244A     		ldr	r2, .L52+4
 1229 006a C6F87423 		str	r2, [r6, #884]
 1230 006e A6F87843 		strh	r4, [r6, #888]	@ movhi
 1231 0072 C6F87C43 		str	r4, [r6, #892]
 1232 0076 A6F88043 		strh	r4, [r6, #896]	@ movhi
 1233 007a C6F88443 		str	r4, [r6, #900]
 1234 007e A6F88843 		strh	r4, [r6, #904]	@ movhi
 1235 0082 A6F88A43 		strh	r4, [r6, #906]	@ movhi
 1236 0086 A6F88C43 		strh	r4, [r6, #908]	@ movhi
 1237 008a C6F89043 		str	r4, [r6, #912]
 1238 008e A6F89443 		strh	r4, [r6, #916]	@ movhi
 1239 0092 C6F89843 		str	r4, [r6, #920]
 1240              	.LVL104:
  38:User/Inc/rosserialInc/hydrosoft_ros/Sensor_Arm.h ****     {
 1241              		.loc 2 38 67 discriminator 2 view .LVU470
 1242              	.LBE83:
 1243              	.LBE82:
  29:User/Inc/HydroUnderwaterManipulator.h **** 		{
 1244              		.loc 4 29 3 discriminator 2 view .LVU471
 1245 0096 1A4A     		ldr	r2, .L52+8
 1246 0098 C6F87423 		str	r2, [r6, #884]
  30:User/Inc/HydroUnderwaterManipulator.h **** 			actuatorStatus = (int16_t *)actuatorStatusBuf;
ARM GAS  /tmp/ccgPptWl.s 			page 35


 1247              		.loc 4 30 4 is_stmt 1 discriminator 2 view .LVU472
 1248              		.loc 4 30 32 is_stmt 0 discriminator 2 view .LVU473
 1249 009c 06F56772 		add	r2, r6, #924
 1250              		.loc 4 30 19 discriminator 2 view .LVU474
 1251 00a0 C6F88423 		str	r2, [r6, #900]
  31:User/Inc/HydroUnderwaterManipulator.h **** 			actuatorStatus_length = SEGNUM*ACTNUM;
 1252              		.loc 4 31 4 is_stmt 1 discriminator 2 view .LVU475
 1253              		.loc 4 31 26 is_stmt 0 discriminator 2 view .LVU476
 1254 00a4 0C22     		movs	r2, #12
 1255 00a6 C6F87C23 		str	r2, [r6, #892]
  32:User/Inc/HydroUnderwaterManipulator.h **** 			quaternions = (int16_t *)quaternionsBuf;
 1256              		.loc 4 32 4 is_stmt 1 discriminator 2 view .LVU477
 1257              		.loc 4 32 29 is_stmt 0 discriminator 2 view .LVU478
 1258 00aa 06F56D70 		add	r0, r6, #948
 1259              		.loc 4 32 16 discriminator 2 view .LVU479
 1260 00ae C6F89803 		str	r0, [r6, #920]
  33:User/Inc/HydroUnderwaterManipulator.h **** 			quaternions_length = (SEGNUM+1)*4;
 1261              		.loc 4 33 4 is_stmt 1 discriminator 2 view .LVU480
 1262              		.loc 4 33 23 is_stmt 0 discriminator 2 view .LVU481
 1263 00b2 1020     		movs	r0, #16
 1264 00b4 C6F89003 		str	r0, [r6, #912]
 1265              	.LVL105:
 1266              		.loc 4 33 23 discriminator 2 view .LVU482
 1267              	.LBE81:
 1268              	.LBE80:
 1269              	.LBB86:
 1270              	.LBI86:
  34:User/Inc/HydroUnderwaterManipulator.h **** 		}
  35:User/Inc/HydroUnderwaterManipulator.h **** 		int16_t actuatorStatusBuf[SEGNUM][ACTNUM];
  36:User/Inc/HydroUnderwaterManipulator.h **** 		int16_t quaternionsBuf[(SEGNUM+1)][4];
  37:User/Inc/HydroUnderwaterManipulator.h **** };
  38:User/Inc/HydroUnderwaterManipulator.h **** 
  39:User/Inc/HydroUnderwaterManipulator.h **** class HydroManipulatorCommand : public hydrosoft_ros::Command_Arm
  40:User/Inc/HydroUnderwaterManipulator.h **** {
  41:User/Inc/HydroUnderwaterManipulator.h **** 	public:
  42:User/Inc/HydroUnderwaterManipulator.h **** 		HydroManipulatorCommand()
 1271              		.loc 4 42 3 is_stmt 1 discriminator 2 view .LVU483
 1272              	.LBB87:
 1273              	.LBB88:
 1274              	.LBI88:
  28:User/Inc/rosserialInc/hydrosoft_ros/Command_Arm.h ****       controlModeCommand(0),
 1275              		.loc 1 28 5 discriminator 2 view .LVU484
 1276              	.LBB89:
 1277              	.LBB90:
 1278              	.LBI90:
 1279              		.loc 5 46 7 discriminator 2 view .LVU485
 1280              	.LBB91:
 1281 00b8 C6F8D413 		str	r1, [r6, #980]
 1282              	.LVL106:
 1283              		.loc 5 46 7 is_stmt 0 discriminator 2 view .LVU486
 1284              	.LBE91:
 1285              	.LBE90:
  33:User/Inc/rosserialInc/hydrosoft_ros/Command_Arm.h ****     {
 1286              		.loc 1 33 21 discriminator 2 view .LVU487
 1287 00bc 114B     		ldr	r3, .L52+12
 1288 00be C6F8D433 		str	r3, [r6, #980]
 1289 00c2 A6F8D843 		strh	r4, [r6, #984]	@ movhi
ARM GAS  /tmp/ccgPptWl.s 			page 36


 1290 00c6 C6F8DC43 		str	r4, [r6, #988]
 1291 00ca A6F8E043 		strh	r4, [r6, #992]	@ movhi
 1292 00ce C6F8E443 		str	r4, [r6, #996]
 1293 00d2 A6F8E843 		strh	r4, [r6, #1000]	@ movhi
 1294 00d6 A6F8EA43 		strh	r4, [r6, #1002]	@ movhi
 1295 00da A6F8EC43 		strh	r4, [r6, #1004]	@ movhi
 1296              	.LVL107:
  33:User/Inc/rosserialInc/hydrosoft_ros/Command_Arm.h ****     {
 1297              		.loc 1 33 21 discriminator 2 view .LVU488
 1298              	.LBE89:
 1299              	.LBE88:
  43:User/Inc/HydroUnderwaterManipulator.h **** 		{
 1300              		.loc 4 43 3 discriminator 2 view .LVU489
 1301 00de 0A4B     		ldr	r3, .L52+16
 1302 00e0 C6F8D433 		str	r3, [r6, #980]
  44:User/Inc/HydroUnderwaterManipulator.h **** 			actuatorCommand = (int16_t *)actuatorCommandBuf;
 1303              		.loc 4 44 4 is_stmt 1 discriminator 2 view .LVU490
 1304              		.loc 4 44 33 is_stmt 0 discriminator 2 view .LVU491
 1305 00e4 06F2EE33 		addw	r3, r6, #1006
 1306              		.loc 4 44 20 discriminator 2 view .LVU492
 1307 00e8 C6F8E433 		str	r3, [r6, #996]
  45:User/Inc/HydroUnderwaterManipulator.h **** 			actuatorCommand_length = SEGNUM*ACTNUM;
 1308              		.loc 4 45 4 is_stmt 1 discriminator 2 view .LVU493
 1309              		.loc 4 45 27 is_stmt 0 discriminator 2 view .LVU494
 1310 00ec C6F8DC23 		str	r2, [r6, #988]
 1311              	.LVL108:
 1312              		.loc 4 45 27 discriminator 2 view .LVU495
 1313              	.LBE87:
 1314              	.LBE86:
 1315              	.LBE79:
  16:User/HydroUnderwaterManipulator.cpp **** {
  17:User/HydroUnderwaterManipulator.cpp **** }
 1316              		.loc 3 17 1 discriminator 2 view .LVU496
 1317 00f0 3046     		mov	r0, r6
 1318 00f2 02B0     		add	sp, sp, #8
 1319              	.LCFI6:
 1320              		.cfi_def_cfa_offset 24
 1321              		@ sp needed
 1322 00f4 BDE8F081 		pop	{r4, r5, r6, r7, r8, pc}
 1323              	.LVL109:
 1324              	.L53:
 1325              		.loc 3 17 1 discriminator 2 view .LVU497
 1326              		.align	2
 1327              	.L52:
 1328 00f8 08000000 		.word	_ZTVN3ros3MsgE+8
 1329 00fc 08000000 		.word	_ZTVN13hydrosoft_ros10Sensor_ArmE+8
 1330 0100 08000000 		.word	_ZTV22HydroManipulatorStatus+8
 1331 0104 08000000 		.word	_ZTVN13hydrosoft_ros11Command_ArmE+8
 1332 0108 08000000 		.word	_ZTV23HydroManipulatorCommand+8
 1333              		.cfi_endproc
 1334              	.LFE444:
 1335              		.fnend
 1337              		.global	_ZN26HydroUnderwaterManipulatorC1Ev
 1338              		.thumb_set _ZN26HydroUnderwaterManipulatorC1Ev,_ZN26HydroUnderwaterManipulatorC2Ev
 1339              		.section	.text._ZN26HydroUnderwaterManipulator18setupActuatorPortsERA3_A4_A2_h,"ax",%progbits
 1340              		.align	1
 1341              		.global	_ZN26HydroUnderwaterManipulator18setupActuatorPortsERA3_A4_A2_h
ARM GAS  /tmp/ccgPptWl.s 			page 37


 1342              		.syntax unified
 1343              		.thumb
 1344              		.thumb_func
 1345              		.fpu softvfp
 1347              	_ZN26HydroUnderwaterManipulator18setupActuatorPortsERA3_A4_A2_h:
 1348              		.fnstart
 1349              	.LVL110:
 1350              	.LFB446:
  18:User/HydroUnderwaterManipulator.cpp **** 
  19:User/HydroUnderwaterManipulator.cpp **** void HydroUnderwaterManipulator::setupActuatorPorts(uint8_t (&ports)[SEGNUM][ACTNUM][2])
  20:User/HydroUnderwaterManipulator.cpp **** {
 1351              		.loc 3 20 1 is_stmt 1 view -0
 1352              		.cfi_startproc
 1353              		@ args = 0, pretend = 0, frame = 0
 1354              		@ frame_needed = 0, uses_anonymous_args = 0
 1355              		.loc 3 20 1 is_stmt 0 view .LVU499
 1356 0000 2DE9F041 		push	{r4, r5, r6, r7, r8, lr}
 1357              		.save {r4, r5, r6, r7, r8, lr}
 1358              	.LCFI7:
 1359              		.cfi_def_cfa_offset 24
 1360              		.cfi_offset 4, -24
 1361              		.cfi_offset 5, -20
 1362              		.cfi_offset 6, -16
 1363              		.cfi_offset 7, -12
 1364              		.cfi_offset 8, -8
 1365              		.cfi_offset 14, -4
 1366 0004 8046     		mov	r8, r0
 1367 0006 0F46     		mov	r7, r1
  21:User/HydroUnderwaterManipulator.cpp **** 	/*Every actuator is refered to with two numbers, segNum(0-3) and bellowNum(0-3)*/
  22:User/HydroUnderwaterManipulator.cpp **** 
  23:User/HydroUnderwaterManipulator.cpp **** 	for (int i = 0; i < SEGNUM; i++)
 1368              		.loc 3 23 2 is_stmt 1 view .LVU500
 1369              	.LVL111:
 1370              	.LBB92:
 1371              		.loc 3 23 11 is_stmt 0 view .LVU501
 1372 0008 0026     		movs	r6, #0
 1373 000a 19E0     		b	.L58
 1374              	.LVL112:
 1375              	.L60:
 1376              	.LBB93:
  24:User/HydroUnderwaterManipulator.cpp **** 	{
  25:User/HydroUnderwaterManipulator.cpp **** 		for (int j = 0; j < ACTNUM; j++)
  26:User/HydroUnderwaterManipulator.cpp **** 		{
  27:User/HydroUnderwaterManipulator.cpp **** 			actuators[i][j].attachPWM(ports[i][j][0], ports[i][j][1]);
 1377              		.loc 3 27 4 is_stmt 1 discriminator 2 view .LVU502
 1378              		.loc 3 27 29 is_stmt 0 discriminator 2 view .LVU503
 1379 000c C5EB0513 		rsb	r3, r5, r5, lsl #4
 1380 0010 C6EB0614 		rsb	r4, r6, r6, lsl #4
 1381 0014 2401     		lsls	r4, r4, #4
 1382 0016 04EB8304 		add	r4, r4, r3, lsl #2
 1383 001a 4444     		add	r4, r4, r8
 1384              		.loc 3 27 43 discriminator 2 view .LVU504
 1385 001c 05EB8603 		add	r3, r5, r6, lsl #2
 1386              		.loc 3 27 59 discriminator 2 view .LVU505
 1387 0020 07EB4302 		add	r2, r7, r3, lsl #1
 1388              		.loc 3 27 29 discriminator 2 view .LVU506
 1389 0024 5278     		ldrb	r2, [r2, #1]	@ zero_extendqisi2
ARM GAS  /tmp/ccgPptWl.s 			page 38


 1390 0026 17F81310 		ldrb	r1, [r7, r3, lsl #1]	@ zero_extendqisi2
 1391 002a 2046     		mov	r0, r4
 1392 002c FFF7FEFF 		bl	_ZN7CHAMBER9attachPWMEii
 1393              	.LVL113:
  28:User/HydroUnderwaterManipulator.cpp **** 			actuators[i][j].writeOpening(0);
 1394              		.loc 3 28 4 is_stmt 1 discriminator 2 view .LVU507
 1395              		.loc 3 28 32 is_stmt 0 discriminator 2 view .LVU508
 1396 0030 0021     		movs	r1, #0
 1397 0032 2046     		mov	r0, r4
 1398 0034 FFF7FEFF 		bl	_ZN7CHAMBER12writeOpeningEs
 1399              	.LVL114:
  25:User/HydroUnderwaterManipulator.cpp **** 		{
 1400              		.loc 3 25 3 is_stmt 1 discriminator 2 view .LVU509
 1401 0038 0135     		adds	r5, r5, #1
 1402              	.LVL115:
 1403              	.L57:
  25:User/HydroUnderwaterManipulator.cpp **** 		{
 1404              		.loc 3 25 21 discriminator 3 view .LVU510
 1405 003a 032D     		cmp	r5, #3
 1406 003c E6DD     		ble	.L60
 1407              	.LBE93:
  23:User/HydroUnderwaterManipulator.cpp **** 	{
 1408              		.loc 3 23 2 discriminator 2 view .LVU511
 1409 003e 0136     		adds	r6, r6, #1
 1410              	.LVL116:
 1411              	.L58:
  23:User/HydroUnderwaterManipulator.cpp **** 	{
 1412              		.loc 3 23 20 discriminator 1 view .LVU512
 1413 0040 022E     		cmp	r6, #2
 1414 0042 01DC     		bgt	.L54
 1415              	.LBB94:
  25:User/HydroUnderwaterManipulator.cpp **** 		{
 1416              		.loc 3 25 12 is_stmt 0 view .LVU513
 1417 0044 0025     		movs	r5, #0
 1418 0046 F8E7     		b	.L57
 1419              	.L54:
 1420              	.LBE94:
 1421              	.LBE92:
  29:User/HydroUnderwaterManipulator.cpp **** 		}
  30:User/HydroUnderwaterManipulator.cpp **** 	}
  31:User/HydroUnderwaterManipulator.cpp **** }
 1422              		.loc 3 31 1 view .LVU514
 1423 0048 BDE8F081 		pop	{r4, r5, r6, r7, r8, pc}
 1424              		.loc 3 31 1 view .LVU515
 1425              		.cfi_endproc
 1426              	.LFE446:
 1427              		.fnend
 1429              		.section	.text._ZN26HydroUnderwaterManipulator17setupGripperPortsERA2_h,"ax",%progbits
 1430              		.align	1
 1431              		.global	_ZN26HydroUnderwaterManipulator17setupGripperPortsERA2_h
 1432              		.syntax unified
 1433              		.thumb
 1434              		.thumb_func
 1435              		.fpu softvfp
 1437              	_ZN26HydroUnderwaterManipulator17setupGripperPortsERA2_h:
 1438              		.fnstart
 1439              	.LVL117:
ARM GAS  /tmp/ccgPptWl.s 			page 39


 1440              	.LFB447:
  32:User/HydroUnderwaterManipulator.cpp **** void HydroUnderwaterManipulator::setupGripperPorts(uint8_t (&ports)[2])
  33:User/HydroUnderwaterManipulator.cpp **** {
 1441              		.loc 3 33 1 is_stmt 1 view -0
 1442              		.cfi_startproc
 1443              		@ args = 0, pretend = 0, frame = 0
 1444              		@ frame_needed = 0, uses_anonymous_args = 0
 1445              		.loc 3 33 1 is_stmt 0 view .LVU517
 1446 0000 10B5     		push	{r4, lr}
 1447              		.save {r4, lr}
 1448              	.LCFI8:
 1449              		.cfi_def_cfa_offset 8
 1450              		.cfi_offset 4, -8
 1451              		.cfi_offset 14, -4
  34:User/HydroUnderwaterManipulator.cpp **** 	gripper.attachPWM(ports[0], ports[1]);
 1452              		.loc 3 34 2 is_stmt 1 view .LVU518
 1453              		.loc 3 34 19 is_stmt 0 view .LVU519
 1454 0002 00F53474 		add	r4, r0, #720
 1455 0006 4A78     		ldrb	r2, [r1, #1]	@ zero_extendqisi2
 1456 0008 0978     		ldrb	r1, [r1]	@ zero_extendqisi2
 1457              	.LVL118:
 1458              		.loc 3 34 19 view .LVU520
 1459 000a 2046     		mov	r0, r4
 1460              	.LVL119:
 1461              		.loc 3 34 19 view .LVU521
 1462 000c FFF7FEFF 		bl	_ZN7CHAMBER9attachPWMEii
 1463              	.LVL120:
  35:User/HydroUnderwaterManipulator.cpp **** 	gripper.writeOpening(0);
 1464              		.loc 3 35 2 is_stmt 1 view .LVU522
 1465              		.loc 3 35 22 is_stmt 0 view .LVU523
 1466 0010 0021     		movs	r1, #0
 1467 0012 2046     		mov	r0, r4
 1468 0014 FFF7FEFF 		bl	_ZN7CHAMBER12writeOpeningEs
 1469              	.LVL121:
  36:User/HydroUnderwaterManipulator.cpp **** }
 1470              		.loc 3 36 1 view .LVU524
 1471 0018 10BD     		pop	{r4, pc}
 1472              		.loc 3 36 1 view .LVU525
 1473              		.cfi_endproc
 1474              	.LFE447:
 1475              		.fnend
 1477              		.section	.text._ZN26HydroUnderwaterManipulator17setupPsourcePortsEhhh,"ax",%progbits
 1478              		.align	1
 1479              		.global	_ZN26HydroUnderwaterManipulator17setupPsourcePortsEhhh
 1480              		.syntax unified
 1481              		.thumb
 1482              		.thumb_func
 1483              		.fpu softvfp
 1485              	_ZN26HydroUnderwaterManipulator17setupPsourcePortsEhhh:
 1486              		.fnstart
 1487              	.LVL122:
 1488              	.LFB448:
  37:User/HydroUnderwaterManipulator.cpp **** void HydroUnderwaterManipulator::setupPsourcePorts(uint8_t pumpPort, uint8_t valvePort, uint8_t sen
  38:User/HydroUnderwaterManipulator.cpp **** {
 1489              		.loc 3 38 1 is_stmt 1 view -0
 1490              		.cfi_startproc
 1491              		@ args = 0, pretend = 0, frame = 0
ARM GAS  /tmp/ccgPptWl.s 			page 40


 1492              		@ frame_needed = 0, uses_anonymous_args = 0
 1493              		.loc 3 38 1 is_stmt 0 view .LVU527
 1494 0000 08B5     		push	{r3, lr}
 1495              		.save {r3, lr}
 1496              	.LCFI9:
 1497              		.cfi_def_cfa_offset 8
 1498              		.cfi_offset 3, -8
 1499              		.cfi_offset 14, -4
  39:User/HydroUnderwaterManipulator.cpp **** 	pSource.attach(pumpPort, valvePort, sensorPort);
 1500              		.loc 3 39 2 is_stmt 1 view .LVU528
 1501              		.loc 3 39 16 is_stmt 0 view .LVU529
 1502 0002 00F54370 		add	r0, r0, #780
 1503              	.LVL123:
 1504              		.loc 3 39 16 view .LVU530
 1505 0006 FFF7FEFF 		bl	_ZN15PRESSURE_SOURCE6attachEhhh
 1506              	.LVL124:
  40:User/HydroUnderwaterManipulator.cpp **** }
 1507              		.loc 3 40 1 view .LVU531
 1508 000a 08BD     		pop	{r3, pc}
 1509              		.cfi_endproc
 1510              	.LFE448:
 1511              		.fnend
 1513              		.section	.text._ZN26HydroUnderwaterManipulator15setupPsinkPortsEhhh,"ax",%progbits
 1514              		.align	1
 1515              		.global	_ZN26HydroUnderwaterManipulator15setupPsinkPortsEhhh
 1516              		.syntax unified
 1517              		.thumb
 1518              		.thumb_func
 1519              		.fpu softvfp
 1521              	_ZN26HydroUnderwaterManipulator15setupPsinkPortsEhhh:
 1522              		.fnstart
 1523              	.LVL125:
 1524              	.LFB449:
  41:User/HydroUnderwaterManipulator.cpp **** void HydroUnderwaterManipulator::setupPsinkPorts(uint8_t pumpPort, uint8_t valvePort, uint8_t senso
  42:User/HydroUnderwaterManipulator.cpp **** {
 1525              		.loc 3 42 1 is_stmt 1 view -0
 1526              		.cfi_startproc
 1527              		@ args = 0, pretend = 0, frame = 0
 1528              		@ frame_needed = 0, uses_anonymous_args = 0
 1529              		.loc 3 42 1 is_stmt 0 view .LVU533
 1530 0000 08B5     		push	{r3, lr}
 1531              		.save {r3, lr}
 1532              	.LCFI10:
 1533              		.cfi_def_cfa_offset 8
 1534              		.cfi_offset 3, -8
 1535              		.cfi_offset 14, -4
  43:User/HydroUnderwaterManipulator.cpp **** 	pSink.attach(pumpPort, valvePort, sensorPort);
 1536              		.loc 3 43 2 is_stmt 1 view .LVU534
 1537              		.loc 3 43 14 is_stmt 0 view .LVU535
 1538 0002 00F55070 		add	r0, r0, #832
 1539              	.LVL126:
 1540              		.loc 3 43 14 view .LVU536
 1541 0006 FFF7FEFF 		bl	_ZN15PRESSURE_SOURCE6attachEhhh
 1542              	.LVL127:
  44:User/HydroUnderwaterManipulator.cpp **** }
 1543              		.loc 3 44 1 view .LVU537
 1544 000a 08BD     		pop	{r3, pc}
ARM GAS  /tmp/ccgPptWl.s 			page 41


 1545              		.cfi_endproc
 1546              	.LFE449:
 1547              		.fnend
 1549              		.section	.text._ZN26HydroUnderwaterManipulator15control_pSourceEv,"ax",%progbits
 1550              		.align	1
 1551              		.global	_ZN26HydroUnderwaterManipulator15control_pSourceEv
 1552              		.syntax unified
 1553              		.thumb
 1554              		.thumb_func
 1555              		.fpu softvfp
 1557              	_ZN26HydroUnderwaterManipulator15control_pSourceEv:
 1558              		.fnstart
 1559              	.LVL128:
 1560              	.LFB450:
  45:User/HydroUnderwaterManipulator.cpp **** 
  46:User/HydroUnderwaterManipulator.cpp **** void HydroUnderwaterManipulator::control_pSource()
  47:User/HydroUnderwaterManipulator.cpp **** {
 1561              		.loc 3 47 1 is_stmt 1 view -0
 1562              		.cfi_startproc
 1563              		@ args = 0, pretend = 0, frame = 0
 1564              		@ frame_needed = 0, uses_anonymous_args = 0
 1565              		.loc 3 47 1 is_stmt 0 view .LVU539
 1566 0000 10B5     		push	{r4, lr}
 1567              		.save {r4, lr}
 1568              	.LCFI11:
 1569              		.cfi_def_cfa_offset 8
 1570              		.cfi_offset 4, -8
 1571              		.cfi_offset 14, -4
  48:User/HydroUnderwaterManipulator.cpp **** 	if (hostCommand.controlMode == OpeningControlMode)
 1572              		.loc 3 48 2 is_stmt 1 view .LVU540
 1573              		.loc 3 48 18 is_stmt 0 view .LVU541
 1574 0002 B0F90634 		ldrsh	r3, [r0, #1030]
 1575              		.loc 3 48 2 view .LVU542
 1576 0006 83BB     		cbnz	r3, .L68
  49:User/HydroUnderwaterManipulator.cpp **** 	{
  50:User/HydroUnderwaterManipulator.cpp **** 		//pumpIn = on and vavleIn = On, watch out the sequency
  51:User/HydroUnderwaterManipulator.cpp **** 		if (hostCommand.openingCmd_pSource_pump && hostCommand.openingCmd_pSource_valve)
 1577              		.loc 3 51 3 is_stmt 1 view .LVU543
 1578              		.loc 3 51 19 is_stmt 0 view .LVU544
 1579 0008 B0F93C34 		ldrsh	r3, [r0, #1084]
 1580              		.loc 3 51 3 view .LVU545
 1581 000c 13B1     		cbz	r3, .L69
 1582              		.loc 3 51 58 discriminator 1 view .LVU546
 1583 000e B0F93E24 		ldrsh	r2, [r0, #1086]
 1584              		.loc 3 51 43 discriminator 1 view .LVU547
 1585 0012 7AB9     		cbnz	r2, .L74
 1586              	.L69:
  52:User/HydroUnderwaterManipulator.cpp **** 		{
  53:User/HydroUnderwaterManipulator.cpp **** 			pSource.openValve();
  54:User/HydroUnderwaterManipulator.cpp **** 			pSource.startPump();
  55:User/HydroUnderwaterManipulator.cpp **** 		}
  56:User/HydroUnderwaterManipulator.cpp **** 
  57:User/HydroUnderwaterManipulator.cpp **** 		//pumpIn = off and vavleIn = Off;
  58:User/HydroUnderwaterManipulator.cpp **** 		else if ((!hostCommand.openingCmd_pSource_pump) && (!hostCommand.openingCmd_pSource_valve))
 1587              		.loc 3 58 8 is_stmt 1 view .LVU548
 1588              		.loc 3 58 51 is_stmt 0 view .LVU549
 1589 0014 D0F83C24 		ldr	r2, [r0, #1084]
ARM GAS  /tmp/ccgPptWl.s 			page 42


 1590              		.loc 3 58 8 view .LVU550
 1591 0018 AAB1     		cbz	r2, .L75
  59:User/HydroUnderwaterManipulator.cpp **** 		{
  60:User/HydroUnderwaterManipulator.cpp **** 			pSource.stopPump();
  61:User/HydroUnderwaterManipulator.cpp **** 			pSource.closeValve();
  62:User/HydroUnderwaterManipulator.cpp **** 		}
  63:User/HydroUnderwaterManipulator.cpp **** 		else if ((hostCommand.openingCmd_pSource_pump) && (!hostCommand.openingCmd_pSource_valve))
 1592              		.loc 3 63 8 is_stmt 1 view .LVU551
 1593 001a 13B1     		cbz	r3, .L72
 1594              		.loc 3 63 67 is_stmt 0 discriminator 1 view .LVU552
 1595 001c B0F93E34 		ldrsh	r3, [r0, #1086]
 1596              		.loc 3 63 50 discriminator 1 view .LVU553
 1597 0020 D3B1     		cbz	r3, .L76
 1598              	.L72:
  64:User/HydroUnderwaterManipulator.cpp **** 		{
  65:User/HydroUnderwaterManipulator.cpp **** 			pSource.startPump();
  66:User/HydroUnderwaterManipulator.cpp **** 			pSource.closeValve();
  67:User/HydroUnderwaterManipulator.cpp **** 		}
  68:User/HydroUnderwaterManipulator.cpp **** 		else
  69:User/HydroUnderwaterManipulator.cpp **** 		{
  70:User/HydroUnderwaterManipulator.cpp **** 			pSource.openValve();
 1599              		.loc 3 70 4 is_stmt 1 view .LVU554
 1600              		.loc 3 70 21 is_stmt 0 view .LVU555
 1601 0022 00F54374 		add	r4, r0, #780
 1602 0026 2046     		mov	r0, r4
 1603              	.LVL129:
 1604              		.loc 3 70 21 view .LVU556
 1605 0028 FFF7FEFF 		bl	_ZN15PRESSURE_SOURCE9openValveEv
 1606              	.LVL130:
  71:User/HydroUnderwaterManipulator.cpp **** 			pSource.stopPump();
 1607              		.loc 3 71 4 is_stmt 1 view .LVU557
 1608              		.loc 3 71 20 is_stmt 0 view .LVU558
 1609 002c 2046     		mov	r0, r4
 1610 002e FFF7FEFF 		bl	_ZN15PRESSURE_SOURCE8stopPumpEv
 1611              	.LVL131:
 1612 0032 1CE0     		b	.L67
 1613              	.LVL132:
 1614              	.L74:
  53:User/HydroUnderwaterManipulator.cpp **** 			pSource.startPump();
 1615              		.loc 3 53 4 is_stmt 1 view .LVU559
  53:User/HydroUnderwaterManipulator.cpp **** 			pSource.startPump();
 1616              		.loc 3 53 21 is_stmt 0 view .LVU560
 1617 0034 00F54374 		add	r4, r0, #780
 1618 0038 2046     		mov	r0, r4
 1619              	.LVL133:
  53:User/HydroUnderwaterManipulator.cpp **** 			pSource.startPump();
 1620              		.loc 3 53 21 view .LVU561
 1621 003a FFF7FEFF 		bl	_ZN15PRESSURE_SOURCE9openValveEv
 1622              	.LVL134:
  54:User/HydroUnderwaterManipulator.cpp **** 		}
 1623              		.loc 3 54 4 is_stmt 1 view .LVU562
  54:User/HydroUnderwaterManipulator.cpp **** 		}
 1624              		.loc 3 54 21 is_stmt 0 view .LVU563
 1625 003e 2046     		mov	r0, r4
 1626 0040 FFF7FEFF 		bl	_ZN15PRESSURE_SOURCE9startPumpEv
 1627              	.LVL135:
 1628 0044 13E0     		b	.L67
ARM GAS  /tmp/ccgPptWl.s 			page 43


 1629              	.LVL136:
 1630              	.L75:
  60:User/HydroUnderwaterManipulator.cpp **** 			pSource.closeValve();
 1631              		.loc 3 60 4 is_stmt 1 view .LVU564
  60:User/HydroUnderwaterManipulator.cpp **** 			pSource.closeValve();
 1632              		.loc 3 60 20 is_stmt 0 view .LVU565
 1633 0046 00F54374 		add	r4, r0, #780
 1634 004a 2046     		mov	r0, r4
 1635              	.LVL137:
  60:User/HydroUnderwaterManipulator.cpp **** 			pSource.closeValve();
 1636              		.loc 3 60 20 view .LVU566
 1637 004c FFF7FEFF 		bl	_ZN15PRESSURE_SOURCE8stopPumpEv
 1638              	.LVL138:
  61:User/HydroUnderwaterManipulator.cpp **** 		}
 1639              		.loc 3 61 4 is_stmt 1 view .LVU567
  61:User/HydroUnderwaterManipulator.cpp **** 		}
 1640              		.loc 3 61 22 is_stmt 0 view .LVU568
 1641 0050 2046     		mov	r0, r4
 1642 0052 FFF7FEFF 		bl	_ZN15PRESSURE_SOURCE10closeValveEv
 1643              	.LVL139:
 1644 0056 0AE0     		b	.L67
 1645              	.LVL140:
 1646              	.L76:
  65:User/HydroUnderwaterManipulator.cpp **** 			pSource.closeValve();
 1647              		.loc 3 65 4 is_stmt 1 view .LVU569
  65:User/HydroUnderwaterManipulator.cpp **** 			pSource.closeValve();
 1648              		.loc 3 65 21 is_stmt 0 view .LVU570
 1649 0058 00F54374 		add	r4, r0, #780
 1650 005c 2046     		mov	r0, r4
 1651              	.LVL141:
  65:User/HydroUnderwaterManipulator.cpp **** 			pSource.closeValve();
 1652              		.loc 3 65 21 view .LVU571
 1653 005e FFF7FEFF 		bl	_ZN15PRESSURE_SOURCE9startPumpEv
 1654              	.LVL142:
  66:User/HydroUnderwaterManipulator.cpp **** 		}
 1655              		.loc 3 66 4 is_stmt 1 view .LVU572
  66:User/HydroUnderwaterManipulator.cpp **** 		}
 1656              		.loc 3 66 22 is_stmt 0 view .LVU573
 1657 0062 2046     		mov	r0, r4
 1658 0064 FFF7FEFF 		bl	_ZN15PRESSURE_SOURCE10closeValveEv
 1659              	.LVL143:
 1660 0068 01E0     		b	.L67
 1661              	.LVL144:
 1662              	.L68:
  72:User/HydroUnderwaterManipulator.cpp **** 		}
  73:User/HydroUnderwaterManipulator.cpp **** 	}
  74:User/HydroUnderwaterManipulator.cpp **** 	else if (hostCommand.controlMode == PressureControlMode)
 1663              		.loc 3 74 7 is_stmt 1 view .LVU574
 1664 006a 012B     		cmp	r3, #1
 1665 006c 00D0     		beq	.L77
 1666              	.LVL145:
 1667              	.L67:
  75:User/HydroUnderwaterManipulator.cpp **** 	{
  76:User/HydroUnderwaterManipulator.cpp **** 		pSource.maintainPressure(hostCommand.pressureCmd_pSource);
  77:User/HydroUnderwaterManipulator.cpp **** 	}
  78:User/HydroUnderwaterManipulator.cpp **** }
 1668              		.loc 3 78 1 is_stmt 0 view .LVU575
ARM GAS  /tmp/ccgPptWl.s 			page 44


 1669 006e 10BD     		pop	{r4, pc}
 1670              	.LVL146:
 1671              	.L77:
  76:User/HydroUnderwaterManipulator.cpp **** 	}
 1672              		.loc 3 76 3 is_stmt 1 view .LVU576
  76:User/HydroUnderwaterManipulator.cpp **** 	}
 1673              		.loc 3 76 27 is_stmt 0 view .LVU577
 1674 0070 B0F95E14 		ldrsh	r1, [r0, #1118]
 1675 0074 00F54370 		add	r0, r0, #780
 1676              	.LVL147:
  76:User/HydroUnderwaterManipulator.cpp **** 	}
 1677              		.loc 3 76 27 view .LVU578
 1678 0078 FFF7FEFF 		bl	_ZN15PRESSURE_SOURCE16maintainPressureEl
 1679              	.LVL148:
 1680              		.loc 3 78 1 view .LVU579
 1681 007c F7E7     		b	.L67
 1682              		.cfi_endproc
 1683              	.LFE450:
 1684              		.fnend
 1686              		.section	.text._ZN26HydroUnderwaterManipulator13control_pSinkEv,"ax",%progbits
 1687              		.align	1
 1688              		.global	_ZN26HydroUnderwaterManipulator13control_pSinkEv
 1689              		.syntax unified
 1690              		.thumb
 1691              		.thumb_func
 1692              		.fpu softvfp
 1694              	_ZN26HydroUnderwaterManipulator13control_pSinkEv:
 1695              		.fnstart
 1696              	.LVL149:
 1697              	.LFB451:
  79:User/HydroUnderwaterManipulator.cpp **** void HydroUnderwaterManipulator::control_pSink()
  80:User/HydroUnderwaterManipulator.cpp **** {
 1698              		.loc 3 80 1 is_stmt 1 view -0
 1699              		.cfi_startproc
 1700              		@ args = 0, pretend = 0, frame = 0
 1701              		@ frame_needed = 0, uses_anonymous_args = 0
 1702              		.loc 3 80 1 is_stmt 0 view .LVU581
 1703 0000 10B5     		push	{r4, lr}
 1704              		.save {r4, lr}
 1705              	.LCFI12:
 1706              		.cfi_def_cfa_offset 8
 1707              		.cfi_offset 4, -8
 1708              		.cfi_offset 14, -4
  81:User/HydroUnderwaterManipulator.cpp **** 	if (hostCommand.controlMode == OpeningControlMode)
 1709              		.loc 3 81 2 is_stmt 1 view .LVU582
 1710              		.loc 3 81 18 is_stmt 0 view .LVU583
 1711 0002 B0F90634 		ldrsh	r3, [r0, #1030]
 1712              		.loc 3 81 2 view .LVU584
 1713 0006 83BB     		cbnz	r3, .L79
  82:User/HydroUnderwaterManipulator.cpp **** 	{
  83:User/HydroUnderwaterManipulator.cpp **** 		//pumpIn = on and vavleIn = On, watch out the sequency
  84:User/HydroUnderwaterManipulator.cpp **** 		if (hostCommand.openingCmd_pSink_pump && hostCommand.openingCmd_pSink_valve)
 1714              		.loc 3 84 3 is_stmt 1 view .LVU585
 1715              		.loc 3 84 19 is_stmt 0 view .LVU586
 1716 0008 B0F94034 		ldrsh	r3, [r0, #1088]
 1717              		.loc 3 84 3 view .LVU587
 1718 000c 13B1     		cbz	r3, .L80
ARM GAS  /tmp/ccgPptWl.s 			page 45


 1719              		.loc 3 84 56 discriminator 1 view .LVU588
 1720 000e B0F94224 		ldrsh	r2, [r0, #1090]
 1721              		.loc 3 84 41 discriminator 1 view .LVU589
 1722 0012 7AB9     		cbnz	r2, .L85
 1723              	.L80:
  85:User/HydroUnderwaterManipulator.cpp **** 		{
  86:User/HydroUnderwaterManipulator.cpp **** 			pSink.openValve();
  87:User/HydroUnderwaterManipulator.cpp **** 			pSink.startPump();
  88:User/HydroUnderwaterManipulator.cpp **** 		}
  89:User/HydroUnderwaterManipulator.cpp **** 
  90:User/HydroUnderwaterManipulator.cpp **** 		//pumpIn = off and vavleIn = Off;
  91:User/HydroUnderwaterManipulator.cpp **** 		else if ((!hostCommand.openingCmd_pSink_pump) && (!hostCommand.openingCmd_pSink_valve))
 1724              		.loc 3 91 8 is_stmt 1 view .LVU590
 1725              		.loc 3 91 49 is_stmt 0 view .LVU591
 1726 0014 D0F84024 		ldr	r2, [r0, #1088]
 1727              		.loc 3 91 8 view .LVU592
 1728 0018 AAB1     		cbz	r2, .L86
  92:User/HydroUnderwaterManipulator.cpp **** 		{
  93:User/HydroUnderwaterManipulator.cpp **** 			pSink.stopPump();
  94:User/HydroUnderwaterManipulator.cpp **** 			pSink.closeValve();
  95:User/HydroUnderwaterManipulator.cpp **** 		}
  96:User/HydroUnderwaterManipulator.cpp **** 		else if ((hostCommand.openingCmd_pSink_pump) && (!hostCommand.openingCmd_pSink_valve))
 1729              		.loc 3 96 8 is_stmt 1 view .LVU593
 1730 001a 13B1     		cbz	r3, .L83
 1731              		.loc 3 96 65 is_stmt 0 discriminator 1 view .LVU594
 1732 001c B0F94234 		ldrsh	r3, [r0, #1090]
 1733              		.loc 3 96 48 discriminator 1 view .LVU595
 1734 0020 D3B1     		cbz	r3, .L87
 1735              	.L83:
  97:User/HydroUnderwaterManipulator.cpp **** 		{
  98:User/HydroUnderwaterManipulator.cpp **** 			pSink.startPump();
  99:User/HydroUnderwaterManipulator.cpp **** 			pSink.closeValve();
 100:User/HydroUnderwaterManipulator.cpp **** 		}
 101:User/HydroUnderwaterManipulator.cpp **** 		else
 102:User/HydroUnderwaterManipulator.cpp **** 		{
 103:User/HydroUnderwaterManipulator.cpp **** 			pSink.openValve();
 1736              		.loc 3 103 4 is_stmt 1 view .LVU596
 1737              		.loc 3 103 19 is_stmt 0 view .LVU597
 1738 0022 00F55074 		add	r4, r0, #832
 1739 0026 2046     		mov	r0, r4
 1740              	.LVL150:
 1741              		.loc 3 103 19 view .LVU598
 1742 0028 FFF7FEFF 		bl	_ZN15PRESSURE_SOURCE9openValveEv
 1743              	.LVL151:
 104:User/HydroUnderwaterManipulator.cpp **** 			pSink.stopPump();
 1744              		.loc 3 104 4 is_stmt 1 view .LVU599
 1745              		.loc 3 104 18 is_stmt 0 view .LVU600
 1746 002c 2046     		mov	r0, r4
 1747 002e FFF7FEFF 		bl	_ZN15PRESSURE_SOURCE8stopPumpEv
 1748              	.LVL152:
 1749 0032 1CE0     		b	.L78
 1750              	.LVL153:
 1751              	.L85:
  86:User/HydroUnderwaterManipulator.cpp **** 			pSink.startPump();
 1752              		.loc 3 86 4 is_stmt 1 view .LVU601
  86:User/HydroUnderwaterManipulator.cpp **** 			pSink.startPump();
 1753              		.loc 3 86 19 is_stmt 0 view .LVU602
ARM GAS  /tmp/ccgPptWl.s 			page 46


 1754 0034 00F55074 		add	r4, r0, #832
 1755 0038 2046     		mov	r0, r4
 1756              	.LVL154:
  86:User/HydroUnderwaterManipulator.cpp **** 			pSink.startPump();
 1757              		.loc 3 86 19 view .LVU603
 1758 003a FFF7FEFF 		bl	_ZN15PRESSURE_SOURCE9openValveEv
 1759              	.LVL155:
  87:User/HydroUnderwaterManipulator.cpp **** 		}
 1760              		.loc 3 87 4 is_stmt 1 view .LVU604
  87:User/HydroUnderwaterManipulator.cpp **** 		}
 1761              		.loc 3 87 19 is_stmt 0 view .LVU605
 1762 003e 2046     		mov	r0, r4
 1763 0040 FFF7FEFF 		bl	_ZN15PRESSURE_SOURCE9startPumpEv
 1764              	.LVL156:
 1765 0044 13E0     		b	.L78
 1766              	.LVL157:
 1767              	.L86:
  93:User/HydroUnderwaterManipulator.cpp **** 			pSink.closeValve();
 1768              		.loc 3 93 4 is_stmt 1 view .LVU606
  93:User/HydroUnderwaterManipulator.cpp **** 			pSink.closeValve();
 1769              		.loc 3 93 18 is_stmt 0 view .LVU607
 1770 0046 00F55074 		add	r4, r0, #832
 1771 004a 2046     		mov	r0, r4
 1772              	.LVL158:
  93:User/HydroUnderwaterManipulator.cpp **** 			pSink.closeValve();
 1773              		.loc 3 93 18 view .LVU608
 1774 004c FFF7FEFF 		bl	_ZN15PRESSURE_SOURCE8stopPumpEv
 1775              	.LVL159:
  94:User/HydroUnderwaterManipulator.cpp **** 		}
 1776              		.loc 3 94 4 is_stmt 1 view .LVU609
  94:User/HydroUnderwaterManipulator.cpp **** 		}
 1777              		.loc 3 94 20 is_stmt 0 view .LVU610
 1778 0050 2046     		mov	r0, r4
 1779 0052 FFF7FEFF 		bl	_ZN15PRESSURE_SOURCE10closeValveEv
 1780              	.LVL160:
 1781 0056 0AE0     		b	.L78
 1782              	.LVL161:
 1783              	.L87:
  98:User/HydroUnderwaterManipulator.cpp **** 			pSink.closeValve();
 1784              		.loc 3 98 4 is_stmt 1 view .LVU611
  98:User/HydroUnderwaterManipulator.cpp **** 			pSink.closeValve();
 1785              		.loc 3 98 19 is_stmt 0 view .LVU612
 1786 0058 00F55074 		add	r4, r0, #832
 1787 005c 2046     		mov	r0, r4
 1788              	.LVL162:
  98:User/HydroUnderwaterManipulator.cpp **** 			pSink.closeValve();
 1789              		.loc 3 98 19 view .LVU613
 1790 005e FFF7FEFF 		bl	_ZN15PRESSURE_SOURCE9startPumpEv
 1791              	.LVL163:
  99:User/HydroUnderwaterManipulator.cpp **** 		}
 1792              		.loc 3 99 4 is_stmt 1 view .LVU614
  99:User/HydroUnderwaterManipulator.cpp **** 		}
 1793              		.loc 3 99 20 is_stmt 0 view .LVU615
 1794 0062 2046     		mov	r0, r4
 1795 0064 FFF7FEFF 		bl	_ZN15PRESSURE_SOURCE10closeValveEv
 1796              	.LVL164:
 1797 0068 01E0     		b	.L78
ARM GAS  /tmp/ccgPptWl.s 			page 47


 1798              	.LVL165:
 1799              	.L79:
 105:User/HydroUnderwaterManipulator.cpp **** 		}
 106:User/HydroUnderwaterManipulator.cpp **** 	}
 107:User/HydroUnderwaterManipulator.cpp **** 	else if (hostCommand.controlMode == PressureControlMode)
 1800              		.loc 3 107 7 is_stmt 1 view .LVU616
 1801 006a 012B     		cmp	r3, #1
 1802 006c 00D0     		beq	.L88
 1803              	.LVL166:
 1804              	.L78:
 108:User/HydroUnderwaterManipulator.cpp **** 	{
 109:User/HydroUnderwaterManipulator.cpp **** 		pSink.maintainPressure(hostCommand.pressureCmd_pSink);
 110:User/HydroUnderwaterManipulator.cpp **** 	}
 111:User/HydroUnderwaterManipulator.cpp **** }
 1805              		.loc 3 111 1 is_stmt 0 view .LVU617
 1806 006e 10BD     		pop	{r4, pc}
 1807              	.LVL167:
 1808              	.L88:
 109:User/HydroUnderwaterManipulator.cpp **** 	}
 1809              		.loc 3 109 3 is_stmt 1 view .LVU618
 109:User/HydroUnderwaterManipulator.cpp **** 	}
 1810              		.loc 3 109 25 is_stmt 0 view .LVU619
 1811 0070 B0F96014 		ldrsh	r1, [r0, #1120]
 1812 0074 00F55070 		add	r0, r0, #832
 1813              	.LVL168:
 109:User/HydroUnderwaterManipulator.cpp **** 	}
 1814              		.loc 3 109 25 view .LVU620
 1815 0078 FFF7FEFF 		bl	_ZN15PRESSURE_SOURCE16maintainPressureEl
 1816              	.LVL169:
 1817              		.loc 3 111 1 view .LVU621
 1818 007c F7E7     		b	.L78
 1819              		.cfi_endproc
 1820              	.LFE451:
 1821              		.fnend
 1823              		.section	.text._ZN26HydroUnderwaterManipulator15control_gripperEv,"ax",%progbits
 1824              		.align	1
 1825              		.global	_ZN26HydroUnderwaterManipulator15control_gripperEv
 1826              		.syntax unified
 1827              		.thumb
 1828              		.thumb_func
 1829              		.fpu softvfp
 1831              	_ZN26HydroUnderwaterManipulator15control_gripperEv:
 1832              		.fnstart
 1833              	.LVL170:
 1834              	.LFB452:
 112:User/HydroUnderwaterManipulator.cpp **** 
 113:User/HydroUnderwaterManipulator.cpp **** void HydroUnderwaterManipulator::control_gripper()
 114:User/HydroUnderwaterManipulator.cpp **** {
 1835              		.loc 3 114 1 is_stmt 1 view -0
 1836              		.cfi_startproc
 1837              		@ args = 0, pretend = 0, frame = 0
 1838              		@ frame_needed = 0, uses_anonymous_args = 0
 1839              		.loc 3 114 1 is_stmt 0 view .LVU623
 1840 0000 10B5     		push	{r4, lr}
 1841              		.save {r4, lr}
 1842              	.LCFI13:
 1843              		.cfi_def_cfa_offset 8
ARM GAS  /tmp/ccgPptWl.s 			page 48


 1844              		.cfi_offset 4, -8
 1845              		.cfi_offset 14, -4
 1846 0002 0446     		mov	r4, r0
 115:User/HydroUnderwaterManipulator.cpp **** 	// if (hostCommand.controlMode == OpeningControlMode)
 116:User/HydroUnderwaterManipulator.cpp **** 	// {
 117:User/HydroUnderwaterManipulator.cpp **** 	gripper.valves[0].writeDuty(hostCommand.openingCmd_gripper[0]);
 1847              		.loc 3 117 2 is_stmt 1 view .LVU624
 1848              		.loc 3 117 29 is_stmt 0 view .LVU625
 1849 0004 B0F93814 		ldrsh	r1, [r0, #1080]
 1850 0008 00F53470 		add	r0, r0, #720
 1851              	.LVL171:
 1852              		.loc 3 117 29 view .LVU626
 1853 000c FFF7FEFF 		bl	_ZN14SOLENOID_VALVE9writeDutyEs
 1854              	.LVL172:
 118:User/HydroUnderwaterManipulator.cpp **** 	gripper.valves[1].writeDuty(hostCommand.openingCmd_gripper[1]);
 1855              		.loc 3 118 2 is_stmt 1 view .LVU627
 1856              		.loc 3 118 29 is_stmt 0 view .LVU628
 1857 0010 B4F93A14 		ldrsh	r1, [r4, #1082]
 1858 0014 04F2DA20 		addw	r0, r4, #730
 1859 0018 FFF7FEFF 		bl	_ZN14SOLENOID_VALVE9writeDutyEs
 1860              	.LVL173:
 119:User/HydroUnderwaterManipulator.cpp **** 	// }
 120:User/HydroUnderwaterManipulator.cpp **** 	// else if (hostCommand.controlMode == PressureControlMode)
 121:User/HydroUnderwaterManipulator.cpp **** 	// {
 122:User/HydroUnderwaterManipulator.cpp **** 	// }
 123:User/HydroUnderwaterManipulator.cpp **** }
 1861              		.loc 3 123 1 view .LVU629
 1862 001c 10BD     		pop	{r4, pc}
 1863              		.loc 3 123 1 view .LVU630
 1864              		.cfi_endproc
 1865              	.LFE452:
 1866              		.fnend
 1868              		.section	.text._ZN26HydroUnderwaterManipulator17control_actuatorsEv,"ax",%progbits
 1869              		.align	1
 1870              		.global	_ZN26HydroUnderwaterManipulator17control_actuatorsEv
 1871              		.syntax unified
 1872              		.thumb
 1873              		.thumb_func
 1874              		.fpu softvfp
 1876              	_ZN26HydroUnderwaterManipulator17control_actuatorsEv:
 1877              		.fnstart
 1878              	.LVL174:
 1879              	.LFB453:
 124:User/HydroUnderwaterManipulator.cpp **** 
 125:User/HydroUnderwaterManipulator.cpp **** void HydroUnderwaterManipulator::control_actuators()
 126:User/HydroUnderwaterManipulator.cpp **** {
 1880              		.loc 3 126 1 is_stmt 1 view -0
 1881              		.cfi_startproc
 1882              		@ args = 0, pretend = 0, frame = 0
 1883              		@ frame_needed = 0, uses_anonymous_args = 0
 1884              		.loc 3 126 1 is_stmt 0 view .LVU632
 1885 0000 2DE9F041 		push	{r4, r5, r6, r7, r8, lr}
 1886              		.save {r4, r5, r6, r7, r8, lr}
 1887              	.LCFI14:
 1888              		.cfi_def_cfa_offset 24
 1889              		.cfi_offset 4, -24
 1890              		.cfi_offset 5, -20
ARM GAS  /tmp/ccgPptWl.s 			page 49


 1891              		.cfi_offset 6, -16
 1892              		.cfi_offset 7, -12
 1893              		.cfi_offset 8, -8
 1894              		.cfi_offset 14, -4
 1895 0004 0746     		mov	r7, r0
 127:User/HydroUnderwaterManipulator.cpp **** 	for (int i = 0; i < SEGNUM; i++)
 1896              		.loc 3 127 2 is_stmt 1 view .LVU633
 1897              	.LVL175:
 1898              	.LBB95:
 1899              		.loc 3 127 11 is_stmt 0 view .LVU634
 1900 0006 4FF00008 		mov	r8, #0
 1901 000a 1FE0     		b	.L95
 1902              	.LVL176:
 1903              	.L97:
 1904              	.LBB96:
 128:User/HydroUnderwaterManipulator.cpp **** 	{
 129:User/HydroUnderwaterManipulator.cpp **** 		for (int j = 0; j < ACTNUM; j++)
 130:User/HydroUnderwaterManipulator.cpp **** 		{
 131:User/HydroUnderwaterManipulator.cpp **** 			//if (hostCommand.controlMode == OpeningControlMode)
 132:User/HydroUnderwaterManipulator.cpp **** 			//{
 133:User/HydroUnderwaterManipulator.cpp **** 			actuators[i][j].valves[0].writeDuty(hostCommand.openingCmd_actuators[i][j][0]);
 1905              		.loc 3 133 4 is_stmt 1 discriminator 2 view .LVU635
 1906              		.loc 3 133 39 is_stmt 0 discriminator 2 view .LVU636
 1907 000c 05EB8806 		add	r6, r5, r8, lsl #2
 1908 0010 06F58073 		add	r3, r6, #256
 1909 0014 07EB8303 		add	r3, r7, r3, lsl #2
 1910 0018 C5EB0510 		rsb	r0, r5, r5, lsl #4
 1911 001c C8EB0814 		rsb	r4, r8, r8, lsl #4
 1912 0020 2401     		lsls	r4, r4, #4
 1913 0022 04EB8004 		add	r4, r4, r0, lsl #2
 1914 0026 B3F90810 		ldrsh	r1, [r3, #8]
 1915 002a 3819     		adds	r0, r7, r4
 1916 002c FFF7FEFF 		bl	_ZN14SOLENOID_VALVE9writeDutyEs
 1917              	.LVL177:
 134:User/HydroUnderwaterManipulator.cpp **** 			actuators[i][j].valves[1].writeDuty(hostCommand.openingCmd_actuators[i][j][1]);
 1918              		.loc 3 134 4 is_stmt 1 discriminator 2 view .LVU637
 1919              		.loc 3 134 39 is_stmt 0 discriminator 2 view .LVU638
 1920 0030 07EB8606 		add	r6, r7, r6, lsl #2
 1921 0034 04F10A00 		add	r0, r4, #10
 1922 0038 B6F90A14 		ldrsh	r1, [r6, #1034]
 1923 003c 3844     		add	r0, r0, r7
 1924 003e FFF7FEFF 		bl	_ZN14SOLENOID_VALVE9writeDutyEs
 1925              	.LVL178:
 129:User/HydroUnderwaterManipulator.cpp **** 		{
 1926              		.loc 3 129 3 is_stmt 1 discriminator 2 view .LVU639
 1927 0042 0135     		adds	r5, r5, #1
 1928              	.LVL179:
 1929              	.L94:
 129:User/HydroUnderwaterManipulator.cpp **** 		{
 1930              		.loc 3 129 21 discriminator 3 view .LVU640
 1931 0044 032D     		cmp	r5, #3
 1932 0046 E1DD     		ble	.L97
 1933              	.LBE96:
 127:User/HydroUnderwaterManipulator.cpp **** 	{
 1934              		.loc 3 127 2 discriminator 2 view .LVU641
 1935 0048 08F10108 		add	r8, r8, #1
 1936              	.LVL180:
ARM GAS  /tmp/ccgPptWl.s 			page 50


 1937              	.L95:
 127:User/HydroUnderwaterManipulator.cpp **** 	{
 1938              		.loc 3 127 20 discriminator 1 view .LVU642
 1939 004c B8F1020F 		cmp	r8, #2
 1940 0050 01DC     		bgt	.L91
 1941              	.LBB97:
 129:User/HydroUnderwaterManipulator.cpp **** 		{
 1942              		.loc 3 129 12 is_stmt 0 view .LVU643
 1943 0052 0025     		movs	r5, #0
 1944 0054 F6E7     		b	.L94
 1945              	.L91:
 1946              	.LBE97:
 1947              	.LBE95:
 135:User/HydroUnderwaterManipulator.cpp **** 			//}
 136:User/HydroUnderwaterManipulator.cpp **** 			// else
 137:User/HydroUnderwaterManipulator.cpp **** 			// {
 138:User/HydroUnderwaterManipulator.cpp **** 			// 	hostCommand.pressureCmd_actuators[SEGNUM][ACTNUM] = hostCommand.actuatorCommand[(i * ACTNUM 
 139:User/HydroUnderwaterManipulator.cpp **** 			// }
 140:User/HydroUnderwaterManipulator.cpp **** 		}
 141:User/HydroUnderwaterManipulator.cpp **** 	}
 142:User/HydroUnderwaterManipulator.cpp **** }
 1948              		.loc 3 142 1 view .LVU644
 1949 0056 BDE8F081 		pop	{r4, r5, r6, r7, r8, pc}
 1950              		.loc 3 142 1 view .LVU645
 1951              		.cfi_endproc
 1952              	.LFE453:
 1953              		.fnend
 1955              		.section	.text._ZN26HydroUnderwaterManipulator13decodeCommandEv,"ax",%progbits
 1956              		.align	1
 1957              		.global	_ZN26HydroUnderwaterManipulator13decodeCommandEv
 1958              		.syntax unified
 1959              		.thumb
 1960              		.thumb_func
 1961              		.fpu softvfp
 1963              	_ZN26HydroUnderwaterManipulator13decodeCommandEv:
 1964              		.fnstart
 1965              	.LVL181:
 1966              	.LFB454:
 143:User/HydroUnderwaterManipulator.cpp **** 
 144:User/HydroUnderwaterManipulator.cpp **** void HydroUnderwaterManipulator::decodeCommand()
 145:User/HydroUnderwaterManipulator.cpp **** {
 1967              		.loc 3 145 1 is_stmt 1 view -0
 1968              		.cfi_startproc
 1969              		@ args = 0, pretend = 0, frame = 0
 1970              		@ frame_needed = 0, uses_anonymous_args = 0
 1971              		.loc 3 145 1 is_stmt 0 view .LVU647
 1972 0000 10B5     		push	{r4, lr}
 1973              	.LCFI15:
 1974              		.cfi_def_cfa_offset 8
 1975              		.cfi_offset 4, -8
 1976              		.cfi_offset 14, -4
 146:User/HydroUnderwaterManipulator.cpp **** 
 147:User/HydroUnderwaterManipulator.cpp **** 	hostCommand.controlMode = __GET_BIT(hostCommand.controlModeCommand, PRESSURE_CONTROL_MASK);
 1977              		.loc 3 147 2 is_stmt 1 view .LVU648
 1978              		.loc 3 147 28 is_stmt 0 view .LVU649
 1979 0002 B0F9D843 		ldrsh	r4, [r0, #984]
 1980 0006 04F00104 		and	r4, r4, #1
ARM GAS  /tmp/ccgPptWl.s 			page 51


 1981              		.loc 3 147 26 view .LVU650
 1982 000a A0F80644 		strh	r4, [r0, #1030]	@ movhi
 148:User/HydroUnderwaterManipulator.cpp **** 
 149:User/HydroUnderwaterManipulator.cpp **** 	//decode actuator command, no implementation of pressure control yet
 150:User/HydroUnderwaterManipulator.cpp **** 	for (int i = 0; i < SEGNUM; i++)
 1983              		.loc 3 150 2 is_stmt 1 view .LVU651
 1984              	.LVL182:
 1985              	.LBB98:
 1986              		.loc 3 150 11 is_stmt 0 view .LVU652
 1987 000e 4FF0000E 		mov	lr, #0
 1988 0012 14E0     		b	.L102
 1989              	.LVL183:
 1990              	.L108:
 1991              	.LBB99:
 151:User/HydroUnderwaterManipulator.cpp **** 	{
 152:User/HydroUnderwaterManipulator.cpp **** 		for (int j = 0; j < ACTNUM; j++)
 153:User/HydroUnderwaterManipulator.cpp **** 		{
 154:User/HydroUnderwaterManipulator.cpp **** 			//if (hostCommand.controlMode == OpeningControlMode)
 155:User/HydroUnderwaterManipulator.cpp **** 			//{
 156:User/HydroUnderwaterManipulator.cpp **** 			hostCommand.openingCmd_actuators[SEGNUM][ACTNUM][0] = __GET_BIT(hostCommand.actuatorCommand[i * 
 1992              		.loc 3 156 4 is_stmt 1 discriminator 2 view .LVU653
 1993              		.loc 3 156 58 is_stmt 0 discriminator 2 view .LVU654
 1994 0014 D0F8E413 		ldr	r1, [r0, #996]
 1995 0018 03EB8E0C 		add	ip, r3, lr, lsl #2
 1996 001c 31F91C20 		ldrsh	r2, [r1, ip, lsl #1]
 1997 0020 02F00102 		and	r2, r2, #1
 1998              		.loc 3 156 56 discriminator 2 view .LVU655
 1999 0024 A0F84824 		strh	r2, [r0, #1096]	@ movhi
 157:User/HydroUnderwaterManipulator.cpp **** 			hostCommand.openingCmd_actuators[SEGNUM][ACTNUM][1] = __GET_BIT(hostCommand.actuatorCommand[i * 
 2000              		.loc 3 157 4 is_stmt 1 discriminator 2 view .LVU656
 2001              		.loc 3 157 58 is_stmt 0 discriminator 2 view .LVU657
 2002 0028 31F91C20 		ldrsh	r2, [r1, ip, lsl #1]
 2003 002c C2F34002 		ubfx	r2, r2, #1, #1
 2004              		.loc 3 157 56 discriminator 2 view .LVU658
 2005 0030 A0F84A24 		strh	r2, [r0, #1098]	@ movhi
 152:User/HydroUnderwaterManipulator.cpp **** 		{
 2006              		.loc 3 152 3 is_stmt 1 discriminator 2 view .LVU659
 2007 0034 0133     		adds	r3, r3, #1
 2008              	.LVL184:
 2009              	.L101:
 152:User/HydroUnderwaterManipulator.cpp **** 		{
 2010              		.loc 3 152 21 discriminator 3 view .LVU660
 2011 0036 032B     		cmp	r3, #3
 2012 0038 ECDD     		ble	.L108
 2013              	.LBE99:
 150:User/HydroUnderwaterManipulator.cpp **** 	{
 2014              		.loc 3 150 2 discriminator 2 view .LVU661
 2015 003a 0EF1010E 		add	lr, lr, #1
 2016              	.LVL185:
 2017              	.L102:
 150:User/HydroUnderwaterManipulator.cpp **** 	{
 2018              		.loc 3 150 20 discriminator 1 view .LVU662
 2019 003e BEF1020F 		cmp	lr, #2
 2020 0042 01DC     		bgt	.L99
 2021              	.LBB100:
 152:User/HydroUnderwaterManipulator.cpp **** 		{
 2022              		.loc 3 152 12 is_stmt 0 view .LVU663
ARM GAS  /tmp/ccgPptWl.s 			page 52


 2023 0044 0023     		movs	r3, #0
 2024 0046 F6E7     		b	.L101
 2025              	.L99:
 2026              	.LBE100:
 2027              	.LBE98:
 158:User/HydroUnderwaterManipulator.cpp **** 			//}
 159:User/HydroUnderwaterManipulator.cpp **** 			// else
 160:User/HydroUnderwaterManipulator.cpp **** 			// {
 161:User/HydroUnderwaterManipulator.cpp **** 			// 	hostCommand.pressureCmd_actuators[SEGNUM][ACTNUM] = hostCommand.actuatorCommand[(i * ACTNUM 
 162:User/HydroUnderwaterManipulator.cpp **** 			// }
 163:User/HydroUnderwaterManipulator.cpp **** 		}
 164:User/HydroUnderwaterManipulator.cpp **** 	}
 165:User/HydroUnderwaterManipulator.cpp **** 
 166:User/HydroUnderwaterManipulator.cpp **** 	//decode gripper command, no implementation of pressure control yet
 167:User/HydroUnderwaterManipulator.cpp **** 	//if (hostCommand.controlMode == OpeningControlMode)
 168:User/HydroUnderwaterManipulator.cpp **** 	//{
 169:User/HydroUnderwaterManipulator.cpp **** 	hostCommand.openingCmd_gripper[0] = __GET_BIT(hostCommand.gripperCommand, GRIPPER_IN_VALVE_MASK);
 2028              		.loc 3 169 2 is_stmt 1 view .LVU664
 2029              		.loc 3 169 38 is_stmt 0 view .LVU665
 2030 0048 B0F9E833 		ldrsh	r3, [r0, #1000]
 2031 004c 03F00102 		and	r2, r3, #1
 2032              		.loc 3 169 36 view .LVU666
 2033 0050 A0F83824 		strh	r2, [r0, #1080]	@ movhi
 170:User/HydroUnderwaterManipulator.cpp **** 	hostCommand.openingCmd_gripper[1] = __GET_BIT(hostCommand.gripperCommand, GRIPPER_OUT_VALVE_MASK);
 2034              		.loc 3 170 2 is_stmt 1 view .LVU667
 2035              		.loc 3 170 38 is_stmt 0 view .LVU668
 2036 0054 C3F34003 		ubfx	r3, r3, #1, #1
 2037              		.loc 3 170 36 view .LVU669
 2038 0058 A0F83A34 		strh	r3, [r0, #1082]	@ movhi
 171:User/HydroUnderwaterManipulator.cpp **** 	//}
 172:User/HydroUnderwaterManipulator.cpp **** 	// else
 173:User/HydroUnderwaterManipulator.cpp **** 	// {
 174:User/HydroUnderwaterManipulator.cpp **** 	// 	hostCommand.pressureCmd_gripper = hostCommand.gripperCommand;
 175:User/HydroUnderwaterManipulator.cpp **** 	// }
 176:User/HydroUnderwaterManipulator.cpp **** 
 177:User/HydroUnderwaterManipulator.cpp **** 	//decode pSource command
 178:User/HydroUnderwaterManipulator.cpp **** 	if (hostCommand.controlMode == OpeningControlMode)
 2039              		.loc 3 178 2 is_stmt 1 view .LVU670
 2040 005c ACB9     		cbnz	r4, .L103
 179:User/HydroUnderwaterManipulator.cpp **** 	{
 180:User/HydroUnderwaterManipulator.cpp **** 		hostCommand.openingCmd_pSource_pump = __GET_BIT(hostCommand.pSourceCommand, PSOURCE_IN_PUMP_MASK)
 2041              		.loc 3 180 3 view .LVU671
 2042              		.loc 3 180 41 is_stmt 0 view .LVU672
 2043 005e B0F9EA33 		ldrsh	r3, [r0, #1002]
 2044 0062 C3F34002 		ubfx	r2, r3, #1, #1
 2045              		.loc 3 180 39 view .LVU673
 2046 0066 A0F83C24 		strh	r2, [r0, #1084]	@ movhi
 181:User/HydroUnderwaterManipulator.cpp **** 		hostCommand.openingCmd_pSource_valve = __GET_BIT(hostCommand.pSourceCommand, PSOURCE_IN_VALVE_MAS
 2047              		.loc 3 181 3 is_stmt 1 view .LVU674
 2048              		.loc 3 181 42 is_stmt 0 view .LVU675
 2049 006a 03F00103 		and	r3, r3, #1
 2050              		.loc 3 181 40 view .LVU676
 2051 006e A0F83E34 		strh	r3, [r0, #1086]	@ movhi
 2052              	.L104:
 182:User/HydroUnderwaterManipulator.cpp **** 	}
 183:User/HydroUnderwaterManipulator.cpp **** 	else
 184:User/HydroUnderwaterManipulator.cpp **** 	{
ARM GAS  /tmp/ccgPptWl.s 			page 53


 185:User/HydroUnderwaterManipulator.cpp **** 		hostCommand.pressureCmd_pSource = hostCommand.pSourceCommand;
 186:User/HydroUnderwaterManipulator.cpp **** 	}
 187:User/HydroUnderwaterManipulator.cpp **** 
 188:User/HydroUnderwaterManipulator.cpp **** 	//decode pSink command
 189:User/HydroUnderwaterManipulator.cpp **** 	if (hostCommand.controlMode == OpeningControlMode)
 2053              		.loc 3 189 2 is_stmt 1 view .LVU677
 2054 0072 7CB9     		cbnz	r4, .L105
 190:User/HydroUnderwaterManipulator.cpp **** 	{
 191:User/HydroUnderwaterManipulator.cpp **** 		hostCommand.openingCmd_pSink_pump = __GET_BIT(hostCommand.pSinkCommand, PSINK_OUT_PUMP_MASK);
 2055              		.loc 3 191 3 view .LVU678
 2056              		.loc 3 191 39 is_stmt 0 view .LVU679
 2057 0074 B0F9EC33 		ldrsh	r3, [r0, #1004]
 2058 0078 C3F34002 		ubfx	r2, r3, #1, #1
 2059              		.loc 3 191 37 view .LVU680
 2060 007c A0F84024 		strh	r2, [r0, #1088]	@ movhi
 192:User/HydroUnderwaterManipulator.cpp **** 		hostCommand.openingCmd_pSink_valve = __GET_BIT(hostCommand.pSinkCommand, PSINK_OUT_VALVE_MASK);
 2061              		.loc 3 192 3 is_stmt 1 view .LVU681
 2062              		.loc 3 192 40 is_stmt 0 view .LVU682
 2063 0080 03F00103 		and	r3, r3, #1
 2064              		.loc 3 192 38 view .LVU683
 2065 0084 A0F84234 		strh	r3, [r0, #1090]	@ movhi
 2066              	.L98:
 193:User/HydroUnderwaterManipulator.cpp **** 	}
 194:User/HydroUnderwaterManipulator.cpp **** 	else
 195:User/HydroUnderwaterManipulator.cpp **** 	{
 196:User/HydroUnderwaterManipulator.cpp **** 		hostCommand.pressureCmd_pSink = hostCommand.pSinkCommand;
 197:User/HydroUnderwaterManipulator.cpp **** 	}
 198:User/HydroUnderwaterManipulator.cpp **** }
 2067              		.loc 3 198 1 view .LVU684
 2068 0088 10BD     		pop	{r4, pc}
 2069              	.L103:
 185:User/HydroUnderwaterManipulator.cpp **** 	}
 2070              		.loc 3 185 3 is_stmt 1 view .LVU685
 185:User/HydroUnderwaterManipulator.cpp **** 	}
 2071              		.loc 3 185 49 is_stmt 0 view .LVU686
 2072 008a B0F9EA33 		ldrsh	r3, [r0, #1002]
 185:User/HydroUnderwaterManipulator.cpp **** 	}
 2073              		.loc 3 185 35 view .LVU687
 2074 008e A0F85E34 		strh	r3, [r0, #1118]	@ movhi
 2075 0092 EEE7     		b	.L104
 2076              	.L105:
 196:User/HydroUnderwaterManipulator.cpp **** 	}
 2077              		.loc 3 196 3 is_stmt 1 view .LVU688
 196:User/HydroUnderwaterManipulator.cpp **** 	}
 2078              		.loc 3 196 47 is_stmt 0 view .LVU689
 2079 0094 B0F9EC33 		ldrsh	r3, [r0, #1004]
 196:User/HydroUnderwaterManipulator.cpp **** 	}
 2080              		.loc 3 196 33 view .LVU690
 2081 0098 A0F86034 		strh	r3, [r0, #1120]	@ movhi
 2082              		.loc 3 198 1 view .LVU691
 2083 009c F4E7     		b	.L98
 2084              		.cfi_endproc
 2085              	.LFE454:
 2086              		.cantunwind
 2087              		.fnend
 2089              		.section	.text._ZN26HydroUnderwaterManipulator12encodeStatusEv,"ax",%progbits
 2090              		.align	1
ARM GAS  /tmp/ccgPptWl.s 			page 54


 2091              		.global	_ZN26HydroUnderwaterManipulator12encodeStatusEv
 2092              		.syntax unified
 2093              		.thumb
 2094              		.thumb_func
 2095              		.fpu softvfp
 2097              	_ZN26HydroUnderwaterManipulator12encodeStatusEv:
 2098              		.fnstart
 2099              	.LVL186:
 2100              	.LFB455:
 199:User/HydroUnderwaterManipulator.cpp **** 
 200:User/HydroUnderwaterManipulator.cpp **** void HydroUnderwaterManipulator::encodeStatus()
 201:User/HydroUnderwaterManipulator.cpp **** {
 2101              		.loc 3 201 1 is_stmt 1 view -0
 2102              		.cfi_startproc
 2103              		@ args = 0, pretend = 0, frame = 0
 2104              		@ frame_needed = 0, uses_anonymous_args = 0
 2105              		.loc 3 201 1 is_stmt 0 view .LVU693
 2106 0000 10B5     		push	{r4, lr}
 2107              	.LCFI16:
 2108              		.cfi_def_cfa_offset 8
 2109              		.cfi_offset 4, -8
 2110              		.cfi_offset 14, -4
 202:User/HydroUnderwaterManipulator.cpp **** 	manipulatorStatus.controlModeStatus = hostCommand.controlMode;
 2111              		.loc 3 202 2 is_stmt 1 view .LVU694
 2112              		.loc 3 202 52 is_stmt 0 view .LVU695
 2113 0002 B0F90644 		ldrsh	r4, [r0, #1030]
 2114              		.loc 3 202 38 view .LVU696
 2115 0006 A0F87843 		strh	r4, [r0, #888]	@ movhi
 203:User/HydroUnderwaterManipulator.cpp **** 
 204:User/HydroUnderwaterManipulator.cpp **** 	//decode actuator command, no implementation of pressure control yet
 205:User/HydroUnderwaterManipulator.cpp **** 	for (int i = 0; i < SEGNUM; i++)
 2116              		.loc 3 205 2 is_stmt 1 view .LVU697
 2117              	.LVL187:
 2118              	.LBB101:
 2119              		.loc 3 205 11 is_stmt 0 view .LVU698
 2120 000a 4FF0000C 		mov	ip, #0
 2121 000e 27E0     		b	.L114
 2122              	.LVL188:
 2123              	.L112:
 2124              	.LBB102:
 2125              	.LBB103:
 2126              	.LBI103:
 2127              		.file 6 "User/Inc/SOLENOIDVALVE.h"
   1:User/Inc/SOLENOIDVALVE.h **** /*
   2:User/Inc/SOLENOIDVALVE.h ****  * SOLENOIDVALVE.h
   3:User/Inc/SOLENOIDVALVE.h ****  *
   4:User/Inc/SOLENOIDVALVE.h ****  *  Created on: Jun 15, 2018
   5:User/Inc/SOLENOIDVALVE.h ****  *      Author: Xiaojiao Chen
   6:User/Inc/SOLENOIDVALVE.h ****  *		 Email: chen2014@connect.hku.hk
   7:User/Inc/SOLENOIDVALVE.h ****  *	Laboratory: Bio-Control Lab
   8:User/Inc/SOLENOIDVALVE.h ****  * Orgnization: the University of Hong Kong
   9:User/Inc/SOLENOIDVALVE.h ****  */
  10:User/Inc/SOLENOIDVALVE.h **** 
  11:User/Inc/SOLENOIDVALVE.h **** #ifndef SOLENOIDVALVE_H_
  12:User/Inc/SOLENOIDVALVE.h **** #define SOLENOIDVALVE_H_
  13:User/Inc/SOLENOIDVALVE.h **** #ifdef __cplusplus
  14:User/Inc/SOLENOIDVALVE.h **** extern "C" {
ARM GAS  /tmp/ccgPptWl.s 			page 55


  15:User/Inc/SOLENOIDVALVE.h **** #endif
  16:User/Inc/SOLENOIDVALVE.h **** #include  <inttypes.h>
  17:User/Inc/SOLENOIDVALVE.h **** #define PWM_DIGITAL_OUTPUT_REVERSED 1
  18:User/Inc/SOLENOIDVALVE.h **** 
  19:User/Inc/SOLENOIDVALVE.h **** class SOLENOID_VALVE {
  20:User/Inc/SOLENOIDVALVE.h **** public:
  21:User/Inc/SOLENOIDVALVE.h **** 	SOLENOID_VALVE(uint8_t num=0);
  22:User/Inc/SOLENOIDVALVE.h **** 	void attach(uint8_t num);
  23:User/Inc/SOLENOIDVALVE.h **** 
  24:User/Inc/SOLENOIDVALVE.h **** 	void writeDuty(int16_t dut);
  25:User/Inc/SOLENOIDVALVE.h **** 
  26:User/Inc/SOLENOIDVALVE.h **** 	int16_t getDuty(){return duty;};
 2128              		.loc 6 26 10 is_stmt 1 discriminator 4 view .LVU699
 2129              	.LBB104:
 2130              		.loc 6 26 20 discriminator 4 view .LVU700
 2131              		.loc 6 26 27 is_stmt 0 discriminator 4 view .LVU701
 2132 0010 C3EB031E 		rsb	lr, r3, r3, lsl #4
 2133 0014 CCEB0C12 		rsb	r2, ip, ip, lsl #4
 2134 0018 1201     		lsls	r2, r2, #4
 2135 001a 02EB8E02 		add	r2, r2, lr, lsl #2
 2136 001e 0244     		add	r2, r2, r0
 2137 0020 B2F90C20 		ldrsh	r2, [r2, #12]
 2138              	.LVL189:
 2139              		.loc 6 26 27 discriminator 4 view .LVU702
 2140              	.LBE104:
 2141              	.LBE103:
 206:User/HydroUnderwaterManipulator.cpp **** 	{
 207:User/HydroUnderwaterManipulator.cpp **** 		for (int j = 0; j < ACTNUM; j++)
 208:User/HydroUnderwaterManipulator.cpp **** 		{
 209:User/HydroUnderwaterManipulator.cpp **** 			//if (hostCommand.controlMode == OpeningControlMode)
 210:User/HydroUnderwaterManipulator.cpp **** 			//{
 211:User/HydroUnderwaterManipulator.cpp **** 			manipulatorStatus.actuatorStatusBuf[i][j] = (((actuators[i][j].valves[0].getDuty() != 0) << 1) |
 2142              		.loc 3 211 99 discriminator 4 view .LVU703
 2143 0024 002A     		cmp	r2, #0
 2144 0026 18BF     		it	ne
 2145 0028 41F00101 		orrne	r1, r1, #1
 2146              		.loc 3 211 46 discriminator 4 view .LVU704
 2147 002c 03EB8C02 		add	r2, r3, ip, lsl #2
 2148 0030 02F5E672 		add	r2, r2, #460
 2149 0034 00EB4202 		add	r2, r0, r2, lsl #1
 2150 0038 9180     		strh	r1, [r2, #4]	@ movhi
 207:User/HydroUnderwaterManipulator.cpp **** 		{
 2151              		.loc 3 207 3 is_stmt 1 discriminator 4 view .LVU705
 2152 003a 0133     		adds	r3, r3, #1
 2153              	.LVL190:
 2154              	.L113:
 207:User/HydroUnderwaterManipulator.cpp **** 		{
 2155              		.loc 3 207 21 discriminator 2 view .LVU706
 2156 003c 032B     		cmp	r3, #3
 2157 003e 0DDC     		bgt	.L111
 2158              		.loc 3 211 4 view .LVU707
 2159              	.LVL191:
 2160              	.LBB105:
 2161              	.LBI105:
 2162              		.loc 6 26 10 view .LVU708
 2163              	.LBB106:
 2164              		.loc 6 26 20 view .LVU709
ARM GAS  /tmp/ccgPptWl.s 			page 56


 2165              		.loc 6 26 27 is_stmt 0 view .LVU710
 2166 0040 C3EB0312 		rsb	r2, r3, r3, lsl #4
 2167 0044 CCEB0C11 		rsb	r1, ip, ip, lsl #4
 2168 0048 0901     		lsls	r1, r1, #4
 2169 004a 01EB8202 		add	r2, r1, r2, lsl #2
 2170 004e 0244     		add	r2, r2, r0
 2171 0050 B2F90210 		ldrsh	r1, [r2, #2]
 2172              	.LVL192:
 2173              		.loc 6 26 27 view .LVU711
 2174              	.LBE106:
 2175              	.LBE105:
 2176              		.loc 3 211 99 view .LVU712
 2177 0054 0029     		cmp	r1, #0
 2178 0056 DBD0     		beq	.L112
 2179              		.loc 3 211 99 view .LVU713
 2180 0058 0221     		movs	r1, #2
 2181 005a D9E7     		b	.L112
 2182              	.L111:
 2183              		.loc 3 211 99 view .LVU714
 2184              	.LBE102:
 205:User/HydroUnderwaterManipulator.cpp **** 	{
 2185              		.loc 3 205 2 is_stmt 1 discriminator 2 view .LVU715
 2186 005c 0CF1010C 		add	ip, ip, #1
 2187              	.LVL193:
 2188              	.L114:
 205:User/HydroUnderwaterManipulator.cpp **** 	{
 2189              		.loc 3 205 20 discriminator 1 view .LVU716
 2190 0060 BCF1020F 		cmp	ip, #2
 2191 0064 01DC     		bgt	.L110
 2192              	.LBB107:
 207:User/HydroUnderwaterManipulator.cpp **** 		{
 2193              		.loc 3 207 12 is_stmt 0 view .LVU717
 2194 0066 0023     		movs	r3, #0
 2195 0068 E8E7     		b	.L113
 2196              	.L110:
 2197              	.LBE107:
 2198              	.LBE101:
 212:User/HydroUnderwaterManipulator.cpp **** 			//}
 213:User/HydroUnderwaterManipulator.cpp **** 			// else
 214:User/HydroUnderwaterManipulator.cpp **** 			// {
 215:User/HydroUnderwaterManipulator.cpp **** 			//	manipulatorStatus.actuatorStatus[i*ACTNUM+j] = actuators[i][j].pressure;
 216:User/HydroUnderwaterManipulator.cpp **** 			// }
 217:User/HydroUnderwaterManipulator.cpp **** 		}
 218:User/HydroUnderwaterManipulator.cpp **** 	}
 219:User/HydroUnderwaterManipulator.cpp **** 
 220:User/HydroUnderwaterManipulator.cpp **** 	//decode gripper command, no implementation of pressure control yet
 221:User/HydroUnderwaterManipulator.cpp **** 	//if (hostCommand.controlMode == OpeningControlMode)
 222:User/HydroUnderwaterManipulator.cpp **** 	//{
 223:User/HydroUnderwaterManipulator.cpp **** 	manipulatorStatus.gripperStatus = (((gripper.valves[0].getDuty() != 0) << 1) | (gripper.valves[1].
 2199              		.loc 3 223 2 is_stmt 1 view .LVU718
 2200              	.LVL194:
 2201              	.LBB108:
 2202              	.LBI108:
 2203              		.loc 6 26 10 view .LVU719
 2204              	.LBB109:
 2205              		.loc 6 26 20 view .LVU720
 2206              		.loc 6 26 27 is_stmt 0 view .LVU721
ARM GAS  /tmp/ccgPptWl.s 			page 57


 2207 006a B0F9D232 		ldrsh	r3, [r0, #722]
 2208              	.LVL195:
 2209              		.loc 6 26 27 view .LVU722
 2210              	.LBE109:
 2211              	.LBE108:
 2212              		.loc 3 223 79 view .LVU723
 2213 006e 03B1     		cbz	r3, .L115
 2214 0070 0223     		movs	r3, #2
 2215              	.L115:
 2216              	.LVL196:
 2217              	.LBB110:
 2218              	.LBI110:
 2219              		.loc 6 26 10 is_stmt 1 discriminator 4 view .LVU724
 2220              	.LBB111:
 2221              		.loc 6 26 20 discriminator 4 view .LVU725
 2222              		.loc 6 26 27 is_stmt 0 discriminator 4 view .LVU726
 2223 0072 B0F9DC22 		ldrsh	r2, [r0, #732]
 2224              	.LVL197:
 2225              		.loc 6 26 27 discriminator 4 view .LVU727
 2226              	.LBE111:
 2227              	.LBE110:
 2228              		.loc 3 223 79 discriminator 4 view .LVU728
 2229 0076 002A     		cmp	r2, #0
 2230 0078 18BF     		it	ne
 2231 007a 43F00103 		orrne	r3, r3, #1
 2232              		.loc 3 223 34 discriminator 4 view .LVU729
 2233 007e A0F88833 		strh	r3, [r0, #904]	@ movhi
 224:User/HydroUnderwaterManipulator.cpp **** 	//}
 225:User/HydroUnderwaterManipulator.cpp **** 	// else
 226:User/HydroUnderwaterManipulator.cpp **** 	// {
 227:User/HydroUnderwaterManipulator.cpp **** 	// 	manipulatorStatus.gripperStatus =    gripper.pressure;
 228:User/HydroUnderwaterManipulator.cpp **** 	// }
 229:User/HydroUnderwaterManipulator.cpp **** 
 230:User/HydroUnderwaterManipulator.cpp **** 	//decode pSource command
 231:User/HydroUnderwaterManipulator.cpp **** 	if (hostCommand.controlMode == OpeningControlMode)
 2234              		.loc 3 231 2 is_stmt 1 discriminator 4 view .LVU730
 2235 0082 CCB9     		cbnz	r4, .L116
 232:User/HydroUnderwaterManipulator.cpp **** 	{
 233:User/HydroUnderwaterManipulator.cpp **** 		manipulatorStatus.pSourceStatus = (((pSource.pump.status != 0) << 1) | (pSource.valve.getDuty() !
 2236              		.loc 3 233 3 view .LVU731
 2237              		.loc 3 233 53 is_stmt 0 view .LVU732
 2238 0084 B0F91233 		ldrsh	r3, [r0, #786]
 2239              		.loc 3 233 72 view .LVU733
 2240 0088 03B1     		cbz	r3, .L117
 2241 008a 0223     		movs	r3, #2
 2242              	.L117:
 2243              	.LVL198:
 2244              	.LBB112:
 2245              	.LBI112:
 2246              		.loc 6 26 10 is_stmt 1 discriminator 4 view .LVU734
 2247              	.LBB113:
 2248              		.loc 6 26 20 discriminator 4 view .LVU735
 2249              		.loc 6 26 27 is_stmt 0 discriminator 4 view .LVU736
 2250 008c B0F91623 		ldrsh	r2, [r0, #790]
 2251              	.LVL199:
 2252              		.loc 6 26 27 discriminator 4 view .LVU737
 2253              	.LBE113:
ARM GAS  /tmp/ccgPptWl.s 			page 58


 2254              	.LBE112:
 2255              		.loc 3 233 72 discriminator 4 view .LVU738
 2256 0090 002A     		cmp	r2, #0
 2257 0092 18BF     		it	ne
 2258 0094 43F00103 		orrne	r3, r3, #1
 2259              		.loc 3 233 35 discriminator 4 view .LVU739
 2260 0098 A0F88A33 		strh	r3, [r0, #906]	@ movhi
 2261              	.L118:
 234:User/HydroUnderwaterManipulator.cpp **** 	}
 235:User/HydroUnderwaterManipulator.cpp **** 	else
 236:User/HydroUnderwaterManipulator.cpp **** 	{
 237:User/HydroUnderwaterManipulator.cpp **** 		hostCommand.pressureCmd_pSource = pSource.pressure;
 238:User/HydroUnderwaterManipulator.cpp **** 	}
 239:User/HydroUnderwaterManipulator.cpp **** 
 240:User/HydroUnderwaterManipulator.cpp **** 	//decode pSink command
 241:User/HydroUnderwaterManipulator.cpp **** 	if (hostCommand.controlMode == OpeningControlMode)
 2262              		.loc 3 241 2 is_stmt 1 view .LVU740
 2263 009c 8CB9     		cbnz	r4, .L119
 242:User/HydroUnderwaterManipulator.cpp **** 	{
 243:User/HydroUnderwaterManipulator.cpp **** 		manipulatorStatus.pSinkStatus = (((pSink.pump.status != 0) << 1) | (pSink.valve.getDuty() != 0));
 2264              		.loc 3 243 3 view .LVU741
 2265              		.loc 3 243 49 is_stmt 0 view .LVU742
 2266 009e B0F94633 		ldrsh	r3, [r0, #838]
 2267              		.loc 3 243 68 view .LVU743
 2268 00a2 03B1     		cbz	r3, .L120
 2269 00a4 0223     		movs	r3, #2
 2270              	.L120:
 2271              	.LVL200:
 2272              	.LBB114:
 2273              	.LBI114:
 2274              		.loc 6 26 10 is_stmt 1 discriminator 4 view .LVU744
 2275              	.LBB115:
 2276              		.loc 6 26 20 discriminator 4 view .LVU745
 2277              		.loc 6 26 27 is_stmt 0 discriminator 4 view .LVU746
 2278 00a6 B0F94A23 		ldrsh	r2, [r0, #842]
 2279              	.LVL201:
 2280              		.loc 6 26 27 discriminator 4 view .LVU747
 2281              	.LBE115:
 2282              	.LBE114:
 2283              		.loc 3 243 68 discriminator 4 view .LVU748
 2284 00aa 002A     		cmp	r2, #0
 2285 00ac 18BF     		it	ne
 2286 00ae 43F00103 		orrne	r3, r3, #1
 2287              		.loc 3 243 33 discriminator 4 view .LVU749
 2288 00b2 A0F88C33 		strh	r3, [r0, #908]	@ movhi
 2289              	.L109:
 244:User/HydroUnderwaterManipulator.cpp **** 	}
 245:User/HydroUnderwaterManipulator.cpp **** 	else
 246:User/HydroUnderwaterManipulator.cpp **** 	{
 247:User/HydroUnderwaterManipulator.cpp **** 		hostCommand.pressureCmd_pSink = pSink.pressure;
 248:User/HydroUnderwaterManipulator.cpp **** 	}
 249:User/HydroUnderwaterManipulator.cpp **** }
 2290              		.loc 3 249 1 view .LVU750
 2291 00b6 10BD     		pop	{r4, pc}
 2292              	.L116:
 237:User/HydroUnderwaterManipulator.cpp **** 	}
 2293              		.loc 3 237 3 is_stmt 1 view .LVU751
ARM GAS  /tmp/ccgPptWl.s 			page 59


 237:User/HydroUnderwaterManipulator.cpp **** 	}
 2294              		.loc 3 237 45 is_stmt 0 view .LVU752
 2295 00b8 D0F83433 		ldr	r3, [r0, #820]
 237:User/HydroUnderwaterManipulator.cpp **** 	}
 2296              		.loc 3 237 35 view .LVU753
 2297 00bc A0F85E34 		strh	r3, [r0, #1118]	@ movhi
 2298 00c0 ECE7     		b	.L118
 2299              	.L119:
 247:User/HydroUnderwaterManipulator.cpp **** 	}
 2300              		.loc 3 247 3 is_stmt 1 view .LVU754
 247:User/HydroUnderwaterManipulator.cpp **** 	}
 2301              		.loc 3 247 41 is_stmt 0 view .LVU755
 2302 00c2 D0F86833 		ldr	r3, [r0, #872]
 247:User/HydroUnderwaterManipulator.cpp **** 	}
 2303              		.loc 3 247 33 view .LVU756
 2304 00c6 A0F86034 		strh	r3, [r0, #1120]	@ movhi
 2305              		.loc 3 249 1 view .LVU757
 2306 00ca F4E7     		b	.L109
 2307              		.cfi_endproc
 2308              	.LFE455:
 2309              		.cantunwind
 2310              		.fnend
 2312              		.section	.text._ZN26HydroUnderwaterManipulator15execInfoCommandEPc,"ax",%progbits
 2313              		.align	1
 2314              		.global	_ZN26HydroUnderwaterManipulator15execInfoCommandEPc
 2315              		.syntax unified
 2316              		.thumb
 2317              		.thumb_func
 2318              		.fpu softvfp
 2320              	_ZN26HydroUnderwaterManipulator15execInfoCommandEPc:
 2321              		.fnstart
 2322              	.LVL202:
 2323              	.LFB456:
 250:User/HydroUnderwaterManipulator.cpp **** 
 251:User/HydroUnderwaterManipulator.cpp **** void HydroUnderwaterManipulator::execInfoCommand(char *infoBuf)
 252:User/HydroUnderwaterManipulator.cpp **** {
 2324              		.loc 3 252 1 is_stmt 1 view -0
 2325              		.cfi_startproc
 2326              		@ args = 0, pretend = 0, frame = 0
 2327              		@ frame_needed = 0, uses_anonymous_args = 0
 2328              		@ link register save eliminated.
 253:User/HydroUnderwaterManipulator.cpp **** 	if (infoBuf[0] == 'z')
 2329              		.loc 3 253 2 view .LVU759
 254:User/HydroUnderwaterManipulator.cpp **** 	{
 255:User/HydroUnderwaterManipulator.cpp **** 	}
 256:User/HydroUnderwaterManipulator.cpp **** 	if (infoBuf[0] == 'o')
 2330              		.loc 3 256 2 view .LVU760
 257:User/HydroUnderwaterManipulator.cpp **** 	{
 258:User/HydroUnderwaterManipulator.cpp **** 	}
 259:User/HydroUnderwaterManipulator.cpp **** }
 2331              		.loc 3 259 1 is_stmt 0 view .LVU761
 2332 0000 7047     		bx	lr
 2333              		.cfi_endproc
 2334              	.LFE456:
 2335              		.cantunwind
 2336              		.fnend
 2338              		.weak	_ZTSN3ros3MsgE
ARM GAS  /tmp/ccgPptWl.s 			page 60


 2339              		.section	.rodata._ZTSN3ros3MsgE,"aG",%progbits,_ZTSN3ros3MsgE,comdat
 2340              		.align	2
 2343              	_ZTSN3ros3MsgE:
 2344 0000 4E33726F 		.ascii	"N3ros3MsgE\000"
 2344      73334D73 
 2344      674500
 2345              		.weak	_ZTIN3ros3MsgE
 2346              		.section	.rodata._ZTIN3ros3MsgE,"aG",%progbits,_ZTIN3ros3MsgE,comdat
 2347              		.align	2
 2350              	_ZTIN3ros3MsgE:
 2351 0000 08000000 		.word	_ZTVN10__cxxabiv117__class_type_infoE+8
 2352 0004 00000000 		.word	_ZTSN3ros3MsgE
 2353              		.weak	_ZTSN13hydrosoft_ros11Command_ArmE
 2354              		.section	.rodata._ZTSN13hydrosoft_ros11Command_ArmE,"aG",%progbits,_ZTSN13hydrosoft_ros11Command_A
 2355              		.align	2
 2358              	_ZTSN13hydrosoft_ros11Command_ArmE:
 2359 0000 4E313368 		.ascii	"N13hydrosoft_ros11Command_ArmE\000"
 2359      7964726F 
 2359      736F6674 
 2359      5F726F73 
 2359      3131436F 
 2360              		.weak	_ZTIN13hydrosoft_ros11Command_ArmE
 2361              		.section	.rodata._ZTIN13hydrosoft_ros11Command_ArmE,"aG",%progbits,_ZTIN13hydrosoft_ros11Command_A
 2362              		.align	2
 2365              	_ZTIN13hydrosoft_ros11Command_ArmE:
 2366 0000 08000000 		.word	_ZTVN10__cxxabiv120__si_class_type_infoE+8
 2367 0004 00000000 		.word	_ZTSN13hydrosoft_ros11Command_ArmE
 2368 0008 00000000 		.word	_ZTIN3ros3MsgE
 2369              		.weak	_ZTSN13hydrosoft_ros10Sensor_ArmE
 2370              		.section	.rodata._ZTSN13hydrosoft_ros10Sensor_ArmE,"aG",%progbits,_ZTSN13hydrosoft_ros10Sensor_Arm
 2371              		.align	2
 2374              	_ZTSN13hydrosoft_ros10Sensor_ArmE:
 2375 0000 4E313368 		.ascii	"N13hydrosoft_ros10Sensor_ArmE\000"
 2375      7964726F 
 2375      736F6674 
 2375      5F726F73 
 2375      31305365 
 2376              		.weak	_ZTIN13hydrosoft_ros10Sensor_ArmE
 2377              		.section	.rodata._ZTIN13hydrosoft_ros10Sensor_ArmE,"aG",%progbits,_ZTIN13hydrosoft_ros10Sensor_Arm
 2378              		.align	2
 2381              	_ZTIN13hydrosoft_ros10Sensor_ArmE:
 2382 0000 08000000 		.word	_ZTVN10__cxxabiv120__si_class_type_infoE+8
 2383 0004 00000000 		.word	_ZTSN13hydrosoft_ros10Sensor_ArmE
 2384 0008 00000000 		.word	_ZTIN3ros3MsgE
 2385              		.weak	_ZTS22HydroManipulatorStatus
 2386              		.section	.rodata._ZTS22HydroManipulatorStatus,"aG",%progbits,_ZTS22HydroManipulatorStatus,comdat
 2387              		.align	2
 2390              	_ZTS22HydroManipulatorStatus:
 2391 0000 32324879 		.ascii	"22HydroManipulatorStatus\000"
 2391      64726F4D 
 2391      616E6970 
 2391      756C6174 
 2391      6F725374 
 2392              		.weak	_ZTI22HydroManipulatorStatus
 2393              		.section	.rodata._ZTI22HydroManipulatorStatus,"aG",%progbits,_ZTI22HydroManipulatorStatus,comdat
 2394              		.align	2
 2397              	_ZTI22HydroManipulatorStatus:
ARM GAS  /tmp/ccgPptWl.s 			page 61


 2398 0000 08000000 		.word	_ZTVN10__cxxabiv120__si_class_type_infoE+8
 2399 0004 00000000 		.word	_ZTS22HydroManipulatorStatus
 2400 0008 00000000 		.word	_ZTIN13hydrosoft_ros10Sensor_ArmE
 2401              		.weak	_ZTS23HydroManipulatorCommand
 2402              		.section	.rodata._ZTS23HydroManipulatorCommand,"aG",%progbits,_ZTS23HydroManipulatorCommand,comdat
 2403              		.align	2
 2406              	_ZTS23HydroManipulatorCommand:
 2407 0000 32334879 		.ascii	"23HydroManipulatorCommand\000"
 2407      64726F4D 
 2407      616E6970 
 2407      756C6174 
 2407      6F72436F 
 2408              		.weak	_ZTI23HydroManipulatorCommand
 2409              		.section	.rodata._ZTI23HydroManipulatorCommand,"aG",%progbits,_ZTI23HydroManipulatorCommand,comdat
 2410              		.align	2
 2413              	_ZTI23HydroManipulatorCommand:
 2414 0000 08000000 		.word	_ZTVN10__cxxabiv120__si_class_type_infoE+8
 2415 0004 00000000 		.word	_ZTS23HydroManipulatorCommand
 2416 0008 00000000 		.word	_ZTIN13hydrosoft_ros11Command_ArmE
 2417              		.weak	_ZTVN3ros3MsgE
 2418              		.section	.rodata._ZTVN3ros3MsgE,"aG",%progbits,_ZTVN3ros3MsgE,comdat
 2419              		.align	2
 2422              	_ZTVN3ros3MsgE:
 2423 0000 00000000 		.word	0
 2424 0004 00000000 		.word	_ZTIN3ros3MsgE
 2425 0008 00000000 		.word	__cxa_pure_virtual
 2426 000c 00000000 		.word	__cxa_pure_virtual
 2427 0010 00000000 		.word	__cxa_pure_virtual
 2428 0014 00000000 		.word	__cxa_pure_virtual
 2429              		.weak	_ZTVN13hydrosoft_ros11Command_ArmE
 2430              		.section	.rodata._ZTVN13hydrosoft_ros11Command_ArmE,"aG",%progbits,_ZTVN13hydrosoft_ros11Command_A
 2431              		.align	2
 2434              	_ZTVN13hydrosoft_ros11Command_ArmE:
 2435 0000 00000000 		.word	0
 2436 0004 00000000 		.word	_ZTIN13hydrosoft_ros11Command_ArmE
 2437 0008 00000000 		.word	_ZNK13hydrosoft_ros11Command_Arm9serializeEPh
 2438 000c 00000000 		.word	_ZN13hydrosoft_ros11Command_Arm11deserializeEPh
 2439 0010 00000000 		.word	_ZN13hydrosoft_ros11Command_Arm7getTypeEv
 2440 0014 00000000 		.word	_ZN13hydrosoft_ros11Command_Arm6getMD5Ev
 2441              		.weak	_ZTVN13hydrosoft_ros10Sensor_ArmE
 2442              		.section	.rodata._ZTVN13hydrosoft_ros10Sensor_ArmE,"aG",%progbits,_ZTVN13hydrosoft_ros10Sensor_Arm
 2443              		.align	2
 2446              	_ZTVN13hydrosoft_ros10Sensor_ArmE:
 2447 0000 00000000 		.word	0
 2448 0004 00000000 		.word	_ZTIN13hydrosoft_ros10Sensor_ArmE
 2449 0008 00000000 		.word	_ZNK13hydrosoft_ros10Sensor_Arm9serializeEPh
 2450 000c 00000000 		.word	_ZN13hydrosoft_ros10Sensor_Arm11deserializeEPh
 2451 0010 00000000 		.word	_ZN13hydrosoft_ros10Sensor_Arm7getTypeEv
 2452 0014 00000000 		.word	_ZN13hydrosoft_ros10Sensor_Arm6getMD5Ev
 2453              		.weak	_ZTV22HydroManipulatorStatus
 2454              		.section	.rodata._ZTV22HydroManipulatorStatus,"aG",%progbits,_ZTV22HydroManipulatorStatus,comdat
 2455              		.align	2
 2458              	_ZTV22HydroManipulatorStatus:
 2459 0000 00000000 		.word	0
 2460 0004 00000000 		.word	_ZTI22HydroManipulatorStatus
 2461 0008 00000000 		.word	_ZNK13hydrosoft_ros10Sensor_Arm9serializeEPh
 2462 000c 00000000 		.word	_ZN13hydrosoft_ros10Sensor_Arm11deserializeEPh
ARM GAS  /tmp/ccgPptWl.s 			page 62


 2463 0010 00000000 		.word	_ZN13hydrosoft_ros10Sensor_Arm7getTypeEv
 2464 0014 00000000 		.word	_ZN13hydrosoft_ros10Sensor_Arm6getMD5Ev
 2465              		.weak	_ZTV23HydroManipulatorCommand
 2466              		.section	.rodata._ZTV23HydroManipulatorCommand,"aG",%progbits,_ZTV23HydroManipulatorCommand,comdat
 2467              		.align	2
 2470              	_ZTV23HydroManipulatorCommand:
 2471 0000 00000000 		.word	0
 2472 0004 00000000 		.word	_ZTI23HydroManipulatorCommand
 2473 0008 00000000 		.word	_ZNK13hydrosoft_ros11Command_Arm9serializeEPh
 2474 000c 00000000 		.word	_ZN13hydrosoft_ros11Command_Arm11deserializeEPh
 2475 0010 00000000 		.word	_ZN13hydrosoft_ros11Command_Arm7getTypeEv
 2476 0014 00000000 		.word	_ZN13hydrosoft_ros11Command_Arm6getMD5Ev
 2477              		.text
 2478              	.Letext0:
 2479              		.file 7 "/home/softarm/.config/Code/User/globalStorage/bmd.stm32-for-vscode/@xpack-dev-tools/arm-n
 2480              		.file 8 "/home/softarm/.config/Code/User/globalStorage/bmd.stm32-for-vscode/@xpack-dev-tools/arm-n
 2481              		.file 9 "User/Inc/PRESSURESENSOR.h"
 2482              		.file 10 "User/Inc/CHAMBER.h"
 2483              		.file 11 "User/Inc/PUMP.h"
 2484              		.file 12 "User/Inc/PRESSURESOURCE.h"
 2485              		.file 13 "Drivers/CMSIS/Device/ST/STM32F1xx/Include/stm32f1xx.h"
 2486              		.file 14 "/home/softarm/.config/Code/User/globalStorage/bmd.stm32-for-vscode/@xpack-dev-tools/arm-
 2487              		.file 15 "Drivers/STM32F1xx_HAL_Driver/Inc/stm32f1xx_hal.h"
 2488              		.file 16 "/home/softarm/.config/Code/User/globalStorage/bmd.stm32-for-vscode/@xpack-dev-tools/arm-
 2489              		.file 17 "/home/softarm/.config/Code/User/globalStorage/bmd.stm32-for-vscode/@xpack-dev-tools/arm-
 2490              		.file 18 "/home/softarm/.config/Code/User/globalStorage/bmd.stm32-for-vscode/@xpack-dev-tools/arm-
 2491              		.file 19 "/home/softarm/.config/Code/User/globalStorage/bmd.stm32-for-vscode/@xpack-dev-tools/arm-
 2492              		.file 20 "/home/softarm/.config/Code/User/globalStorage/bmd.stm32-for-vscode/@xpack-dev-tools/arm-
 2493              		.file 21 "/home/softarm/.config/Code/User/globalStorage/bmd.stm32-for-vscode/@xpack-dev-tools/arm-
 2494              		.file 22 "/home/softarm/.config/Code/User/globalStorage/bmd.stm32-for-vscode/@xpack-dev-tools/arm-
 2495              		.file 23 "/home/softarm/.config/Code/User/globalStorage/bmd.stm32-for-vscode/@xpack-dev-tools/arm-
 2496              		.file 24 "User/Inc/rosserialInc/ros/node_handle.h"
 2497              		.file 25 "User/Inc/rosserialInc/rosserial_msgs/TopicInfo.h"
 2498              		.file 26 "User/Inc/rosserialInc/rosserial_msgs/RequestParam.h"
 2499              		.file 27 "<built-in>"
 2500              		.file 28 "User/Inc/rosserialInc/std_msgs/Time.h"
ARM GAS  /tmp/ccgPptWl.s 			page 63


DEFINED SYMBOLS
                            *ABS*:0000000000000000 HydroUnderwaterManipulator.cpp
     /tmp/ccgPptWl.s:16     .text._ZNK13hydrosoft_ros11Command_Arm9serializeEPh:0000000000000000 $t
     /tmp/ccgPptWl.s:24     .text._ZNK13hydrosoft_ros11Command_Arm9serializeEPh:0000000000000000 _ZNK13hydrosoft_ros11Command_Arm9serializeEPh
.ARM.exidx.text._ZNK13hydrosoft_ros11Command_Arm9serializeEPh:0000000000000000 $d
     /tmp/ccgPptWl.s:195    .rodata._ZN13hydrosoft_ros11Command_Arm7getTypeEv.str1.4:0000000000000000 $d
     /tmp/ccgPptWl.s:199    .text._ZN13hydrosoft_ros11Command_Arm7getTypeEv:0000000000000000 $t
     /tmp/ccgPptWl.s:206    .text._ZN13hydrosoft_ros11Command_Arm7getTypeEv:0000000000000000 _ZN13hydrosoft_ros11Command_Arm7getTypeEv
     /tmp/ccgPptWl.s:224    .text._ZN13hydrosoft_ros11Command_Arm7getTypeEv:0000000000000004 $d
.ARM.exidx.text._ZN13hydrosoft_ros11Command_Arm7getTypeEv:0000000000000000 $d
     /tmp/ccgPptWl.s:231    .rodata._ZN13hydrosoft_ros11Command_Arm6getMD5Ev.str1.4:0000000000000000 $d
     /tmp/ccgPptWl.s:235    .text._ZN13hydrosoft_ros11Command_Arm6getMD5Ev:0000000000000000 $t
     /tmp/ccgPptWl.s:242    .text._ZN13hydrosoft_ros11Command_Arm6getMD5Ev:0000000000000000 _ZN13hydrosoft_ros11Command_Arm6getMD5Ev
     /tmp/ccgPptWl.s:260    .text._ZN13hydrosoft_ros11Command_Arm6getMD5Ev:0000000000000004 $d
.ARM.exidx.text._ZN13hydrosoft_ros11Command_Arm6getMD5Ev:0000000000000000 $d
     /tmp/ccgPptWl.s:267    .text._ZNK13hydrosoft_ros10Sensor_Arm9serializeEPh:0000000000000000 $t
     /tmp/ccgPptWl.s:274    .text._ZNK13hydrosoft_ros10Sensor_Arm9serializeEPh:0000000000000000 _ZNK13hydrosoft_ros10Sensor_Arm9serializeEPh
.ARM.exidx.text._ZNK13hydrosoft_ros10Sensor_Arm9serializeEPh:0000000000000000 $d
     /tmp/ccgPptWl.s:522    .rodata._ZN13hydrosoft_ros10Sensor_Arm7getTypeEv.str1.4:0000000000000000 $d
     /tmp/ccgPptWl.s:526    .text._ZN13hydrosoft_ros10Sensor_Arm7getTypeEv:0000000000000000 $t
     /tmp/ccgPptWl.s:533    .text._ZN13hydrosoft_ros10Sensor_Arm7getTypeEv:0000000000000000 _ZN13hydrosoft_ros10Sensor_Arm7getTypeEv
     /tmp/ccgPptWl.s:551    .text._ZN13hydrosoft_ros10Sensor_Arm7getTypeEv:0000000000000004 $d
.ARM.exidx.text._ZN13hydrosoft_ros10Sensor_Arm7getTypeEv:0000000000000000 $d
     /tmp/ccgPptWl.s:558    .rodata._ZN13hydrosoft_ros10Sensor_Arm6getMD5Ev.str1.4:0000000000000000 $d
     /tmp/ccgPptWl.s:562    .text._ZN13hydrosoft_ros10Sensor_Arm6getMD5Ev:0000000000000000 $t
     /tmp/ccgPptWl.s:569    .text._ZN13hydrosoft_ros10Sensor_Arm6getMD5Ev:0000000000000000 _ZN13hydrosoft_ros10Sensor_Arm6getMD5Ev
     /tmp/ccgPptWl.s:587    .text._ZN13hydrosoft_ros10Sensor_Arm6getMD5Ev:0000000000000004 $d
.ARM.exidx.text._ZN13hydrosoft_ros10Sensor_Arm6getMD5Ev:0000000000000000 $d
     /tmp/ccgPptWl.s:594    .text._ZN13hydrosoft_ros10Sensor_Arm11deserializeEPh:0000000000000000 $t
     /tmp/ccgPptWl.s:601    .text._ZN13hydrosoft_ros10Sensor_Arm11deserializeEPh:0000000000000000 _ZN13hydrosoft_ros10Sensor_Arm11deserializeEPh
.ARM.exidx.text._ZN13hydrosoft_ros10Sensor_Arm11deserializeEPh:0000000000000000 $d
     /tmp/ccgPptWl.s:909    .text._ZN13hydrosoft_ros11Command_Arm11deserializeEPh:0000000000000000 $t
     /tmp/ccgPptWl.s:916    .text._ZN13hydrosoft_ros11Command_Arm11deserializeEPh:0000000000000000 _ZN13hydrosoft_ros11Command_Arm11deserializeEPh
.ARM.exidx.text._ZN13hydrosoft_ros11Command_Arm11deserializeEPh:0000000000000000 $d
     /tmp/ccgPptWl.s:1119   .text._ZN26HydroUnderwaterManipulatorC2Ev:0000000000000000 $t
     /tmp/ccgPptWl.s:1126   .text._ZN26HydroUnderwaterManipulatorC2Ev:0000000000000000 _ZN26HydroUnderwaterManipulatorC2Ev
     /tmp/ccgPptWl.s:1328   .text._ZN26HydroUnderwaterManipulatorC2Ev:00000000000000f8 $d
     /tmp/ccgPptWl.s:2422   .rodata._ZTVN3ros3MsgE:0000000000000000 _ZTVN3ros3MsgE
     /tmp/ccgPptWl.s:2446   .rodata._ZTVN13hydrosoft_ros10Sensor_ArmE:0000000000000000 _ZTVN13hydrosoft_ros10Sensor_ArmE
     /tmp/ccgPptWl.s:2458   .rodata._ZTV22HydroManipulatorStatus:0000000000000000 _ZTV22HydroManipulatorStatus
     /tmp/ccgPptWl.s:2434   .rodata._ZTVN13hydrosoft_ros11Command_ArmE:0000000000000000 _ZTVN13hydrosoft_ros11Command_ArmE
     /tmp/ccgPptWl.s:2470   .rodata._ZTV23HydroManipulatorCommand:0000000000000000 _ZTV23HydroManipulatorCommand
.ARM.exidx.text._ZN26HydroUnderwaterManipulatorC2Ev:0000000000000000 $d
     /tmp/ccgPptWl.s:1126   .text._ZN26HydroUnderwaterManipulatorC2Ev:0000000000000000 _ZN26HydroUnderwaterManipulatorC1Ev
     /tmp/ccgPptWl.s:1340   .text._ZN26HydroUnderwaterManipulator18setupActuatorPortsERA3_A4_A2_h:0000000000000000 $t
     /tmp/ccgPptWl.s:1347   .text._ZN26HydroUnderwaterManipulator18setupActuatorPortsERA3_A4_A2_h:0000000000000000 _ZN26HydroUnderwaterManipulator18setupActuatorPortsERA3_A4_A2_h
.ARM.exidx.text._ZN26HydroUnderwaterManipulator18setupActuatorPortsERA3_A4_A2_h:0000000000000000 $d
     /tmp/ccgPptWl.s:1430   .text._ZN26HydroUnderwaterManipulator17setupGripperPortsERA2_h:0000000000000000 $t
     /tmp/ccgPptWl.s:1437   .text._ZN26HydroUnderwaterManipulator17setupGripperPortsERA2_h:0000000000000000 _ZN26HydroUnderwaterManipulator17setupGripperPortsERA2_h
.ARM.exidx.text._ZN26HydroUnderwaterManipulator17setupGripperPortsERA2_h:0000000000000000 $d
     /tmp/ccgPptWl.s:1478   .text._ZN26HydroUnderwaterManipulator17setupPsourcePortsEhhh:0000000000000000 $t
     /tmp/ccgPptWl.s:1485   .text._ZN26HydroUnderwaterManipulator17setupPsourcePortsEhhh:0000000000000000 _ZN26HydroUnderwaterManipulator17setupPsourcePortsEhhh
.ARM.extab.text._ZN26HydroUnderwaterManipulator17setupPsourcePortsEhhh:0000000000000000 $d
.ARM.exidx.text._ZN26HydroUnderwaterManipulator17setupPsourcePortsEhhh:0000000000000000 $d
     /tmp/ccgPptWl.s:1514   .text._ZN26HydroUnderwaterManipulator15setupPsinkPortsEhhh:0000000000000000 $t
     /tmp/ccgPptWl.s:1521   .text._ZN26HydroUnderwaterManipulator15setupPsinkPortsEhhh:0000000000000000 _ZN26HydroUnderwaterManipulator15setupPsinkPortsEhhh
.ARM.extab.text._ZN26HydroUnderwaterManipulator15setupPsinkPortsEhhh:0000000000000000 $d
ARM GAS  /tmp/ccgPptWl.s 			page 64


.ARM.exidx.text._ZN26HydroUnderwaterManipulator15setupPsinkPortsEhhh:0000000000000000 $d
     /tmp/ccgPptWl.s:1550   .text._ZN26HydroUnderwaterManipulator15control_pSourceEv:0000000000000000 $t
     /tmp/ccgPptWl.s:1557   .text._ZN26HydroUnderwaterManipulator15control_pSourceEv:0000000000000000 _ZN26HydroUnderwaterManipulator15control_pSourceEv
.ARM.exidx.text._ZN26HydroUnderwaterManipulator15control_pSourceEv:0000000000000000 $d
     /tmp/ccgPptWl.s:1687   .text._ZN26HydroUnderwaterManipulator13control_pSinkEv:0000000000000000 $t
     /tmp/ccgPptWl.s:1694   .text._ZN26HydroUnderwaterManipulator13control_pSinkEv:0000000000000000 _ZN26HydroUnderwaterManipulator13control_pSinkEv
.ARM.exidx.text._ZN26HydroUnderwaterManipulator13control_pSinkEv:0000000000000000 $d
     /tmp/ccgPptWl.s:1824   .text._ZN26HydroUnderwaterManipulator15control_gripperEv:0000000000000000 $t
     /tmp/ccgPptWl.s:1831   .text._ZN26HydroUnderwaterManipulator15control_gripperEv:0000000000000000 _ZN26HydroUnderwaterManipulator15control_gripperEv
.ARM.exidx.text._ZN26HydroUnderwaterManipulator15control_gripperEv:0000000000000000 $d
     /tmp/ccgPptWl.s:1869   .text._ZN26HydroUnderwaterManipulator17control_actuatorsEv:0000000000000000 $t
     /tmp/ccgPptWl.s:1876   .text._ZN26HydroUnderwaterManipulator17control_actuatorsEv:0000000000000000 _ZN26HydroUnderwaterManipulator17control_actuatorsEv
.ARM.exidx.text._ZN26HydroUnderwaterManipulator17control_actuatorsEv:0000000000000000 $d
     /tmp/ccgPptWl.s:1956   .text._ZN26HydroUnderwaterManipulator13decodeCommandEv:0000000000000000 $t
     /tmp/ccgPptWl.s:1963   .text._ZN26HydroUnderwaterManipulator13decodeCommandEv:0000000000000000 _ZN26HydroUnderwaterManipulator13decodeCommandEv
.ARM.exidx.text._ZN26HydroUnderwaterManipulator13decodeCommandEv:0000000000000000 $d
     /tmp/ccgPptWl.s:2090   .text._ZN26HydroUnderwaterManipulator12encodeStatusEv:0000000000000000 $t
     /tmp/ccgPptWl.s:2097   .text._ZN26HydroUnderwaterManipulator12encodeStatusEv:0000000000000000 _ZN26HydroUnderwaterManipulator12encodeStatusEv
.ARM.exidx.text._ZN26HydroUnderwaterManipulator12encodeStatusEv:0000000000000000 $d
     /tmp/ccgPptWl.s:2313   .text._ZN26HydroUnderwaterManipulator15execInfoCommandEPc:0000000000000000 $t
     /tmp/ccgPptWl.s:2320   .text._ZN26HydroUnderwaterManipulator15execInfoCommandEPc:0000000000000000 _ZN26HydroUnderwaterManipulator15execInfoCommandEPc
.ARM.exidx.text._ZN26HydroUnderwaterManipulator15execInfoCommandEPc:0000000000000000 $d
     /tmp/ccgPptWl.s:2343   .rodata._ZTSN3ros3MsgE:0000000000000000 _ZTSN3ros3MsgE
     /tmp/ccgPptWl.s:2340   .rodata._ZTSN3ros3MsgE:0000000000000000 $d
     /tmp/ccgPptWl.s:2350   .rodata._ZTIN3ros3MsgE:0000000000000000 _ZTIN3ros3MsgE
     /tmp/ccgPptWl.s:2347   .rodata._ZTIN3ros3MsgE:0000000000000000 $d
     /tmp/ccgPptWl.s:2358   .rodata._ZTSN13hydrosoft_ros11Command_ArmE:0000000000000000 _ZTSN13hydrosoft_ros11Command_ArmE
     /tmp/ccgPptWl.s:2355   .rodata._ZTSN13hydrosoft_ros11Command_ArmE:0000000000000000 $d
     /tmp/ccgPptWl.s:2365   .rodata._ZTIN13hydrosoft_ros11Command_ArmE:0000000000000000 _ZTIN13hydrosoft_ros11Command_ArmE
     /tmp/ccgPptWl.s:2362   .rodata._ZTIN13hydrosoft_ros11Command_ArmE:0000000000000000 $d
     /tmp/ccgPptWl.s:2374   .rodata._ZTSN13hydrosoft_ros10Sensor_ArmE:0000000000000000 _ZTSN13hydrosoft_ros10Sensor_ArmE
     /tmp/ccgPptWl.s:2371   .rodata._ZTSN13hydrosoft_ros10Sensor_ArmE:0000000000000000 $d
     /tmp/ccgPptWl.s:2381   .rodata._ZTIN13hydrosoft_ros10Sensor_ArmE:0000000000000000 _ZTIN13hydrosoft_ros10Sensor_ArmE
     /tmp/ccgPptWl.s:2378   .rodata._ZTIN13hydrosoft_ros10Sensor_ArmE:0000000000000000 $d
     /tmp/ccgPptWl.s:2390   .rodata._ZTS22HydroManipulatorStatus:0000000000000000 _ZTS22HydroManipulatorStatus
     /tmp/ccgPptWl.s:2387   .rodata._ZTS22HydroManipulatorStatus:0000000000000000 $d
     /tmp/ccgPptWl.s:2397   .rodata._ZTI22HydroManipulatorStatus:0000000000000000 _ZTI22HydroManipulatorStatus
     /tmp/ccgPptWl.s:2394   .rodata._ZTI22HydroManipulatorStatus:0000000000000000 $d
     /tmp/ccgPptWl.s:2406   .rodata._ZTS23HydroManipulatorCommand:0000000000000000 _ZTS23HydroManipulatorCommand
     /tmp/ccgPptWl.s:2403   .rodata._ZTS23HydroManipulatorCommand:0000000000000000 $d
     /tmp/ccgPptWl.s:2413   .rodata._ZTI23HydroManipulatorCommand:0000000000000000 _ZTI23HydroManipulatorCommand
     /tmp/ccgPptWl.s:2410   .rodata._ZTI23HydroManipulatorCommand:0000000000000000 $d
     /tmp/ccgPptWl.s:2419   .rodata._ZTVN3ros3MsgE:0000000000000000 $d
     /tmp/ccgPptWl.s:2431   .rodata._ZTVN13hydrosoft_ros11Command_ArmE:0000000000000000 $d
     /tmp/ccgPptWl.s:2443   .rodata._ZTVN13hydrosoft_ros10Sensor_ArmE:0000000000000000 $d
     /tmp/ccgPptWl.s:2455   .rodata._ZTV22HydroManipulatorStatus:0000000000000000 $d
     /tmp/ccgPptWl.s:2467   .rodata._ZTV23HydroManipulatorCommand:0000000000000000 $d

UNDEFINED SYMBOLS
realloc
_ZN7CHAMBERC1Eiii
_ZN15PRESSURE_SOURCEC1Ehhhh
__aeabi_unwind_cpp_pr0
_ZN7CHAMBER9attachPWMEii
_ZN7CHAMBER12writeOpeningEs
_ZN15PRESSURE_SOURCE6attachEhhh
__aeabi_unwind_cpp_pr1
ARM GAS  /tmp/ccgPptWl.s 			page 65


_ZN15PRESSURE_SOURCE9openValveEv
_ZN15PRESSURE_SOURCE8stopPumpEv
_ZN15PRESSURE_SOURCE9startPumpEv
_ZN15PRESSURE_SOURCE10closeValveEv
_ZN15PRESSURE_SOURCE16maintainPressureEl
_ZN14SOLENOID_VALVE9writeDutyEs
_ZTVN10__cxxabiv117__class_type_infoE
_ZTVN10__cxxabiv120__si_class_type_infoE
__cxa_pure_virtual
