ARM GAS  /tmp/ccBu519l.s 			page 1


   1              		.cpu cortex-m3
   2              		.eabi_attribute 20, 1
   3              		.eabi_attribute 21, 1
   4              		.eabi_attribute 23, 3
   5              		.eabi_attribute 24, 1
   6              		.eabi_attribute 25, 1
   7              		.eabi_attribute 26, 1
   8              		.eabi_attribute 30, 1
   9              		.eabi_attribute 34, 1
  10              		.eabi_attribute 18, 4
  11              		.file	"myMain.cpp"
  12              		.text
  13              	.Ltext0:
  14              		.cfi_sections	.debug_frame
  15              		.section	.text._ZNK8std_msgs4Time9serializeEPh,"axG",%progbits,_ZNK8std_msgs4Time9serializeEPh,com
  16              		.align	1
  17              		.weak	_ZNK8std_msgs4Time9serializeEPh
  18              		.arch armv7-m
  19              		.syntax unified
  20              		.thumb
  21              		.thumb_func
  22              		.fpu softvfp
  24              	_ZNK8std_msgs4Time9serializeEPh:
  25              		.fnstart
  26              	.LVL0:
  27              	.LFB318:
  28              		.file 1 "User/Inc/rosserialInc/std_msgs/Time.h"
   1:User/Inc/rosserialInc/std_msgs/Time.h **** #ifndef _ROS_std_msgs_Time_h
   2:User/Inc/rosserialInc/std_msgs/Time.h **** #define _ROS_std_msgs_Time_h
   3:User/Inc/rosserialInc/std_msgs/Time.h **** 
   4:User/Inc/rosserialInc/std_msgs/Time.h **** #include <stdint.h>
   5:User/Inc/rosserialInc/std_msgs/Time.h **** #include <string.h>
   6:User/Inc/rosserialInc/std_msgs/Time.h **** #include <stdlib.h>
   7:User/Inc/rosserialInc/std_msgs/Time.h **** #include "ros/msg.h"
   8:User/Inc/rosserialInc/std_msgs/Time.h **** #include "ros/time.h"
   9:User/Inc/rosserialInc/std_msgs/Time.h **** 
  10:User/Inc/rosserialInc/std_msgs/Time.h **** namespace std_msgs
  11:User/Inc/rosserialInc/std_msgs/Time.h **** {
  12:User/Inc/rosserialInc/std_msgs/Time.h **** 
  13:User/Inc/rosserialInc/std_msgs/Time.h ****   class Time : public ros::Msg
  14:User/Inc/rosserialInc/std_msgs/Time.h ****   {
  15:User/Inc/rosserialInc/std_msgs/Time.h ****     public:
  16:User/Inc/rosserialInc/std_msgs/Time.h ****       typedef ros::Time _data_type;
  17:User/Inc/rosserialInc/std_msgs/Time.h ****       _data_type data;
  18:User/Inc/rosserialInc/std_msgs/Time.h **** 
  19:User/Inc/rosserialInc/std_msgs/Time.h ****     Time():
  20:User/Inc/rosserialInc/std_msgs/Time.h ****       data()
  21:User/Inc/rosserialInc/std_msgs/Time.h ****     {
  22:User/Inc/rosserialInc/std_msgs/Time.h ****     }
  23:User/Inc/rosserialInc/std_msgs/Time.h **** 
  24:User/Inc/rosserialInc/std_msgs/Time.h ****     virtual int serialize(unsigned char *outbuffer) const override
  29              		.loc 1 24 17 view -0
  30              		.cfi_startproc
  31              		@ args = 0, pretend = 0, frame = 0
  32              		@ frame_needed = 0, uses_anonymous_args = 0
  33              		@ link register save eliminated.
  25:User/Inc/rosserialInc/std_msgs/Time.h ****     {
ARM GAS  /tmp/ccBu519l.s 			page 2


  26:User/Inc/rosserialInc/std_msgs/Time.h ****       int offset = 0;
  34              		.loc 1 26 7 view .LVU1
  27:User/Inc/rosserialInc/std_msgs/Time.h ****       *(outbuffer + offset + 0) = (this->data.sec >> (8 * 0)) & 0xFF;
  35              		.loc 1 27 7 view .LVU2
  36              		.loc 1 27 47 is_stmt 0 view .LVU3
  37 0000 4368     		ldr	r3, [r0, #4]
  38              		.loc 1 27 33 view .LVU4
  39 0002 0B70     		strb	r3, [r1]
  28:User/Inc/rosserialInc/std_msgs/Time.h ****       *(outbuffer + offset + 1) = (this->data.sec >> (8 * 1)) & 0xFF;
  40              		.loc 1 28 7 is_stmt 1 view .LVU5
  41              		.loc 1 28 47 is_stmt 0 view .LVU6
  42 0004 4368     		ldr	r3, [r0, #4]
  43              		.loc 1 28 51 view .LVU7
  44 0006 1B0A     		lsrs	r3, r3, #8
  45              		.loc 1 28 33 view .LVU8
  46 0008 4B70     		strb	r3, [r1, #1]
  29:User/Inc/rosserialInc/std_msgs/Time.h ****       *(outbuffer + offset + 2) = (this->data.sec >> (8 * 2)) & 0xFF;
  47              		.loc 1 29 7 is_stmt 1 view .LVU9
  48              		.loc 1 29 51 is_stmt 0 view .LVU10
  49 000a C388     		ldrh	r3, [r0, #6]
  50              		.loc 1 29 33 view .LVU11
  51 000c 8B70     		strb	r3, [r1, #2]
  30:User/Inc/rosserialInc/std_msgs/Time.h ****       *(outbuffer + offset + 3) = (this->data.sec >> (8 * 3)) & 0xFF;
  52              		.loc 1 30 7 is_stmt 1 view .LVU12
  53              		.loc 1 30 51 is_stmt 0 view .LVU13
  54 000e C379     		ldrb	r3, [r0, #7]	@ zero_extendqisi2
  55              		.loc 1 30 33 view .LVU14
  56 0010 CB70     		strb	r3, [r1, #3]
  31:User/Inc/rosserialInc/std_msgs/Time.h ****       offset += sizeof(this->data.sec);
  57              		.loc 1 31 7 is_stmt 1 view .LVU15
  58              	.LVL1:
  32:User/Inc/rosserialInc/std_msgs/Time.h ****       *(outbuffer + offset + 0) = (this->data.nsec >> (8 * 0)) & 0xFF;
  59              		.loc 1 32 7 view .LVU16
  60              		.loc 1 32 47 is_stmt 0 view .LVU17
  61 0012 8368     		ldr	r3, [r0, #8]
  62              		.loc 1 32 33 view .LVU18
  63 0014 0B71     		strb	r3, [r1, #4]
  33:User/Inc/rosserialInc/std_msgs/Time.h ****       *(outbuffer + offset + 1) = (this->data.nsec >> (8 * 1)) & 0xFF;
  64              		.loc 1 33 7 is_stmt 1 view .LVU19
  65              		.loc 1 33 47 is_stmt 0 view .LVU20
  66 0016 8368     		ldr	r3, [r0, #8]
  67              		.loc 1 33 52 view .LVU21
  68 0018 1B0A     		lsrs	r3, r3, #8
  69              		.loc 1 33 33 view .LVU22
  70 001a 4B71     		strb	r3, [r1, #5]
  34:User/Inc/rosserialInc/std_msgs/Time.h ****       *(outbuffer + offset + 2) = (this->data.nsec >> (8 * 2)) & 0xFF;
  71              		.loc 1 34 7 is_stmt 1 view .LVU23
  72              		.loc 1 34 52 is_stmt 0 view .LVU24
  73 001c 4389     		ldrh	r3, [r0, #10]
  74              		.loc 1 34 33 view .LVU25
  75 001e 8B71     		strb	r3, [r1, #6]
  35:User/Inc/rosserialInc/std_msgs/Time.h ****       *(outbuffer + offset + 3) = (this->data.nsec >> (8 * 3)) & 0xFF;
  76              		.loc 1 35 7 is_stmt 1 view .LVU26
  77              		.loc 1 35 52 is_stmt 0 view .LVU27
  78 0020 C37A     		ldrb	r3, [r0, #11]	@ zero_extendqisi2
  79              		.loc 1 35 33 view .LVU28
  80 0022 CB71     		strb	r3, [r1, #7]
ARM GAS  /tmp/ccBu519l.s 			page 3


  36:User/Inc/rosserialInc/std_msgs/Time.h ****       offset += sizeof(this->data.nsec);
  81              		.loc 1 36 7 is_stmt 1 view .LVU29
  82              	.LVL2:
  37:User/Inc/rosserialInc/std_msgs/Time.h ****       return offset;
  83              		.loc 1 37 7 view .LVU30
  38:User/Inc/rosserialInc/std_msgs/Time.h ****     }
  84              		.loc 1 38 5 is_stmt 0 view .LVU31
  85 0024 0820     		movs	r0, #8
  86              	.LVL3:
  87              		.loc 1 38 5 view .LVU32
  88 0026 7047     		bx	lr
  89              		.cfi_endproc
  90              	.LFE318:
  91              		.cantunwind
  92              		.fnend
  94              		.section	.text._ZN8std_msgs4Time11deserializeEPh,"axG",%progbits,_ZN8std_msgs4Time11deserializeEPh
  95              		.align	1
  96              		.weak	_ZN8std_msgs4Time11deserializeEPh
  97              		.syntax unified
  98              		.thumb
  99              		.thumb_func
 100              		.fpu softvfp
 102              	_ZN8std_msgs4Time11deserializeEPh:
 103              		.fnstart
 104              	.LVL4:
 105              	.LFB319:
  39:User/Inc/rosserialInc/std_msgs/Time.h **** 
  40:User/Inc/rosserialInc/std_msgs/Time.h ****     virtual int deserialize(unsigned char *inbuffer) override
 106              		.loc 1 40 17 is_stmt 1 view -0
 107              		.cfi_startproc
 108              		@ args = 0, pretend = 0, frame = 0
 109              		@ frame_needed = 0, uses_anonymous_args = 0
 110              		@ link register save eliminated.
  41:User/Inc/rosserialInc/std_msgs/Time.h ****     {
  42:User/Inc/rosserialInc/std_msgs/Time.h ****       int offset = 0;
 111              		.loc 1 42 7 view .LVU34
  43:User/Inc/rosserialInc/std_msgs/Time.h ****       this->data.sec =  ((uint32_t) (*(inbuffer + offset)));
 112              		.loc 1 43 7 view .LVU35
 113              		.loc 1 43 38 is_stmt 0 view .LVU36
 114 0000 0B78     		ldrb	r3, [r1]	@ zero_extendqisi2
 115              		.loc 1 43 22 view .LVU37
 116 0002 4360     		str	r3, [r0, #4]
  44:User/Inc/rosserialInc/std_msgs/Time.h ****       this->data.sec |= ((uint32_t) (*(inbuffer + offset + 1))) << (8 * 1);
 117              		.loc 1 44 7 is_stmt 1 view .LVU38
 118              		.loc 1 44 38 is_stmt 0 view .LVU39
 119 0004 4A78     		ldrb	r2, [r1, #1]	@ zero_extendqisi2
 120              		.loc 1 44 22 view .LVU40
 121 0006 43EA0223 		orr	r3, r3, r2, lsl #8
 122 000a 4360     		str	r3, [r0, #4]
  45:User/Inc/rosserialInc/std_msgs/Time.h ****       this->data.sec |= ((uint32_t) (*(inbuffer + offset + 2))) << (8 * 2);
 123              		.loc 1 45 7 is_stmt 1 view .LVU41
 124              		.loc 1 45 38 is_stmt 0 view .LVU42
 125 000c 8A78     		ldrb	r2, [r1, #2]	@ zero_extendqisi2
 126              		.loc 1 45 22 view .LVU43
 127 000e 43EA0243 		orr	r3, r3, r2, lsl #16
 128 0012 4360     		str	r3, [r0, #4]
  46:User/Inc/rosserialInc/std_msgs/Time.h ****       this->data.sec |= ((uint32_t) (*(inbuffer + offset + 3))) << (8 * 3);
ARM GAS  /tmp/ccBu519l.s 			page 4


 129              		.loc 1 46 7 is_stmt 1 view .LVU44
 130              		.loc 1 46 38 is_stmt 0 view .LVU45
 131 0014 CA78     		ldrb	r2, [r1, #3]	@ zero_extendqisi2
 132              		.loc 1 46 22 view .LVU46
 133 0016 43EA0263 		orr	r3, r3, r2, lsl #24
 134 001a 4360     		str	r3, [r0, #4]
  47:User/Inc/rosserialInc/std_msgs/Time.h ****       offset += sizeof(this->data.sec);
 135              		.loc 1 47 7 is_stmt 1 view .LVU47
 136              	.LVL5:
  48:User/Inc/rosserialInc/std_msgs/Time.h ****       this->data.nsec =  ((uint32_t) (*(inbuffer + offset)));
 137              		.loc 1 48 7 view .LVU48
 138              		.loc 1 48 39 is_stmt 0 view .LVU49
 139 001c 0B79     		ldrb	r3, [r1, #4]	@ zero_extendqisi2
 140              		.loc 1 48 23 view .LVU50
 141 001e 8360     		str	r3, [r0, #8]
  49:User/Inc/rosserialInc/std_msgs/Time.h ****       this->data.nsec |= ((uint32_t) (*(inbuffer + offset + 1))) << (8 * 1);
 142              		.loc 1 49 7 is_stmt 1 view .LVU51
 143              		.loc 1 49 39 is_stmt 0 view .LVU52
 144 0020 4A79     		ldrb	r2, [r1, #5]	@ zero_extendqisi2
 145              		.loc 1 49 23 view .LVU53
 146 0022 43EA0223 		orr	r3, r3, r2, lsl #8
 147 0026 8360     		str	r3, [r0, #8]
  50:User/Inc/rosserialInc/std_msgs/Time.h ****       this->data.nsec |= ((uint32_t) (*(inbuffer + offset + 2))) << (8 * 2);
 148              		.loc 1 50 7 is_stmt 1 view .LVU54
 149              		.loc 1 50 39 is_stmt 0 view .LVU55
 150 0028 8A79     		ldrb	r2, [r1, #6]	@ zero_extendqisi2
 151              		.loc 1 50 23 view .LVU56
 152 002a 43EA0243 		orr	r3, r3, r2, lsl #16
 153 002e 8360     		str	r3, [r0, #8]
  51:User/Inc/rosserialInc/std_msgs/Time.h ****       this->data.nsec |= ((uint32_t) (*(inbuffer + offset + 3))) << (8 * 3);
 154              		.loc 1 51 7 is_stmt 1 view .LVU57
 155              		.loc 1 51 39 is_stmt 0 view .LVU58
 156 0030 CA79     		ldrb	r2, [r1, #7]	@ zero_extendqisi2
 157              		.loc 1 51 23 view .LVU59
 158 0032 43EA0263 		orr	r3, r3, r2, lsl #24
 159 0036 8360     		str	r3, [r0, #8]
  52:User/Inc/rosserialInc/std_msgs/Time.h ****       offset += sizeof(this->data.nsec);
 160              		.loc 1 52 7 is_stmt 1 view .LVU60
 161              	.LVL6:
  53:User/Inc/rosserialInc/std_msgs/Time.h ****      return offset;
 162              		.loc 1 53 6 view .LVU61
  54:User/Inc/rosserialInc/std_msgs/Time.h ****     }
 163              		.loc 1 54 5 is_stmt 0 view .LVU62
 164 0038 0820     		movs	r0, #8
 165              	.LVL7:
 166              		.loc 1 54 5 view .LVU63
 167 003a 7047     		bx	lr
 168              		.cfi_endproc
 169              	.LFE319:
 170              		.cantunwind
 171              		.fnend
 173              		.section	.rodata._ZN8std_msgs4Time7getTypeEv.str1.4,"aMS",%progbits,1
 174              		.align	2
 175              	.LC0:
 176 0000 7374645F 		.ascii	"std_msgs/Time\000"
 176      6D736773 
 176      2F54696D 
ARM GAS  /tmp/ccBu519l.s 			page 5


 176      6500
 177              		.section	.text._ZN8std_msgs4Time7getTypeEv,"axG",%progbits,_ZN8std_msgs4Time7getTypeEv,comdat
 178              		.align	1
 179              		.weak	_ZN8std_msgs4Time7getTypeEv
 180              		.syntax unified
 181              		.thumb
 182              		.thumb_func
 183              		.fpu softvfp
 185              	_ZN8std_msgs4Time7getTypeEv:
 186              		.fnstart
 187              	.LVL8:
 188              	.LFB320:
  55:User/Inc/rosserialInc/std_msgs/Time.h **** 
  56:User/Inc/rosserialInc/std_msgs/Time.h ****     virtual const char * getType() override { return "std_msgs/Time"; };
 189              		.loc 1 56 26 is_stmt 1 view -0
 190              		.cfi_startproc
 191              		@ args = 0, pretend = 0, frame = 0
 192              		@ frame_needed = 0, uses_anonymous_args = 0
 193              		@ link register save eliminated.
 194              		.loc 1 56 47 view .LVU65
 195              		.loc 1 56 71 is_stmt 0 view .LVU66
 196 0000 0048     		ldr	r0, .L4
 197              	.LVL9:
 198              		.loc 1 56 71 view .LVU67
 199 0002 7047     		bx	lr
 200              	.L5:
 201              		.align	2
 202              	.L4:
 203 0004 00000000 		.word	.LC0
 204              		.cfi_endproc
 205              	.LFE320:
 206              		.cantunwind
 207              		.fnend
 209              		.section	.rodata._ZN8std_msgs4Time6getMD5Ev.str1.4,"aMS",%progbits,1
 210              		.align	2
 211              	.LC1:
 212 0000 63643731 		.ascii	"cd7166c74c552c311fbcc2fe5a7bc289\000"
 212      36366337 
 212      34633535 
 212      32633331 
 212      31666263 
 213              		.section	.text._ZN8std_msgs4Time6getMD5Ev,"axG",%progbits,_ZN8std_msgs4Time6getMD5Ev,comdat
 214              		.align	1
 215              		.weak	_ZN8std_msgs4Time6getMD5Ev
 216              		.syntax unified
 217              		.thumb
 218              		.thumb_func
 219              		.fpu softvfp
 221              	_ZN8std_msgs4Time6getMD5Ev:
 222              		.fnstart
 223              	.LVL10:
 224              	.LFB321:
  57:User/Inc/rosserialInc/std_msgs/Time.h ****     virtual const char * getMD5() override { return "cd7166c74c552c311fbcc2fe5a7bc289"; };
 225              		.loc 1 57 26 is_stmt 1 view -0
 226              		.cfi_startproc
 227              		@ args = 0, pretend = 0, frame = 0
 228              		@ frame_needed = 0, uses_anonymous_args = 0
ARM GAS  /tmp/ccBu519l.s 			page 6


 229              		@ link register save eliminated.
 230              		.loc 1 57 46 view .LVU69
 231              		.loc 1 57 89 is_stmt 0 view .LVU70
 232 0000 0048     		ldr	r0, .L7
 233              	.LVL11:
 234              		.loc 1 57 89 view .LVU71
 235 0002 7047     		bx	lr
 236              	.L8:
 237              		.align	2
 238              	.L7:
 239 0004 00000000 		.word	.LC1
 240              		.cfi_endproc
 241              	.LFE321:
 242              		.cantunwind
 243              		.fnend
 245              		.section	.rodata._ZN14rosserial_msgs9TopicInfo7getTypeEv.str1.4,"aMS",%progbits,1
 246              		.align	2
 247              	.LC2:
 248 0000 726F7373 		.ascii	"rosserial_msgs/TopicInfo\000"
 248      65726961 
 248      6C5F6D73 
 248      67732F54 
 248      6F706963 
 249              		.section	.text._ZN14rosserial_msgs9TopicInfo7getTypeEv,"axG",%progbits,_ZN14rosserial_msgs9TopicIn
 250              		.align	1
 251              		.weak	_ZN14rosserial_msgs9TopicInfo7getTypeEv
 252              		.syntax unified
 253              		.thumb
 254              		.thumb_func
 255              		.fpu softvfp
 257              	_ZN14rosserial_msgs9TopicInfo7getTypeEv:
 258              		.fnstart
 259              	.LVL12:
 260              	.LFB327:
 261              		.file 2 "User/Inc/rosserialInc/rosserial_msgs/TopicInfo.h"
   1:User/Inc/rosserialInc/rosserial_msgs/TopicInfo.h **** #ifndef _ROS_rosserial_msgs_TopicInfo_h
   2:User/Inc/rosserialInc/rosserial_msgs/TopicInfo.h **** #define _ROS_rosserial_msgs_TopicInfo_h
   3:User/Inc/rosserialInc/rosserial_msgs/TopicInfo.h **** 
   4:User/Inc/rosserialInc/rosserial_msgs/TopicInfo.h **** #include <stdint.h>
   5:User/Inc/rosserialInc/rosserial_msgs/TopicInfo.h **** #include <string.h>
   6:User/Inc/rosserialInc/rosserial_msgs/TopicInfo.h **** #include <stdlib.h>
   7:User/Inc/rosserialInc/rosserial_msgs/TopicInfo.h **** #include "ros/msg.h"
   8:User/Inc/rosserialInc/rosserial_msgs/TopicInfo.h **** 
   9:User/Inc/rosserialInc/rosserial_msgs/TopicInfo.h **** namespace rosserial_msgs
  10:User/Inc/rosserialInc/rosserial_msgs/TopicInfo.h **** {
  11:User/Inc/rosserialInc/rosserial_msgs/TopicInfo.h **** 
  12:User/Inc/rosserialInc/rosserial_msgs/TopicInfo.h ****   class TopicInfo : public ros::Msg
  13:User/Inc/rosserialInc/rosserial_msgs/TopicInfo.h ****   {
  14:User/Inc/rosserialInc/rosserial_msgs/TopicInfo.h ****     public:
  15:User/Inc/rosserialInc/rosserial_msgs/TopicInfo.h ****       typedef uint16_t _topic_id_type;
  16:User/Inc/rosserialInc/rosserial_msgs/TopicInfo.h ****       _topic_id_type topic_id;
  17:User/Inc/rosserialInc/rosserial_msgs/TopicInfo.h ****       typedef const char* _topic_name_type;
  18:User/Inc/rosserialInc/rosserial_msgs/TopicInfo.h ****       _topic_name_type topic_name;
  19:User/Inc/rosserialInc/rosserial_msgs/TopicInfo.h ****       typedef const char* _message_type_type;
  20:User/Inc/rosserialInc/rosserial_msgs/TopicInfo.h ****       _message_type_type message_type;
  21:User/Inc/rosserialInc/rosserial_msgs/TopicInfo.h ****       typedef const char* _md5sum_type;
  22:User/Inc/rosserialInc/rosserial_msgs/TopicInfo.h ****       _md5sum_type md5sum;
ARM GAS  /tmp/ccBu519l.s 			page 7


  23:User/Inc/rosserialInc/rosserial_msgs/TopicInfo.h ****       typedef int32_t _buffer_size_type;
  24:User/Inc/rosserialInc/rosserial_msgs/TopicInfo.h ****       _buffer_size_type buffer_size;
  25:User/Inc/rosserialInc/rosserial_msgs/TopicInfo.h ****       enum { ID_PUBLISHER = 0 };
  26:User/Inc/rosserialInc/rosserial_msgs/TopicInfo.h ****       enum { ID_SUBSCRIBER = 1 };
  27:User/Inc/rosserialInc/rosserial_msgs/TopicInfo.h ****       enum { ID_SERVICE_SERVER = 2 };
  28:User/Inc/rosserialInc/rosserial_msgs/TopicInfo.h ****       enum { ID_SERVICE_CLIENT = 4 };
  29:User/Inc/rosserialInc/rosserial_msgs/TopicInfo.h ****       enum { ID_PARAMETER_REQUEST = 6 };
  30:User/Inc/rosserialInc/rosserial_msgs/TopicInfo.h ****       enum { ID_LOG = 7 };
  31:User/Inc/rosserialInc/rosserial_msgs/TopicInfo.h ****       enum { ID_TIME = 10 };
  32:User/Inc/rosserialInc/rosserial_msgs/TopicInfo.h ****       enum { ID_TX_STOP = 11 };
  33:User/Inc/rosserialInc/rosserial_msgs/TopicInfo.h **** 
  34:User/Inc/rosserialInc/rosserial_msgs/TopicInfo.h ****     TopicInfo():
  35:User/Inc/rosserialInc/rosserial_msgs/TopicInfo.h ****       topic_id(0),
  36:User/Inc/rosserialInc/rosserial_msgs/TopicInfo.h ****       topic_name(""),
  37:User/Inc/rosserialInc/rosserial_msgs/TopicInfo.h ****       message_type(""),
  38:User/Inc/rosserialInc/rosserial_msgs/TopicInfo.h ****       md5sum(""),
  39:User/Inc/rosserialInc/rosserial_msgs/TopicInfo.h ****       buffer_size(0)
  40:User/Inc/rosserialInc/rosserial_msgs/TopicInfo.h ****     {
  41:User/Inc/rosserialInc/rosserial_msgs/TopicInfo.h ****     }
  42:User/Inc/rosserialInc/rosserial_msgs/TopicInfo.h **** 
  43:User/Inc/rosserialInc/rosserial_msgs/TopicInfo.h ****     virtual int serialize(unsigned char *outbuffer) const override
  44:User/Inc/rosserialInc/rosserial_msgs/TopicInfo.h ****     {
  45:User/Inc/rosserialInc/rosserial_msgs/TopicInfo.h ****       int offset = 0;
  46:User/Inc/rosserialInc/rosserial_msgs/TopicInfo.h ****       *(outbuffer + offset + 0) = (this->topic_id >> (8 * 0)) & 0xFF;
  47:User/Inc/rosserialInc/rosserial_msgs/TopicInfo.h ****       *(outbuffer + offset + 1) = (this->topic_id >> (8 * 1)) & 0xFF;
  48:User/Inc/rosserialInc/rosserial_msgs/TopicInfo.h ****       offset += sizeof(this->topic_id);
  49:User/Inc/rosserialInc/rosserial_msgs/TopicInfo.h ****       uint32_t length_topic_name = strlen(this->topic_name);
  50:User/Inc/rosserialInc/rosserial_msgs/TopicInfo.h ****       varToArr(outbuffer + offset, length_topic_name);
  51:User/Inc/rosserialInc/rosserial_msgs/TopicInfo.h ****       offset += 4;
  52:User/Inc/rosserialInc/rosserial_msgs/TopicInfo.h ****       memcpy(outbuffer + offset, this->topic_name, length_topic_name);
  53:User/Inc/rosserialInc/rosserial_msgs/TopicInfo.h ****       offset += length_topic_name;
  54:User/Inc/rosserialInc/rosserial_msgs/TopicInfo.h ****       uint32_t length_message_type = strlen(this->message_type);
  55:User/Inc/rosserialInc/rosserial_msgs/TopicInfo.h ****       varToArr(outbuffer + offset, length_message_type);
  56:User/Inc/rosserialInc/rosserial_msgs/TopicInfo.h ****       offset += 4;
  57:User/Inc/rosserialInc/rosserial_msgs/TopicInfo.h ****       memcpy(outbuffer + offset, this->message_type, length_message_type);
  58:User/Inc/rosserialInc/rosserial_msgs/TopicInfo.h ****       offset += length_message_type;
  59:User/Inc/rosserialInc/rosserial_msgs/TopicInfo.h ****       uint32_t length_md5sum = strlen(this->md5sum);
  60:User/Inc/rosserialInc/rosserial_msgs/TopicInfo.h ****       varToArr(outbuffer + offset, length_md5sum);
  61:User/Inc/rosserialInc/rosserial_msgs/TopicInfo.h ****       offset += 4;
  62:User/Inc/rosserialInc/rosserial_msgs/TopicInfo.h ****       memcpy(outbuffer + offset, this->md5sum, length_md5sum);
  63:User/Inc/rosserialInc/rosserial_msgs/TopicInfo.h ****       offset += length_md5sum;
  64:User/Inc/rosserialInc/rosserial_msgs/TopicInfo.h ****       union {
  65:User/Inc/rosserialInc/rosserial_msgs/TopicInfo.h ****         int32_t real;
  66:User/Inc/rosserialInc/rosserial_msgs/TopicInfo.h ****         uint32_t base;
  67:User/Inc/rosserialInc/rosserial_msgs/TopicInfo.h ****       } u_buffer_size;
  68:User/Inc/rosserialInc/rosserial_msgs/TopicInfo.h ****       u_buffer_size.real = this->buffer_size;
  69:User/Inc/rosserialInc/rosserial_msgs/TopicInfo.h ****       *(outbuffer + offset + 0) = (u_buffer_size.base >> (8 * 0)) & 0xFF;
  70:User/Inc/rosserialInc/rosserial_msgs/TopicInfo.h ****       *(outbuffer + offset + 1) = (u_buffer_size.base >> (8 * 1)) & 0xFF;
  71:User/Inc/rosserialInc/rosserial_msgs/TopicInfo.h ****       *(outbuffer + offset + 2) = (u_buffer_size.base >> (8 * 2)) & 0xFF;
  72:User/Inc/rosserialInc/rosserial_msgs/TopicInfo.h ****       *(outbuffer + offset + 3) = (u_buffer_size.base >> (8 * 3)) & 0xFF;
  73:User/Inc/rosserialInc/rosserial_msgs/TopicInfo.h ****       offset += sizeof(this->buffer_size);
  74:User/Inc/rosserialInc/rosserial_msgs/TopicInfo.h ****       return offset;
  75:User/Inc/rosserialInc/rosserial_msgs/TopicInfo.h ****     }
  76:User/Inc/rosserialInc/rosserial_msgs/TopicInfo.h **** 
  77:User/Inc/rosserialInc/rosserial_msgs/TopicInfo.h ****     virtual int deserialize(unsigned char *inbuffer) override
  78:User/Inc/rosserialInc/rosserial_msgs/TopicInfo.h ****     {
  79:User/Inc/rosserialInc/rosserial_msgs/TopicInfo.h ****       int offset = 0;
ARM GAS  /tmp/ccBu519l.s 			page 8


  80:User/Inc/rosserialInc/rosserial_msgs/TopicInfo.h ****       this->topic_id =  ((uint16_t) (*(inbuffer + offset)));
  81:User/Inc/rosserialInc/rosserial_msgs/TopicInfo.h ****       this->topic_id |= ((uint16_t) (*(inbuffer + offset + 1))) << (8 * 1);
  82:User/Inc/rosserialInc/rosserial_msgs/TopicInfo.h ****       offset += sizeof(this->topic_id);
  83:User/Inc/rosserialInc/rosserial_msgs/TopicInfo.h ****       uint32_t length_topic_name;
  84:User/Inc/rosserialInc/rosserial_msgs/TopicInfo.h ****       arrToVar(length_topic_name, (inbuffer + offset));
  85:User/Inc/rosserialInc/rosserial_msgs/TopicInfo.h ****       offset += 4;
  86:User/Inc/rosserialInc/rosserial_msgs/TopicInfo.h ****       for(unsigned int k= offset; k< offset+length_topic_name; ++k){
  87:User/Inc/rosserialInc/rosserial_msgs/TopicInfo.h ****           inbuffer[k-1]=inbuffer[k];
  88:User/Inc/rosserialInc/rosserial_msgs/TopicInfo.h ****       }
  89:User/Inc/rosserialInc/rosserial_msgs/TopicInfo.h ****       inbuffer[offset+length_topic_name-1]=0;
  90:User/Inc/rosserialInc/rosserial_msgs/TopicInfo.h ****       this->topic_name = (char *)(inbuffer + offset-1);
  91:User/Inc/rosserialInc/rosserial_msgs/TopicInfo.h ****       offset += length_topic_name;
  92:User/Inc/rosserialInc/rosserial_msgs/TopicInfo.h ****       uint32_t length_message_type;
  93:User/Inc/rosserialInc/rosserial_msgs/TopicInfo.h ****       arrToVar(length_message_type, (inbuffer + offset));
  94:User/Inc/rosserialInc/rosserial_msgs/TopicInfo.h ****       offset += 4;
  95:User/Inc/rosserialInc/rosserial_msgs/TopicInfo.h ****       for(unsigned int k= offset; k< offset+length_message_type; ++k){
  96:User/Inc/rosserialInc/rosserial_msgs/TopicInfo.h ****           inbuffer[k-1]=inbuffer[k];
  97:User/Inc/rosserialInc/rosserial_msgs/TopicInfo.h ****       }
  98:User/Inc/rosserialInc/rosserial_msgs/TopicInfo.h ****       inbuffer[offset+length_message_type-1]=0;
  99:User/Inc/rosserialInc/rosserial_msgs/TopicInfo.h ****       this->message_type = (char *)(inbuffer + offset-1);
 100:User/Inc/rosserialInc/rosserial_msgs/TopicInfo.h ****       offset += length_message_type;
 101:User/Inc/rosserialInc/rosserial_msgs/TopicInfo.h ****       uint32_t length_md5sum;
 102:User/Inc/rosserialInc/rosserial_msgs/TopicInfo.h ****       arrToVar(length_md5sum, (inbuffer + offset));
 103:User/Inc/rosserialInc/rosserial_msgs/TopicInfo.h ****       offset += 4;
 104:User/Inc/rosserialInc/rosserial_msgs/TopicInfo.h ****       for(unsigned int k= offset; k< offset+length_md5sum; ++k){
 105:User/Inc/rosserialInc/rosserial_msgs/TopicInfo.h ****           inbuffer[k-1]=inbuffer[k];
 106:User/Inc/rosserialInc/rosserial_msgs/TopicInfo.h ****       }
 107:User/Inc/rosserialInc/rosserial_msgs/TopicInfo.h ****       inbuffer[offset+length_md5sum-1]=0;
 108:User/Inc/rosserialInc/rosserial_msgs/TopicInfo.h ****       this->md5sum = (char *)(inbuffer + offset-1);
 109:User/Inc/rosserialInc/rosserial_msgs/TopicInfo.h ****       offset += length_md5sum;
 110:User/Inc/rosserialInc/rosserial_msgs/TopicInfo.h ****       union {
 111:User/Inc/rosserialInc/rosserial_msgs/TopicInfo.h ****         int32_t real;
 112:User/Inc/rosserialInc/rosserial_msgs/TopicInfo.h ****         uint32_t base;
 113:User/Inc/rosserialInc/rosserial_msgs/TopicInfo.h ****       } u_buffer_size;
 114:User/Inc/rosserialInc/rosserial_msgs/TopicInfo.h ****       u_buffer_size.base = 0;
 115:User/Inc/rosserialInc/rosserial_msgs/TopicInfo.h ****       u_buffer_size.base |= ((uint32_t) (*(inbuffer + offset + 0))) << (8 * 0);
 116:User/Inc/rosserialInc/rosserial_msgs/TopicInfo.h ****       u_buffer_size.base |= ((uint32_t) (*(inbuffer + offset + 1))) << (8 * 1);
 117:User/Inc/rosserialInc/rosserial_msgs/TopicInfo.h ****       u_buffer_size.base |= ((uint32_t) (*(inbuffer + offset + 2))) << (8 * 2);
 118:User/Inc/rosserialInc/rosserial_msgs/TopicInfo.h ****       u_buffer_size.base |= ((uint32_t) (*(inbuffer + offset + 3))) << (8 * 3);
 119:User/Inc/rosserialInc/rosserial_msgs/TopicInfo.h ****       this->buffer_size = u_buffer_size.real;
 120:User/Inc/rosserialInc/rosserial_msgs/TopicInfo.h ****       offset += sizeof(this->buffer_size);
 121:User/Inc/rosserialInc/rosserial_msgs/TopicInfo.h ****      return offset;
 122:User/Inc/rosserialInc/rosserial_msgs/TopicInfo.h ****     }
 123:User/Inc/rosserialInc/rosserial_msgs/TopicInfo.h **** 
 124:User/Inc/rosserialInc/rosserial_msgs/TopicInfo.h ****     virtual const char * getType() override { return "rosserial_msgs/TopicInfo"; };
 262              		.loc 2 124 26 is_stmt 1 view -0
 263              		.cfi_startproc
 264              		@ args = 0, pretend = 0, frame = 0
 265              		@ frame_needed = 0, uses_anonymous_args = 0
 266              		@ link register save eliminated.
 267              		.loc 2 124 47 view .LVU73
 268              		.loc 2 124 82 is_stmt 0 view .LVU74
 269 0000 0048     		ldr	r0, .L10
 270              	.LVL13:
 271              		.loc 2 124 82 view .LVU75
 272 0002 7047     		bx	lr
 273              	.L11:
ARM GAS  /tmp/ccBu519l.s 			page 9


 274              		.align	2
 275              	.L10:
 276 0004 00000000 		.word	.LC2
 277              		.cfi_endproc
 278              	.LFE327:
 279              		.cantunwind
 280              		.fnend
 282              		.section	.rodata._ZN14rosserial_msgs9TopicInfo6getMD5Ev.str1.4,"aMS",%progbits,1
 283              		.align	2
 284              	.LC3:
 285 0000 30616435 		.ascii	"0ad51f88fc44892f8c10684077646005\000"
 285      31663838 
 285      66633434 
 285      38393266 
 285      38633130 
 286              		.section	.text._ZN14rosserial_msgs9TopicInfo6getMD5Ev,"axG",%progbits,_ZN14rosserial_msgs9TopicInf
 287              		.align	1
 288              		.weak	_ZN14rosserial_msgs9TopicInfo6getMD5Ev
 289              		.syntax unified
 290              		.thumb
 291              		.thumb_func
 292              		.fpu softvfp
 294              	_ZN14rosserial_msgs9TopicInfo6getMD5Ev:
 295              		.fnstart
 296              	.LVL14:
 297              	.LFB328:
 125:User/Inc/rosserialInc/rosserial_msgs/TopicInfo.h ****     virtual const char * getMD5() override { return "0ad51f88fc44892f8c10684077646005"; };
 298              		.loc 2 125 26 is_stmt 1 view -0
 299              		.cfi_startproc
 300              		@ args = 0, pretend = 0, frame = 0
 301              		@ frame_needed = 0, uses_anonymous_args = 0
 302              		@ link register save eliminated.
 303              		.loc 2 125 46 view .LVU77
 304              		.loc 2 125 89 is_stmt 0 view .LVU78
 305 0000 0048     		ldr	r0, .L13
 306              	.LVL15:
 307              		.loc 2 125 89 view .LVU79
 308 0002 7047     		bx	lr
 309              	.L14:
 310              		.align	2
 311              	.L13:
 312 0004 00000000 		.word	.LC3
 313              		.cfi_endproc
 314              	.LFE328:
 315              		.cantunwind
 316              		.fnend
 318              		.section	.text._ZNK14rosserial_msgs9TopicInfo9serializeEPh,"axG",%progbits,_ZNK14rosserial_msgs9To
 319              		.align	1
 320              		.weak	_ZNK14rosserial_msgs9TopicInfo9serializeEPh
 321              		.syntax unified
 322              		.thumb
 323              		.thumb_func
 324              		.fpu softvfp
 326              	_ZNK14rosserial_msgs9TopicInfo9serializeEPh:
 327              		.fnstart
 328              	.LVL16:
 329              	.LFB325:
ARM GAS  /tmp/ccBu519l.s 			page 10


  43:User/Inc/rosserialInc/rosserial_msgs/TopicInfo.h ****     {
 330              		.loc 2 43 17 is_stmt 1 view -0
 331              		.cfi_startproc
 332              		@ args = 0, pretend = 0, frame = 0
 333              		@ frame_needed = 0, uses_anonymous_args = 0
  43:User/Inc/rosserialInc/rosserial_msgs/TopicInfo.h ****     {
 334              		.loc 2 43 17 is_stmt 0 view .LVU81
 335 0000 2DE9F041 		push	{r4, r5, r6, r7, r8, lr}
 336              	.LCFI0:
 337              		.cfi_def_cfa_offset 24
 338              		.cfi_offset 4, -24
 339              		.cfi_offset 5, -20
 340              		.cfi_offset 6, -16
 341              		.cfi_offset 7, -12
 342              		.cfi_offset 8, -8
 343              		.cfi_offset 14, -4
 344 0004 0646     		mov	r6, r0
 345 0006 0D46     		mov	r5, r1
  45:User/Inc/rosserialInc/rosserial_msgs/TopicInfo.h ****       *(outbuffer + offset + 0) = (this->topic_id >> (8 * 0)) & 0xFF;
 346              		.loc 2 45 7 is_stmt 1 view .LVU82
 347              	.LVL17:
  46:User/Inc/rosserialInc/rosserial_msgs/TopicInfo.h ****       *(outbuffer + offset + 1) = (this->topic_id >> (8 * 1)) & 0xFF;
 348              		.loc 2 46 7 view .LVU83
  46:User/Inc/rosserialInc/rosserial_msgs/TopicInfo.h ****       *(outbuffer + offset + 1) = (this->topic_id >> (8 * 1)) & 0xFF;
 349              		.loc 2 46 42 is_stmt 0 view .LVU84
 350 0008 8388     		ldrh	r3, [r0, #4]
  46:User/Inc/rosserialInc/rosserial_msgs/TopicInfo.h ****       *(outbuffer + offset + 1) = (this->topic_id >> (8 * 1)) & 0xFF;
 351              		.loc 2 46 33 view .LVU85
 352 000a 0B70     		strb	r3, [r1]
  47:User/Inc/rosserialInc/rosserial_msgs/TopicInfo.h ****       offset += sizeof(this->topic_id);
 353              		.loc 2 47 7 is_stmt 1 view .LVU86
  47:User/Inc/rosserialInc/rosserial_msgs/TopicInfo.h ****       offset += sizeof(this->topic_id);
 354              		.loc 2 47 42 is_stmt 0 view .LVU87
 355 000c 8388     		ldrh	r3, [r0, #4]
  47:User/Inc/rosserialInc/rosserial_msgs/TopicInfo.h ****       offset += sizeof(this->topic_id);
 356              		.loc 2 47 51 view .LVU88
 357 000e 1B0A     		lsrs	r3, r3, #8
  47:User/Inc/rosserialInc/rosserial_msgs/TopicInfo.h ****       offset += sizeof(this->topic_id);
 358              		.loc 2 47 33 view .LVU89
 359 0010 4B70     		strb	r3, [r1, #1]
  48:User/Inc/rosserialInc/rosserial_msgs/TopicInfo.h ****       uint32_t length_topic_name = strlen(this->topic_name);
 360              		.loc 2 48 7 is_stmt 1 view .LVU90
 361              	.LVL18:
  49:User/Inc/rosserialInc/rosserial_msgs/TopicInfo.h ****       varToArr(outbuffer + offset, length_topic_name);
 362              		.loc 2 49 7 view .LVU91
  49:User/Inc/rosserialInc/rosserial_msgs/TopicInfo.h ****       varToArr(outbuffer + offset, length_topic_name);
 363              		.loc 2 49 42 is_stmt 0 view .LVU92
 364 0012 8068     		ldr	r0, [r0, #8]
 365              	.LVL19:
  49:User/Inc/rosserialInc/rosserial_msgs/TopicInfo.h ****       varToArr(outbuffer + offset, length_topic_name);
 366              		.loc 2 49 42 view .LVU93
 367 0014 FFF7FEFF 		bl	strlen
 368              	.LVL20:
  49:User/Inc/rosserialInc/rosserial_msgs/TopicInfo.h ****       varToArr(outbuffer + offset, length_topic_name);
 369              		.loc 2 49 42 view .LVU94
 370 0018 0446     		mov	r4, r0
 371              	.LVL21:
ARM GAS  /tmp/ccBu519l.s 			page 11


  50:User/Inc/rosserialInc/rosserial_msgs/TopicInfo.h ****       offset += 4;
 372              		.loc 2 50 7 is_stmt 1 view .LVU95
 373              	.LBB62:
 374              	.LBI62:
 375              		.file 3 "User/Inc/rosserialInc/ros/msg.h"
   1:User/Inc/rosserialInc/ros/msg.h **** /*
   2:User/Inc/rosserialInc/ros/msg.h ****  * Software License Agreement (BSD License)
   3:User/Inc/rosserialInc/ros/msg.h ****  *
   4:User/Inc/rosserialInc/ros/msg.h ****  * Copyright (c) 2011, Willow Garage, Inc.
   5:User/Inc/rosserialInc/ros/msg.h ****  * All rights reserved.
   6:User/Inc/rosserialInc/ros/msg.h ****  *
   7:User/Inc/rosserialInc/ros/msg.h ****  * Redistribution and use in source and binary forms, with or without
   8:User/Inc/rosserialInc/ros/msg.h ****  * modification, are permitted provided that the following conditions
   9:User/Inc/rosserialInc/ros/msg.h ****  * are met:
  10:User/Inc/rosserialInc/ros/msg.h ****  *
  11:User/Inc/rosserialInc/ros/msg.h ****  *  * Redistributions of source code must retain the above copyright
  12:User/Inc/rosserialInc/ros/msg.h ****  *    notice, this list of conditions and the following disclaimer.
  13:User/Inc/rosserialInc/ros/msg.h ****  *  * Redistributions in binary form must reproduce the above
  14:User/Inc/rosserialInc/ros/msg.h ****  *    copyright notice, this list of conditions and the following
  15:User/Inc/rosserialInc/ros/msg.h ****  *    disclaimer in the documentation and/or other materials provided
  16:User/Inc/rosserialInc/ros/msg.h ****  *    with the distribution.
  17:User/Inc/rosserialInc/ros/msg.h ****  *  * Neither the name of Willow Garage, Inc. nor the names of its
  18:User/Inc/rosserialInc/ros/msg.h ****  *    contributors may be used to endorse or promote prducts derived
  19:User/Inc/rosserialInc/ros/msg.h ****  *    from this software without specific prior written permission.
  20:User/Inc/rosserialInc/ros/msg.h ****  *
  21:User/Inc/rosserialInc/ros/msg.h ****  * THIS SOFTWARE IS PROVIDED BY THE COPYRIGHT HOLDERS AND CONTRIBUTORS
  22:User/Inc/rosserialInc/ros/msg.h ****  * "AS IS" AND ANY EXPRESS OR IMPLIED WARRANTIES, INCLUDING, BUT NOT
  23:User/Inc/rosserialInc/ros/msg.h ****  * LIMITED TO, THE IMPLIED WARRANTIES OF MERCHANTABILITY AND FITNESS
  24:User/Inc/rosserialInc/ros/msg.h ****  * FOR A PARTICULAR PURPOSE ARE DISCLAIMED. IN NO EVENT SHALL THE
  25:User/Inc/rosserialInc/ros/msg.h ****  * COPYRIGHT OWNER OR CONTRIBUTORS BE LIABLE FOR ANY DIRECT, INDIRECT,
  26:User/Inc/rosserialInc/ros/msg.h ****  * INCIDENTAL, SPECIAL, EXEMPLARY, OR CONSEQUENTIAL DAMAGES (INCLUDING,
  27:User/Inc/rosserialInc/ros/msg.h ****  * BUT NOT LIMITED TO, PROCUREMENT OF SUBSTITUTE GOODS OR SERVICES;
  28:User/Inc/rosserialInc/ros/msg.h ****  * LOSS OF USE, DATA, OR PROFITS; OR BUSINESS INTERRUPTION) HOWEVER
  29:User/Inc/rosserialInc/ros/msg.h ****  * CAUSED AND ON ANY THEORY OF LIABILITY, WHETHER IN CONTRACT, STRICT
  30:User/Inc/rosserialInc/ros/msg.h ****  * LIABILITY, OR TORT (INCLUDING NEGLIGENCE OR OTHERWISE) ARISING IN
  31:User/Inc/rosserialInc/ros/msg.h ****  * ANY WAY OUT OF THE USE OF THIS SOFTWARE, EVEN IF ADVISED OF THE
  32:User/Inc/rosserialInc/ros/msg.h ****  * POSSIBILITY OF SUCH DAMAGE.
  33:User/Inc/rosserialInc/ros/msg.h ****  */
  34:User/Inc/rosserialInc/ros/msg.h **** 
  35:User/Inc/rosserialInc/ros/msg.h **** #ifndef _ROS_MSG_H_
  36:User/Inc/rosserialInc/ros/msg.h **** #define _ROS_MSG_H_
  37:User/Inc/rosserialInc/ros/msg.h **** 
  38:User/Inc/rosserialInc/ros/msg.h **** #include <stdint.h>
  39:User/Inc/rosserialInc/ros/msg.h **** #include <stddef.h>
  40:User/Inc/rosserialInc/ros/msg.h **** #include <string.h>
  41:User/Inc/rosserialInc/ros/msg.h **** 
  42:User/Inc/rosserialInc/ros/msg.h **** namespace ros
  43:User/Inc/rosserialInc/ros/msg.h **** {
  44:User/Inc/rosserialInc/ros/msg.h **** 
  45:User/Inc/rosserialInc/ros/msg.h **** /* Base Message Type */
  46:User/Inc/rosserialInc/ros/msg.h **** class Msg
  47:User/Inc/rosserialInc/ros/msg.h **** {
  48:User/Inc/rosserialInc/ros/msg.h **** public:
  49:User/Inc/rosserialInc/ros/msg.h ****   virtual int serialize(unsigned char *outbuffer) const = 0;
  50:User/Inc/rosserialInc/ros/msg.h ****   virtual int deserialize(unsigned char *data) = 0;
  51:User/Inc/rosserialInc/ros/msg.h ****   virtual const char * getType() = 0;
  52:User/Inc/rosserialInc/ros/msg.h ****   virtual const char * getMD5() = 0;
ARM GAS  /tmp/ccBu519l.s 			page 12


  53:User/Inc/rosserialInc/ros/msg.h **** 
  54:User/Inc/rosserialInc/ros/msg.h ****   /**
  55:User/Inc/rosserialInc/ros/msg.h ****    * @brief This tricky function handles promoting a 32bit float to a 64bit
  56:User/Inc/rosserialInc/ros/msg.h ****    *        double, so that AVR can publish messages containing float64
  57:User/Inc/rosserialInc/ros/msg.h ****    *        fields, despite AVR having no native support for double.
  58:User/Inc/rosserialInc/ros/msg.h ****    *
  59:User/Inc/rosserialInc/ros/msg.h ****    * @param[out] outbuffer pointer for buffer to serialize to.
  60:User/Inc/rosserialInc/ros/msg.h ****    * @param[in] f value to serialize.
  61:User/Inc/rosserialInc/ros/msg.h ****    *
  62:User/Inc/rosserialInc/ros/msg.h ****    * @return number of bytes to advance the buffer pointer.
  63:User/Inc/rosserialInc/ros/msg.h ****    *
  64:User/Inc/rosserialInc/ros/msg.h ****    */
  65:User/Inc/rosserialInc/ros/msg.h ****   static int serializeAvrFloat64(unsigned char* outbuffer, const float f)
  66:User/Inc/rosserialInc/ros/msg.h ****   {
  67:User/Inc/rosserialInc/ros/msg.h ****     int32_t val;
  68:User/Inc/rosserialInc/ros/msg.h ****     memcpy(&val, &f, sizeof(val));
  69:User/Inc/rosserialInc/ros/msg.h **** 
  70:User/Inc/rosserialInc/ros/msg.h ****     int16_t exp = ((val >> 23) & 255);
  71:User/Inc/rosserialInc/ros/msg.h ****     uint32_t mantissa = val & 0x7FFFFF;
  72:User/Inc/rosserialInc/ros/msg.h **** 
  73:User/Inc/rosserialInc/ros/msg.h ****     if (exp == 255)
  74:User/Inc/rosserialInc/ros/msg.h ****     {
  75:User/Inc/rosserialInc/ros/msg.h ****       exp = 2047; // Special value for NaN, infinity etc.
  76:User/Inc/rosserialInc/ros/msg.h ****     }
  77:User/Inc/rosserialInc/ros/msg.h ****     else if (exp != 0)
  78:User/Inc/rosserialInc/ros/msg.h ****     {
  79:User/Inc/rosserialInc/ros/msg.h ****       exp += 1023 - 127; // Normal case
  80:User/Inc/rosserialInc/ros/msg.h ****     }
  81:User/Inc/rosserialInc/ros/msg.h ****     else if (!mantissa)
  82:User/Inc/rosserialInc/ros/msg.h ****     {
  83:User/Inc/rosserialInc/ros/msg.h ****       exp = 0; // Zero
  84:User/Inc/rosserialInc/ros/msg.h ****     }
  85:User/Inc/rosserialInc/ros/msg.h ****     else
  86:User/Inc/rosserialInc/ros/msg.h ****     {
  87:User/Inc/rosserialInc/ros/msg.h ****       // Denormalized value in float, will fit as normalized value in double
  88:User/Inc/rosserialInc/ros/msg.h ****       exp += 1023 - 127;
  89:User/Inc/rosserialInc/ros/msg.h ****       mantissa <<= 1;
  90:User/Inc/rosserialInc/ros/msg.h ****       while (!(mantissa & 0x800000))
  91:User/Inc/rosserialInc/ros/msg.h ****       {
  92:User/Inc/rosserialInc/ros/msg.h ****           mantissa <<= 1;
  93:User/Inc/rosserialInc/ros/msg.h ****           exp--;
  94:User/Inc/rosserialInc/ros/msg.h ****       }
  95:User/Inc/rosserialInc/ros/msg.h ****       mantissa &= 0x7FFFFF;
  96:User/Inc/rosserialInc/ros/msg.h ****     }
  97:User/Inc/rosserialInc/ros/msg.h **** 
  98:User/Inc/rosserialInc/ros/msg.h ****     *(outbuffer++) = 0;
  99:User/Inc/rosserialInc/ros/msg.h ****     *(outbuffer++) = 0;
 100:User/Inc/rosserialInc/ros/msg.h ****     *(outbuffer++) = 0;
 101:User/Inc/rosserialInc/ros/msg.h ****     *(outbuffer++) = (mantissa << 5) & 0xff;
 102:User/Inc/rosserialInc/ros/msg.h ****     *(outbuffer++) = (mantissa >> 3) & 0xff;
 103:User/Inc/rosserialInc/ros/msg.h ****     *(outbuffer++) = (mantissa >> 11) & 0xff;
 104:User/Inc/rosserialInc/ros/msg.h ****     *(outbuffer++) = ((exp << 4) & 0xF0) | ((mantissa >> 19) & 0x0F);
 105:User/Inc/rosserialInc/ros/msg.h ****     *(outbuffer++) = (exp >> 4) & 0x7F;
 106:User/Inc/rosserialInc/ros/msg.h **** 
 107:User/Inc/rosserialInc/ros/msg.h ****     // Mark negative bit as necessary.
 108:User/Inc/rosserialInc/ros/msg.h ****     if (f < 0)
 109:User/Inc/rosserialInc/ros/msg.h ****     {
ARM GAS  /tmp/ccBu519l.s 			page 13


 110:User/Inc/rosserialInc/ros/msg.h ****       *(outbuffer - 1) |= 0x80;
 111:User/Inc/rosserialInc/ros/msg.h ****     }
 112:User/Inc/rosserialInc/ros/msg.h **** 
 113:User/Inc/rosserialInc/ros/msg.h ****     return 8;
 114:User/Inc/rosserialInc/ros/msg.h ****   }
 115:User/Inc/rosserialInc/ros/msg.h **** 
 116:User/Inc/rosserialInc/ros/msg.h ****   /**
 117:User/Inc/rosserialInc/ros/msg.h ****    * @brief This tricky function handles demoting a 64bit double to a
 118:User/Inc/rosserialInc/ros/msg.h ****    *        32bit float, so that AVR can understand messages containing
 119:User/Inc/rosserialInc/ros/msg.h ****    *        float64 fields, despite AVR having no native support for double.
 120:User/Inc/rosserialInc/ros/msg.h ****    *
 121:User/Inc/rosserialInc/ros/msg.h ****    * @param[in] inbuffer pointer for buffer to deserialize from.
 122:User/Inc/rosserialInc/ros/msg.h ****    * @param[out] f pointer to place the deserialized value in.
 123:User/Inc/rosserialInc/ros/msg.h ****    *
 124:User/Inc/rosserialInc/ros/msg.h ****    * @return number of bytes to advance the buffer pointer.
 125:User/Inc/rosserialInc/ros/msg.h ****    */
 126:User/Inc/rosserialInc/ros/msg.h ****   static int deserializeAvrFloat64(const unsigned char* inbuffer, float* f)
 127:User/Inc/rosserialInc/ros/msg.h ****   {
 128:User/Inc/rosserialInc/ros/msg.h ****     int16_t exp;
 129:User/Inc/rosserialInc/ros/msg.h ****     uint32_t mantissa;
 130:User/Inc/rosserialInc/ros/msg.h **** 
 131:User/Inc/rosserialInc/ros/msg.h ****     // Skip lowest 24 bits
 132:User/Inc/rosserialInc/ros/msg.h ****     inbuffer += 3;
 133:User/Inc/rosserialInc/ros/msg.h **** 
 134:User/Inc/rosserialInc/ros/msg.h ****     // Copy truncated mantissa.
 135:User/Inc/rosserialInc/ros/msg.h ****     mantissa = ((uint32_t)(*(inbuffer++)) >> 4 & 0x0F);
 136:User/Inc/rosserialInc/ros/msg.h ****     mantissa |= ((uint32_t)(*(inbuffer++)) & 0xff) << 4;
 137:User/Inc/rosserialInc/ros/msg.h ****     mantissa |= ((uint32_t)(*(inbuffer++)) & 0xff) << 12;
 138:User/Inc/rosserialInc/ros/msg.h ****     mantissa |= ((uint32_t)(*inbuffer) & 0x0f) << 20;
 139:User/Inc/rosserialInc/ros/msg.h **** 
 140:User/Inc/rosserialInc/ros/msg.h ****     // Copy exponent.
 141:User/Inc/rosserialInc/ros/msg.h ****     exp = ((uint32_t)(*(inbuffer++)) & 0xf0) >> 4;
 142:User/Inc/rosserialInc/ros/msg.h ****     exp |= ((uint32_t)(*inbuffer) & 0x7f) << 4;
 143:User/Inc/rosserialInc/ros/msg.h **** 
 144:User/Inc/rosserialInc/ros/msg.h ****     if (exp == 2047)
 145:User/Inc/rosserialInc/ros/msg.h ****     {
 146:User/Inc/rosserialInc/ros/msg.h ****       exp = 255; // NaN, infinity etc.
 147:User/Inc/rosserialInc/ros/msg.h ****     }
 148:User/Inc/rosserialInc/ros/msg.h ****     else if (exp - 1023 > 127)
 149:User/Inc/rosserialInc/ros/msg.h ****     {
 150:User/Inc/rosserialInc/ros/msg.h ****       exp = 255;
 151:User/Inc/rosserialInc/ros/msg.h ****       mantissa = 0; // Too large for float, convert to infinity
 152:User/Inc/rosserialInc/ros/msg.h ****     }
 153:User/Inc/rosserialInc/ros/msg.h ****     else if (exp - 1023 >= -126)
 154:User/Inc/rosserialInc/ros/msg.h ****     {
 155:User/Inc/rosserialInc/ros/msg.h ****       exp -= 1023 - 127; // Normal case
 156:User/Inc/rosserialInc/ros/msg.h ****     }
 157:User/Inc/rosserialInc/ros/msg.h ****     else if (exp - 1023 < -150)
 158:User/Inc/rosserialInc/ros/msg.h ****     {
 159:User/Inc/rosserialInc/ros/msg.h ****       exp = 0; // Too small or zero
 160:User/Inc/rosserialInc/ros/msg.h ****     }
 161:User/Inc/rosserialInc/ros/msg.h ****     else
 162:User/Inc/rosserialInc/ros/msg.h ****     {
 163:User/Inc/rosserialInc/ros/msg.h ****       // Have to convert to denormalized representation for float
 164:User/Inc/rosserialInc/ros/msg.h ****       mantissa |= 0x1000000;
 165:User/Inc/rosserialInc/ros/msg.h ****       mantissa >>= ((-126 + 1023) - exp);
 166:User/Inc/rosserialInc/ros/msg.h ****       exp = 0;
ARM GAS  /tmp/ccBu519l.s 			page 14


 167:User/Inc/rosserialInc/ros/msg.h ****     }
 168:User/Inc/rosserialInc/ros/msg.h **** 
 169:User/Inc/rosserialInc/ros/msg.h ****     // Round off mantissa
 170:User/Inc/rosserialInc/ros/msg.h ****     if (mantissa != 0xFFFFFF)
 171:User/Inc/rosserialInc/ros/msg.h ****       mantissa += 1;
 172:User/Inc/rosserialInc/ros/msg.h **** 
 173:User/Inc/rosserialInc/ros/msg.h ****     mantissa >>= 1;
 174:User/Inc/rosserialInc/ros/msg.h **** 
 175:User/Inc/rosserialInc/ros/msg.h ****     // Put mantissa and exponent into place
 176:User/Inc/rosserialInc/ros/msg.h ****     uint32_t val = mantissa;
 177:User/Inc/rosserialInc/ros/msg.h ****     val |= static_cast<uint32_t>(exp) << 23;
 178:User/Inc/rosserialInc/ros/msg.h **** 
 179:User/Inc/rosserialInc/ros/msg.h ****     // Copy negative sign.
 180:User/Inc/rosserialInc/ros/msg.h ****     val |= (static_cast<uint32_t>(*(inbuffer++)) & 0x80) << 24;
 181:User/Inc/rosserialInc/ros/msg.h **** 
 182:User/Inc/rosserialInc/ros/msg.h ****     memcpy(f, &val, sizeof(val));
 183:User/Inc/rosserialInc/ros/msg.h ****     return 8;
 184:User/Inc/rosserialInc/ros/msg.h ****   }
 185:User/Inc/rosserialInc/ros/msg.h **** 
 186:User/Inc/rosserialInc/ros/msg.h ****   // Copy data from variable into a byte array
 187:User/Inc/rosserialInc/ros/msg.h ****   template<typename A, typename V>
 188:User/Inc/rosserialInc/ros/msg.h ****   static void varToArr(A arr, const V var)
 376              		.loc 3 188 15 view .LVU96
 377              	.LBB63:
 189:User/Inc/rosserialInc/ros/msg.h ****   {
 190:User/Inc/rosserialInc/ros/msg.h ****     for (size_t i = 0; i < sizeof(V); i++)
 378              		.loc 3 190 17 is_stmt 0 view .LVU97
 379 001a 0023     		movs	r3, #0
 380 001c 05E0     		b	.L17
 381              	.LVL22:
 382              	.L23:
 191:User/Inc/rosserialInc/ros/msg.h ****       arr[i] = (var >> (8 * i));
 383              		.loc 3 191 27 view .LVU98
 384 001e DA00     		lsls	r2, r3, #3
 385              		.loc 3 191 21 view .LVU99
 386 0020 24FA02F2 		lsr	r2, r4, r2
 387              		.loc 3 191 10 view .LVU100
 388 0024 991C     		adds	r1, r3, #2
 389              		.loc 3 191 14 view .LVU101
 390 0026 6A54     		strb	r2, [r5, r1]
 190:User/Inc/rosserialInc/ros/msg.h ****       arr[i] = (var >> (8 * i));
 391              		.loc 3 190 5 is_stmt 1 view .LVU102
 392 0028 0133     		adds	r3, r3, #1
 393              	.LVL23:
 394              	.L17:
 190:User/Inc/rosserialInc/ros/msg.h ****       arr[i] = (var >> (8 * i));
 395              		.loc 3 190 26 view .LVU103
 396 002a 032B     		cmp	r3, #3
 397 002c F7D9     		bls	.L23
 398              	.LVL24:
 190:User/Inc/rosserialInc/ros/msg.h ****       arr[i] = (var >> (8 * i));
 399              		.loc 3 190 26 is_stmt 0 view .LVU104
 400              	.LBE63:
 401              	.LBE62:
  51:User/Inc/rosserialInc/rosserial_msgs/TopicInfo.h ****       memcpy(outbuffer + offset, this->topic_name, length_topic_name);
 402              		.loc 2 51 7 is_stmt 1 view .LVU105
  52:User/Inc/rosserialInc/rosserial_msgs/TopicInfo.h ****       offset += length_topic_name;
ARM GAS  /tmp/ccBu519l.s 			page 15


 403              		.loc 2 52 7 view .LVU106
  52:User/Inc/rosserialInc/rosserial_msgs/TopicInfo.h ****       offset += length_topic_name;
 404              		.loc 2 52 13 is_stmt 0 view .LVU107
 405 002e 2246     		mov	r2, r4
 406 0030 B168     		ldr	r1, [r6, #8]
 407 0032 A81D     		adds	r0, r5, #6
 408              	.LVL25:
  52:User/Inc/rosserialInc/rosserial_msgs/TopicInfo.h ****       offset += length_topic_name;
 409              		.loc 2 52 13 view .LVU108
 410 0034 FFF7FEFF 		bl	memcpy
 411              	.LVL26:
  53:User/Inc/rosserialInc/rosserial_msgs/TopicInfo.h ****       uint32_t length_message_type = strlen(this->message_type);
 412              		.loc 2 53 7 is_stmt 1 view .LVU109
  53:User/Inc/rosserialInc/rosserial_msgs/TopicInfo.h ****       uint32_t length_message_type = strlen(this->message_type);
 413              		.loc 2 53 14 is_stmt 0 view .LVU110
 414 0038 04F10608 		add	r8, r4, #6
 415              	.LVL27:
  54:User/Inc/rosserialInc/rosserial_msgs/TopicInfo.h ****       varToArr(outbuffer + offset, length_message_type);
 416              		.loc 2 54 7 is_stmt 1 view .LVU111
  54:User/Inc/rosserialInc/rosserial_msgs/TopicInfo.h ****       varToArr(outbuffer + offset, length_message_type);
 417              		.loc 2 54 44 is_stmt 0 view .LVU112
 418 003c F068     		ldr	r0, [r6, #12]
 419 003e FFF7FEFF 		bl	strlen
 420              	.LVL28:
 421 0042 0746     		mov	r7, r0
 422              	.LVL29:
  55:User/Inc/rosserialInc/rosserial_msgs/TopicInfo.h ****       offset += 4;
 423              		.loc 2 55 7 is_stmt 1 view .LVU113
 424              	.LBB64:
 425              	.LBI64:
 188:User/Inc/rosserialInc/ros/msg.h ****   {
 426              		.loc 3 188 15 view .LVU114
 427              	.LBB65:
 190:User/Inc/rosserialInc/ros/msg.h ****       arr[i] = (var >> (8 * i));
 428              		.loc 3 190 17 is_stmt 0 view .LVU115
 429 0044 0023     		movs	r3, #0
 430 0046 06E0     		b	.L19
 431              	.LVL30:
 432              	.L24:
 433              		.loc 3 191 27 view .LVU116
 434 0048 D900     		lsls	r1, r3, #3
 435              		.loc 3 191 21 view .LVU117
 436 004a 27FA01F1 		lsr	r1, r7, r1
 437              		.loc 3 191 10 view .LVU118
 438 004e 08EB0302 		add	r2, r8, r3
 439              		.loc 3 191 14 view .LVU119
 440 0052 A954     		strb	r1, [r5, r2]
 190:User/Inc/rosserialInc/ros/msg.h ****       arr[i] = (var >> (8 * i));
 441              		.loc 3 190 5 is_stmt 1 view .LVU120
 442 0054 0133     		adds	r3, r3, #1
 443              	.LVL31:
 444              	.L19:
 190:User/Inc/rosserialInc/ros/msg.h ****       arr[i] = (var >> (8 * i));
 445              		.loc 3 190 26 view .LVU121
 446 0056 032B     		cmp	r3, #3
 447 0058 F6D9     		bls	.L24
 448              	.LVL32:
ARM GAS  /tmp/ccBu519l.s 			page 16


 190:User/Inc/rosserialInc/ros/msg.h ****       arr[i] = (var >> (8 * i));
 449              		.loc 3 190 26 is_stmt 0 view .LVU122
 450              	.LBE65:
 451              	.LBE64:
  56:User/Inc/rosserialInc/rosserial_msgs/TopicInfo.h ****       memcpy(outbuffer + offset, this->message_type, length_message_type);
 452              		.loc 2 56 7 is_stmt 1 view .LVU123
 453 005a 0A34     		adds	r4, r4, #10
 454              	.LVL33:
  57:User/Inc/rosserialInc/rosserial_msgs/TopicInfo.h ****       offset += length_message_type;
 455              		.loc 2 57 7 view .LVU124
  57:User/Inc/rosserialInc/rosserial_msgs/TopicInfo.h ****       offset += length_message_type;
 456              		.loc 2 57 13 is_stmt 0 view .LVU125
 457 005c 3A46     		mov	r2, r7
 458 005e F168     		ldr	r1, [r6, #12]
 459 0060 2819     		adds	r0, r5, r4
 460              	.LVL34:
  57:User/Inc/rosserialInc/rosserial_msgs/TopicInfo.h ****       offset += length_message_type;
 461              		.loc 2 57 13 view .LVU126
 462 0062 FFF7FEFF 		bl	memcpy
 463              	.LVL35:
  58:User/Inc/rosserialInc/rosserial_msgs/TopicInfo.h ****       uint32_t length_md5sum = strlen(this->md5sum);
 464              		.loc 2 58 7 is_stmt 1 view .LVU127
  58:User/Inc/rosserialInc/rosserial_msgs/TopicInfo.h ****       uint32_t length_md5sum = strlen(this->md5sum);
 465              		.loc 2 58 14 is_stmt 0 view .LVU128
 466 0066 3C44     		add	r4, r4, r7
 467              	.LVL36:
  59:User/Inc/rosserialInc/rosserial_msgs/TopicInfo.h ****       varToArr(outbuffer + offset, length_md5sum);
 468              		.loc 2 59 7 is_stmt 1 view .LVU129
  59:User/Inc/rosserialInc/rosserial_msgs/TopicInfo.h ****       varToArr(outbuffer + offset, length_md5sum);
 469              		.loc 2 59 38 is_stmt 0 view .LVU130
 470 0068 3069     		ldr	r0, [r6, #16]
 471 006a FFF7FEFF 		bl	strlen
 472              	.LVL37:
 473 006e 0746     		mov	r7, r0
 474              	.LVL38:
  60:User/Inc/rosserialInc/rosserial_msgs/TopicInfo.h ****       offset += 4;
 475              		.loc 2 60 7 is_stmt 1 view .LVU131
 476              	.LBB66:
 477              	.LBI66:
 188:User/Inc/rosserialInc/ros/msg.h ****   {
 478              		.loc 3 188 15 view .LVU132
 479              	.LBB67:
 190:User/Inc/rosserialInc/ros/msg.h ****       arr[i] = (var >> (8 * i));
 480              		.loc 3 190 17 is_stmt 0 view .LVU133
 481 0070 0023     		movs	r3, #0
 482 0072 05E0     		b	.L21
 483              	.LVL39:
 484              	.L25:
 485              		.loc 3 191 27 view .LVU134
 486 0074 D900     		lsls	r1, r3, #3
 487              		.loc 3 191 21 view .LVU135
 488 0076 27FA01F1 		lsr	r1, r7, r1
 489              		.loc 3 191 10 view .LVU136
 490 007a E218     		adds	r2, r4, r3
 491              		.loc 3 191 14 view .LVU137
 492 007c A954     		strb	r1, [r5, r2]
 190:User/Inc/rosserialInc/ros/msg.h ****       arr[i] = (var >> (8 * i));
ARM GAS  /tmp/ccBu519l.s 			page 17


 493              		.loc 3 190 5 is_stmt 1 view .LVU138
 494 007e 0133     		adds	r3, r3, #1
 495              	.LVL40:
 496              	.L21:
 190:User/Inc/rosserialInc/ros/msg.h ****       arr[i] = (var >> (8 * i));
 497              		.loc 3 190 26 view .LVU139
 498 0080 032B     		cmp	r3, #3
 499 0082 F7D9     		bls	.L25
 500              	.LVL41:
 190:User/Inc/rosserialInc/ros/msg.h ****       arr[i] = (var >> (8 * i));
 501              		.loc 3 190 26 is_stmt 0 view .LVU140
 502              	.LBE67:
 503              	.LBE66:
  61:User/Inc/rosserialInc/rosserial_msgs/TopicInfo.h ****       memcpy(outbuffer + offset, this->md5sum, length_md5sum);
 504              		.loc 2 61 7 is_stmt 1 view .LVU141
  61:User/Inc/rosserialInc/rosserial_msgs/TopicInfo.h ****       memcpy(outbuffer + offset, this->md5sum, length_md5sum);
 505              		.loc 2 61 14 is_stmt 0 view .LVU142
 506 0084 0434     		adds	r4, r4, #4
 507              	.LVL42:
  62:User/Inc/rosserialInc/rosserial_msgs/TopicInfo.h ****       offset += length_md5sum;
 508              		.loc 2 62 7 is_stmt 1 view .LVU143
  62:User/Inc/rosserialInc/rosserial_msgs/TopicInfo.h ****       offset += length_md5sum;
 509              		.loc 2 62 13 is_stmt 0 view .LVU144
 510 0086 3A46     		mov	r2, r7
 511 0088 3169     		ldr	r1, [r6, #16]
 512 008a 2819     		adds	r0, r5, r4
 513              	.LVL43:
  62:User/Inc/rosserialInc/rosserial_msgs/TopicInfo.h ****       offset += length_md5sum;
 514              		.loc 2 62 13 view .LVU145
 515 008c FFF7FEFF 		bl	memcpy
 516              	.LVL44:
  63:User/Inc/rosserialInc/rosserial_msgs/TopicInfo.h ****       union {
 517              		.loc 2 63 7 is_stmt 1 view .LVU146
  63:User/Inc/rosserialInc/rosserial_msgs/TopicInfo.h ****       union {
 518              		.loc 2 63 14 is_stmt 0 view .LVU147
 519 0090 E019     		adds	r0, r4, r7
 520              	.LVL45:
  64:User/Inc/rosserialInc/rosserial_msgs/TopicInfo.h ****         int32_t real;
 521              		.loc 2 64 7 is_stmt 1 view .LVU148
  68:User/Inc/rosserialInc/rosserial_msgs/TopicInfo.h ****       *(outbuffer + offset + 0) = (u_buffer_size.base >> (8 * 0)) & 0xFF;
 522              		.loc 2 68 7 view .LVU149
  68:User/Inc/rosserialInc/rosserial_msgs/TopicInfo.h ****       *(outbuffer + offset + 0) = (u_buffer_size.base >> (8 * 0)) & 0xFF;
 523              		.loc 2 68 34 is_stmt 0 view .LVU150
 524 0092 7369     		ldr	r3, [r6, #20]
  69:User/Inc/rosserialInc/rosserial_msgs/TopicInfo.h ****       *(outbuffer + offset + 1) = (u_buffer_size.base >> (8 * 1)) & 0xFF;
 525              		.loc 2 69 7 is_stmt 1 view .LVU151
  69:User/Inc/rosserialInc/rosserial_msgs/TopicInfo.h ****       *(outbuffer + offset + 1) = (u_buffer_size.base >> (8 * 1)) & 0xFF;
 526              		.loc 2 69 33 is_stmt 0 view .LVU152
 527 0094 2B54     		strb	r3, [r5, r0]
  70:User/Inc/rosserialInc/rosserial_msgs/TopicInfo.h ****       *(outbuffer + offset + 2) = (u_buffer_size.base >> (8 * 2)) & 0xFF;
 528              		.loc 2 70 7 is_stmt 1 view .LVU153
  70:User/Inc/rosserialInc/rosserial_msgs/TopicInfo.h ****       *(outbuffer + offset + 2) = (u_buffer_size.base >> (8 * 2)) & 0xFF;
 529              		.loc 2 70 55 is_stmt 0 view .LVU154
 530 0096 190A     		lsrs	r1, r3, #8
  70:User/Inc/rosserialInc/rosserial_msgs/TopicInfo.h ****       *(outbuffer + offset + 2) = (u_buffer_size.base >> (8 * 2)) & 0xFF;
 531              		.loc 2 70 28 view .LVU155
 532 0098 421C     		adds	r2, r0, #1
ARM GAS  /tmp/ccBu519l.s 			page 18


  70:User/Inc/rosserialInc/rosserial_msgs/TopicInfo.h ****       *(outbuffer + offset + 2) = (u_buffer_size.base >> (8 * 2)) & 0xFF;
 533              		.loc 2 70 33 view .LVU156
 534 009a A954     		strb	r1, [r5, r2]
  71:User/Inc/rosserialInc/rosserial_msgs/TopicInfo.h ****       *(outbuffer + offset + 3) = (u_buffer_size.base >> (8 * 3)) & 0xFF;
 535              		.loc 2 71 7 is_stmt 1 view .LVU157
  71:User/Inc/rosserialInc/rosserial_msgs/TopicInfo.h ****       *(outbuffer + offset + 3) = (u_buffer_size.base >> (8 * 3)) & 0xFF;
 536              		.loc 2 71 55 is_stmt 0 view .LVU158
 537 009c 190C     		lsrs	r1, r3, #16
  71:User/Inc/rosserialInc/rosserial_msgs/TopicInfo.h ****       *(outbuffer + offset + 3) = (u_buffer_size.base >> (8 * 3)) & 0xFF;
 538              		.loc 2 71 28 view .LVU159
 539 009e 821C     		adds	r2, r0, #2
  71:User/Inc/rosserialInc/rosserial_msgs/TopicInfo.h ****       *(outbuffer + offset + 3) = (u_buffer_size.base >> (8 * 3)) & 0xFF;
 540              		.loc 2 71 33 view .LVU160
 541 00a0 A954     		strb	r1, [r5, r2]
  72:User/Inc/rosserialInc/rosserial_msgs/TopicInfo.h ****       offset += sizeof(this->buffer_size);
 542              		.loc 2 72 7 is_stmt 1 view .LVU161
  72:User/Inc/rosserialInc/rosserial_msgs/TopicInfo.h ****       offset += sizeof(this->buffer_size);
 543              		.loc 2 72 55 is_stmt 0 view .LVU162
 544 00a2 1B0E     		lsrs	r3, r3, #24
  72:User/Inc/rosserialInc/rosserial_msgs/TopicInfo.h ****       offset += sizeof(this->buffer_size);
 545              		.loc 2 72 28 view .LVU163
 546 00a4 C21C     		adds	r2, r0, #3
  72:User/Inc/rosserialInc/rosserial_msgs/TopicInfo.h ****       offset += sizeof(this->buffer_size);
 547              		.loc 2 72 33 view .LVU164
 548 00a6 AB54     		strb	r3, [r5, r2]
  73:User/Inc/rosserialInc/rosserial_msgs/TopicInfo.h ****       return offset;
 549              		.loc 2 73 7 is_stmt 1 view .LVU165
 550              	.LVL46:
  74:User/Inc/rosserialInc/rosserial_msgs/TopicInfo.h ****     }
 551              		.loc 2 74 7 view .LVU166
  75:User/Inc/rosserialInc/rosserial_msgs/TopicInfo.h **** 
 552              		.loc 2 75 5 is_stmt 0 view .LVU167
 553 00a8 0430     		adds	r0, r0, #4
 554              	.LVL47:
  75:User/Inc/rosserialInc/rosserial_msgs/TopicInfo.h **** 
 555              		.loc 2 75 5 view .LVU168
 556 00aa BDE8F081 		pop	{r4, r5, r6, r7, r8, pc}
  75:User/Inc/rosserialInc/rosserial_msgs/TopicInfo.h **** 
 557              		.loc 2 75 5 view .LVU169
 558              		.cfi_endproc
 559              	.LFE325:
 560              		.cantunwind
 561              		.fnend
 563              		.section	.text._Z41__static_initialization_and_destruction_0ii,"ax",%progbits
 564              		.align	1
 565              		.syntax unified
 566              		.thumb
 567              		.thumb_func
 568              		.fpu softvfp
 570              	_Z41__static_initialization_and_destruction_0ii:
 571              		.fnstart
 572              	.LVL48:
 573              	.LFB459:
 574              		.file 4 "User/myMain.cpp"
   1:User/myMain.cpp **** /*
   2:User/myMain.cpp ****  * myMain.cpp
   3:User/myMain.cpp ****  *
ARM GAS  /tmp/ccBu519l.s 			page 19


   4:User/myMain.cpp ****  *  Created on: Aug 19, 2021
   5:User/myMain.cpp ****  *      Author: Xiaojiao Chen
   6:User/myMain.cpp ****  */
   7:User/myMain.cpp **** 
   8:User/myMain.cpp **** #include "myMain.h"
   9:User/myMain.cpp **** #include "usart.h"
  10:User/myMain.cpp **** #include "messages.h"
  11:User/myMain.cpp **** #include "ros.h"
  12:User/myMain.cpp **** #include "CANbus.h"
  13:User/myMain.cpp **** #include "LED_Driver.h"
  14:User/myMain.cpp **** #include "ads1115.h"
  15:User/myMain.cpp **** #include "HydroUnderwaterManipulator.h"
  16:User/myMain.cpp **** #define SEGNUM 3
  17:User/myMain.cpp **** #define ACTNUM 4
  18:User/myMain.cpp **** 
  19:User/myMain.cpp **** uint8_t actuatorInitPorts[SEGNUM][ACTNUM][2] =
  20:User/myMain.cpp ****     {
  21:User/myMain.cpp ****         {{0, 1}, {2, 3}, {4, 5}, {6, 7}},
  22:User/myMain.cpp ****         {{8, 9}, {10, 11}, {12, 13}, {14, 15}},
  23:User/myMain.cpp ****         {{16, 17}, {18, 19}, {20, 21}, {22, 23}},
  24:User/myMain.cpp **** }; //{In, Out}
  25:User/myMain.cpp **** 
  26:User/myMain.cpp **** uint8_t gripperInitPort[2] = {29, 45}; //{In, Out}
  27:User/myMain.cpp **** 
  28:User/myMain.cpp **** uint8_t pSourcePumpInitPort = 41;   //in pump
  29:User/myMain.cpp **** uint8_t pSourceValveInitPort = 43;  //in valve
  30:User/myMain.cpp **** uint8_t pSourceSensorInitPort = 44; //in sensor
  31:User/myMain.cpp **** 
  32:User/myMain.cpp **** uint8_t pSinkPumpInitPort = 25;  //out pump
  33:User/myMain.cpp **** uint8_t pSinkValveInitPort = 27; //out valve
  34:User/myMain.cpp **** 
  35:User/myMain.cpp **** uint8_t pSinkSensorInitPort = 44; //out sensor
  36:User/myMain.cpp **** 
  37:User/myMain.cpp **** int32_t pressureUp = 30000;    //30,000Pa limit  for positive pressure
  38:User/myMain.cpp **** int32_t pressureDown = -30000; //-30,000Pa limit for negative pressure
  39:User/myMain.cpp **** 
  40:User/myMain.cpp **** /*********** transfer in KPa, otherwise all in Pa ******************/
  41:User/myMain.cpp **** 
  42:User/myMain.cpp **** HydroUnderwaterManipulator uwManipulator;
  43:User/myMain.cpp **** 
  44:User/myMain.cpp **** void setupLoopFrequency(int16_t fre);
  45:User/myMain.cpp **** void setupLoop2Frequency(int16_t fre);
  46:User/myMain.cpp **** 
  47:User/myMain.cpp **** void setup()
  48:User/myMain.cpp **** {
  49:User/myMain.cpp **** 
  50:User/myMain.cpp ****   /*peripheral initiation*/
  51:User/myMain.cpp ****   LED_Driver_Setup();
  52:User/myMain.cpp ****   ADS1115_Setup();
  53:User/myMain.cpp ****   canConfig();
  54:User/myMain.cpp **** 
  55:User/myMain.cpp ****   /*setup loop() frequency to be 100Hz*/
  56:User/myMain.cpp ****   setupLoopFrequency(100);
  57:User/myMain.cpp **** 
  58:User/myMain.cpp ****   /*ports mapping*/
  59:User/myMain.cpp ****   uwManipulator.setupActuatorPorts(actuatorInitPorts);
  60:User/myMain.cpp ****   uwManipulator.setupGripperPorts(gripperInitPort);
ARM GAS  /tmp/ccBu519l.s 			page 20


  61:User/myMain.cpp ****   uwManipulator.setupPsourcePorts(pSourcePumpInitPort, pSourceValveInitPort, pSourceSensorInitPort)
  62:User/myMain.cpp ****   uwManipulator.setupPsinkPorts(pSinkPumpInitPort, pSinkValveInitPort, pSinkSensorInitPort);
  63:User/myMain.cpp **** }
  64:User/myMain.cpp **** 
  65:User/myMain.cpp **** //100Hz default. change frequency by calling setupLoopFrequency(50);
  66:User/myMain.cpp **** void loop()
  67:User/myMain.cpp **** {
  68:User/myMain.cpp ****   //Get sensor Data. currently only pSource and pSink
  69:User/myMain.cpp ****   uwManipulator.pSource.readPressure();
  70:User/myMain.cpp ****   uwManipulator.pSink.readPressure();
  71:User/myMain.cpp **** 
  72:User/myMain.cpp ****   //decode command data to readable cmds
  73:User/myMain.cpp ****   uwManipulator.decodeCommand();
  74:User/myMain.cpp **** 
  75:User/myMain.cpp ****   uwManipulator.control_pSource();
  76:User/myMain.cpp ****   uwManipulator.control_pSink();
  77:User/myMain.cpp ****   uwManipulator.control_actuators();
  78:User/myMain.cpp ****   uwManipulator.control_gripper();
  79:User/myMain.cpp **** 
  80:User/myMain.cpp ****   uwManipulator.encodeStatus();
  81:User/myMain.cpp **** 
  82:User/myMain.cpp ****   rosserialNode.publish(&(uwManipulator.manipulatorStatus));
  83:User/myMain.cpp ****   rosserialNode.spinOnce();
  84:User/myMain.cpp **** }
  85:User/myMain.cpp **** 
  86:User/myMain.cpp **** //200Hz loop2 reserved
  87:User/myMain.cpp **** void loop2()
  88:User/myMain.cpp **** {
  89:User/myMain.cpp **** }
  90:User/myMain.cpp **** 
  91:User/myMain.cpp **** /**
  92:User/myMain.cpp ****  * @brief callback of subscriber function to the command topic
  93:User/myMain.cpp ****  * 
  94:User/myMain.cpp ****  * @param cmd_msg 
  95:User/myMain.cpp ****  */
  96:User/myMain.cpp **** void sub1Callback(const hydrosoft_ros::Command_Arm &cmd_msg)
  97:User/myMain.cpp **** {
  98:User/myMain.cpp **** 
  99:User/myMain.cpp ****   //store command data to local variable
 100:User/myMain.cpp ****   uwManipulator.hostCommand.controlModeCommand = cmd_msg.controlModeCommand;
 101:User/myMain.cpp ****   memcpy(uwManipulator.hostCommand.actuatorCommand, cmd_msg.actuatorCommand, cmd_msg.actuatorComman
 102:User/myMain.cpp ****   uwManipulator.hostCommand.gripperCommand = cmd_msg.gripperCommand;
 103:User/myMain.cpp ****   uwManipulator.hostCommand.pSourceCommand = cmd_msg.pSourceCommand;
 104:User/myMain.cpp ****   uwManipulator.hostCommand.pSinkCommand = cmd_msg.pSinkCommand;
 105:User/myMain.cpp **** }
 106:User/myMain.cpp **** 
 107:User/myMain.cpp **** void setupLoopFrequency(int16_t fre)
 108:User/myMain.cpp **** {
 109:User/myMain.cpp ****   extern int32_t globalSensorTaskPeriod;
 110:User/myMain.cpp ****   globalSensorTaskPeriod = (int)(1000 / fre);
 111:User/myMain.cpp ****   if (globalSensorTaskPeriod < 1)
 112:User/myMain.cpp ****     globalSensorTaskPeriod = 1;
 113:User/myMain.cpp **** }
 114:User/myMain.cpp **** 
 115:User/myMain.cpp **** void setupLoop2Frequency(int16_t fre)
 116:User/myMain.cpp **** {
 117:User/myMain.cpp ****   extern int32_t globalCommunicationTaskPeriod;
ARM GAS  /tmp/ccBu519l.s 			page 21


 118:User/myMain.cpp ****   globalCommunicationTaskPeriod = (int)(1000 / fre);
 119:User/myMain.cpp ****   if (globalCommunicationTaskPeriod < 1)
 120:User/myMain.cpp ****     globalCommunicationTaskPeriod = 1;
 121:User/myMain.cpp **** }...
 575              		.loc 4 121 1 is_stmt 1 view -0
 576              		.cfi_startproc
 577              		@ args = 0, pretend = 0, frame = 0
 578              		@ frame_needed = 0, uses_anonymous_args = 0
 579              		.loc 4 121 1 is_stmt 0 view .LVU171
 580 0000 0128     		cmp	r0, #1
 581 0002 00D0     		beq	.L32
 582 0004 7047     		bx	lr
 583              	.L32:
 584              		.loc 4 121 1 discriminator 1 view .LVU172
 585 0006 08B5     		push	{r3, lr}
 586              	.LCFI1:
 587              		.cfi_def_cfa_offset 8
 588              		.cfi_offset 3, -8
 589              		.cfi_offset 14, -4
 590              		.loc 4 121 1 discriminator 1 view .LVU173
 591 0008 4FF6FF73 		movw	r3, #65535
 592 000c 9942     		cmp	r1, r3
 593 000e 00D0     		beq	.L33
 594              	.LVL49:
 595              	.L26:
 596              		.loc 4 121 1 view .LVU174
 597 0010 08BD     		pop	{r3, pc}
 598              	.LVL50:
 599              	.L33:
  42:User/myMain.cpp **** HydroUnderwaterManipulator uwManipulator;
 600              		.loc 4 42 28 view .LVU175
 601 0012 0248     		ldr	r0, .L34
 602              	.LVL51:
  42:User/myMain.cpp **** HydroUnderwaterManipulator uwManipulator;
 603              		.loc 4 42 28 view .LVU176
 604 0014 FFF7FEFF 		bl	_ZN26HydroUnderwaterManipulatorC1Ev
 605              	.LVL52:
 606              		.loc 4 121 1 view .LVU177
 607 0018 FAE7     		b	.L26
 608              	.L35:
 609 001a 00BF     		.align	2
 610              	.L34:
 611 001c 00000000 		.word	.LANCHOR0
 612              		.cfi_endproc
 613              	.LFE459:
 614              		.cantunwind
 615              		.fnend
 617              		.section	.text._ZN14rosserial_msgs9TopicInfo11deserializeEPh,"axG",%progbits,_ZN14rosserial_msgs9T
 618              		.align	1
 619              		.weak	_ZN14rosserial_msgs9TopicInfo11deserializeEPh
 620              		.syntax unified
 621              		.thumb
 622              		.thumb_func
 623              		.fpu softvfp
 625              	_ZN14rosserial_msgs9TopicInfo11deserializeEPh:
 626              		.fnstart
 627              	.LVL53:
ARM GAS  /tmp/ccBu519l.s 			page 22


 628              	.LFB326:
  77:User/Inc/rosserialInc/rosserial_msgs/TopicInfo.h ****     {
 629              		.loc 2 77 17 is_stmt 1 view -0
 630              		.cfi_startproc
 631              		@ args = 0, pretend = 0, frame = 0
 632              		@ frame_needed = 0, uses_anonymous_args = 0
  77:User/Inc/rosserialInc/rosserial_msgs/TopicInfo.h ****     {
 633              		.loc 2 77 17 is_stmt 0 view .LVU179
 634 0000 30B5     		push	{r4, r5, lr}
 635              	.LCFI2:
 636              		.cfi_def_cfa_offset 12
 637              		.cfi_offset 4, -12
 638              		.cfi_offset 5, -8
 639              		.cfi_offset 14, -4
  79:User/Inc/rosserialInc/rosserial_msgs/TopicInfo.h ****       this->topic_id =  ((uint16_t) (*(inbuffer + offset)));
 640              		.loc 2 79 7 is_stmt 1 view .LVU180
 641              	.LVL54:
  80:User/Inc/rosserialInc/rosserial_msgs/TopicInfo.h ****       this->topic_id |= ((uint16_t) (*(inbuffer + offset + 1))) << (8 * 1);
 642              		.loc 2 80 7 view .LVU181
  80:User/Inc/rosserialInc/rosserial_msgs/TopicInfo.h ****       this->topic_id |= ((uint16_t) (*(inbuffer + offset + 1))) << (8 * 1);
 643              		.loc 2 80 26 is_stmt 0 view .LVU182
 644 0002 0B78     		ldrb	r3, [r1]	@ zero_extendqisi2
  80:User/Inc/rosserialInc/rosserial_msgs/TopicInfo.h ****       this->topic_id |= ((uint16_t) (*(inbuffer + offset + 1))) << (8 * 1);
 645              		.loc 2 80 22 view .LVU183
 646 0004 8380     		strh	r3, [r0, #4]	@ movhi
  81:User/Inc/rosserialInc/rosserial_msgs/TopicInfo.h ****       offset += sizeof(this->topic_id);
 647              		.loc 2 81 7 is_stmt 1 view .LVU184
  81:User/Inc/rosserialInc/rosserial_msgs/TopicInfo.h ****       offset += sizeof(this->topic_id);
 648              		.loc 2 81 38 is_stmt 0 view .LVU185
 649 0006 4A78     		ldrb	r2, [r1, #1]	@ zero_extendqisi2
  81:User/Inc/rosserialInc/rosserial_msgs/TopicInfo.h ****       offset += sizeof(this->topic_id);
 650              		.loc 2 81 22 view .LVU186
 651 0008 43EA0223 		orr	r3, r3, r2, lsl #8
 652 000c 8380     		strh	r3, [r0, #4]	@ movhi
  82:User/Inc/rosserialInc/rosserial_msgs/TopicInfo.h ****       uint32_t length_topic_name;
 653              		.loc 2 82 7 is_stmt 1 view .LVU187
 654              	.LVL55:
  83:User/Inc/rosserialInc/rosserial_msgs/TopicInfo.h ****       arrToVar(length_topic_name, (inbuffer + offset));
 655              		.loc 2 83 7 view .LVU188
  84:User/Inc/rosserialInc/rosserial_msgs/TopicInfo.h ****       offset += 4;
 656              		.loc 2 84 7 view .LVU189
  84:User/Inc/rosserialInc/rosserial_msgs/TopicInfo.h ****       offset += 4;
 657              		.loc 2 84 15 is_stmt 0 view .LVU190
 658 000e 01F1020C 		add	ip, r1, #2
 659              	.LVL56:
 660              	.LBB80:
 661              	.LBI80:
 192:User/Inc/rosserialInc/ros/msg.h ****   }
 193:User/Inc/rosserialInc/ros/msg.h **** 
 194:User/Inc/rosserialInc/ros/msg.h ****   // Copy data from a byte array into variable
 195:User/Inc/rosserialInc/ros/msg.h ****   template<typename V, typename A>
 196:User/Inc/rosserialInc/ros/msg.h ****   static void arrToVar(V& var, const A arr)
 662              		.loc 3 196 15 is_stmt 1 view .LVU191
 663              	.LBB81:
 197:User/Inc/rosserialInc/ros/msg.h ****   {
 198:User/Inc/rosserialInc/ros/msg.h ****     var = 0;
 664              		.loc 3 198 9 is_stmt 0 view .LVU192
ARM GAS  /tmp/ccBu519l.s 			page 23


 665 0012 0022     		movs	r2, #0
 666              	.LBB82:
 199:User/Inc/rosserialInc/ros/msg.h ****     for (size_t i = 0; i < sizeof(V); i++)
 667              		.loc 3 199 17 view .LVU193
 668 0014 1346     		mov	r3, r2
 669              	.LVL57:
 670              	.L38:
 671              		.loc 3 199 26 is_stmt 1 view .LVU194
 672 0016 032B     		cmp	r3, #3
 673 0018 06D8     		bhi	.L48
 200:User/Inc/rosserialInc/ros/msg.h ****       var |= (arr[i] << (8 * i));
 674              		.loc 3 200 18 is_stmt 0 view .LVU195
 675 001a 1CF80340 		ldrb	r4, [ip, r3]	@ zero_extendqisi2
 676              		.loc 3 200 28 view .LVU196
 677 001e DD00     		lsls	r5, r3, #3
 678              		.loc 3 200 22 view .LVU197
 679 0020 AC40     		lsls	r4, r4, r5
 680              		.loc 3 200 11 view .LVU198
 681 0022 2243     		orrs	r2, r2, r4
 682              	.LVL58:
 199:User/Inc/rosserialInc/ros/msg.h ****     for (size_t i = 0; i < sizeof(V); i++)
 683              		.loc 3 199 5 is_stmt 1 view .LVU199
 684 0024 0133     		adds	r3, r3, #1
 685              	.LVL59:
 199:User/Inc/rosserialInc/ros/msg.h ****     for (size_t i = 0; i < sizeof(V); i++)
 686              		.loc 3 199 5 is_stmt 0 view .LVU200
 687 0026 F6E7     		b	.L38
 688              	.L48:
 199:User/Inc/rosserialInc/ros/msg.h ****     for (size_t i = 0; i < sizeof(V); i++)
 689              		.loc 3 199 5 view .LVU201
 690              	.LBE82:
 691              	.LBE81:
 692              	.LBE80:
 693              	.LBB83:
  86:User/Inc/rosserialInc/rosserial_msgs/TopicInfo.h ****           inbuffer[k-1]=inbuffer[k];
 694              		.loc 2 86 24 view .LVU202
 695 0028 0623     		movs	r3, #6
 696              	.LVL60:
  86:User/Inc/rosserialInc/rosserial_msgs/TopicInfo.h ****           inbuffer[k-1]=inbuffer[k];
 697              		.loc 2 86 24 view .LVU203
 698 002a 05E0     		b	.L37
 699              	.LVL61:
 700              	.L50:
  87:User/Inc/rosserialInc/rosserial_msgs/TopicInfo.h ****       }
 701              		.loc 2 87 11 is_stmt 1 discriminator 2 view .LVU204
  87:User/Inc/rosserialInc/rosserial_msgs/TopicInfo.h ****       }
 702              		.loc 2 87 23 is_stmt 0 discriminator 2 view .LVU205
 703 002c 5C1E     		subs	r4, r3, #1
  87:User/Inc/rosserialInc/rosserial_msgs/TopicInfo.h ****       }
 704              		.loc 2 87 35 discriminator 2 view .LVU206
 705 002e 11F803C0 		ldrb	ip, [r1, r3]	@ zero_extendqisi2
  87:User/Inc/rosserialInc/rosserial_msgs/TopicInfo.h ****       }
 706              		.loc 2 87 24 discriminator 2 view .LVU207
 707 0032 01F804C0 		strb	ip, [r1, r4]
  86:User/Inc/rosserialInc/rosserial_msgs/TopicInfo.h ****           inbuffer[k-1]=inbuffer[k];
 708              		.loc 2 86 7 is_stmt 1 discriminator 2 view .LVU208
 709 0036 0133     		adds	r3, r3, #1
ARM GAS  /tmp/ccBu519l.s 			page 24


 710              	.LVL62:
 711              	.L37:
  86:User/Inc/rosserialInc/rosserial_msgs/TopicInfo.h ****           inbuffer[k-1]=inbuffer[k];
 712              		.loc 2 86 36 discriminator 3 view .LVU209
  86:User/Inc/rosserialInc/rosserial_msgs/TopicInfo.h ****           inbuffer[k-1]=inbuffer[k];
 713              		.loc 2 86 44 is_stmt 0 discriminator 3 view .LVU210
 714 0038 02F1060C 		add	ip, r2, #6
  86:User/Inc/rosserialInc/rosserial_msgs/TopicInfo.h ****           inbuffer[k-1]=inbuffer[k];
 715              		.loc 2 86 36 discriminator 3 view .LVU211
 716 003c 9C45     		cmp	ip, r3
 717 003e F5D8     		bhi	.L50
 718              	.LBE83:
  89:User/Inc/rosserialInc/rosserial_msgs/TopicInfo.h ****       this->topic_name = (char *)(inbuffer + offset-1);
 719              		.loc 2 89 7 is_stmt 1 view .LVU212
  89:User/Inc/rosserialInc/rosserial_msgs/TopicInfo.h ****       this->topic_name = (char *)(inbuffer + offset-1);
 720              		.loc 2 89 42 is_stmt 0 view .LVU213
 721 0040 541D     		adds	r4, r2, #5
  89:User/Inc/rosserialInc/rosserial_msgs/TopicInfo.h ****       this->topic_name = (char *)(inbuffer + offset-1);
 722              		.loc 2 89 43 view .LVU214
 723 0042 0023     		movs	r3, #0
 724              	.LVL63:
  89:User/Inc/rosserialInc/rosserial_msgs/TopicInfo.h ****       this->topic_name = (char *)(inbuffer + offset-1);
 725              		.loc 2 89 43 view .LVU215
 726 0044 0B55     		strb	r3, [r1, r4]
  90:User/Inc/rosserialInc/rosserial_msgs/TopicInfo.h ****       offset += length_topic_name;
 727              		.loc 2 90 7 is_stmt 1 view .LVU216
  90:User/Inc/rosserialInc/rosserial_msgs/TopicInfo.h ****       offset += length_topic_name;
 728              		.loc 2 90 52 is_stmt 0 view .LVU217
 729 0046 4C1D     		adds	r4, r1, #5
  90:User/Inc/rosserialInc/rosserial_msgs/TopicInfo.h ****       offset += length_topic_name;
 730              		.loc 2 90 24 view .LVU218
 731 0048 8460     		str	r4, [r0, #8]
  91:User/Inc/rosserialInc/rosserial_msgs/TopicInfo.h ****       uint32_t length_message_type;
 732              		.loc 2 91 7 is_stmt 1 view .LVU219
  91:User/Inc/rosserialInc/rosserial_msgs/TopicInfo.h ****       uint32_t length_message_type;
 733              		.loc 2 91 14 is_stmt 0 view .LVU220
 734 004a 02F1060C 		add	ip, r2, #6
 735              	.LVL64:
  92:User/Inc/rosserialInc/rosserial_msgs/TopicInfo.h ****       arrToVar(length_message_type, (inbuffer + offset));
 736              		.loc 2 92 7 is_stmt 1 view .LVU221
  93:User/Inc/rosserialInc/rosserial_msgs/TopicInfo.h ****       offset += 4;
 737              		.loc 2 93 7 view .LVU222
  93:User/Inc/rosserialInc/rosserial_msgs/TopicInfo.h ****       offset += 4;
 738              		.loc 2 93 15 is_stmt 0 view .LVU223
 739 004e 8C44     		add	ip, ip, r1
 740              	.LVL65:
 741              	.LBB84:
 742              	.LBI84:
 196:User/Inc/rosserialInc/ros/msg.h ****   {
 743              		.loc 3 196 15 is_stmt 1 view .LVU224
 744              	.LBB85:
 198:User/Inc/rosserialInc/ros/msg.h ****     for (size_t i = 0; i < sizeof(V); i++)
 745              		.loc 3 198 9 is_stmt 0 view .LVU225
 746 0050 9E46     		mov	lr, r3
 747              	.LVL66:
 748              	.L41:
 749              	.LBB86:
ARM GAS  /tmp/ccBu519l.s 			page 25


 199:User/Inc/rosserialInc/ros/msg.h ****       var |= (arr[i] << (8 * i));
 750              		.loc 3 199 26 is_stmt 1 view .LVU226
 751 0052 032B     		cmp	r3, #3
 752 0054 07D8     		bhi	.L40
 753              		.loc 3 200 18 is_stmt 0 view .LVU227
 754 0056 1CF80340 		ldrb	r4, [ip, r3]	@ zero_extendqisi2
 755              		.loc 3 200 28 view .LVU228
 756 005a DD00     		lsls	r5, r3, #3
 757              		.loc 3 200 22 view .LVU229
 758 005c AC40     		lsls	r4, r4, r5
 759              		.loc 3 200 11 view .LVU230
 760 005e 4EEA040E 		orr	lr, lr, r4
 761              	.LVL67:
 199:User/Inc/rosserialInc/ros/msg.h ****       var |= (arr[i] << (8 * i));
 762              		.loc 3 199 5 is_stmt 1 view .LVU231
 763 0062 0133     		adds	r3, r3, #1
 764              	.LVL68:
 199:User/Inc/rosserialInc/ros/msg.h ****       var |= (arr[i] << (8 * i));
 765              		.loc 3 199 5 is_stmt 0 view .LVU232
 766 0064 F5E7     		b	.L41
 767              	.L40:
 768              	.LVL69:
 199:User/Inc/rosserialInc/ros/msg.h ****       var |= (arr[i] << (8 * i));
 769              		.loc 3 199 5 view .LVU233
 770              	.LBE86:
 771              	.LBE85:
 772              	.LBE84:
  94:User/Inc/rosserialInc/rosserial_msgs/TopicInfo.h ****       for(unsigned int k= offset; k< offset+length_message_type; ++k){
 773              		.loc 2 94 7 is_stmt 1 view .LVU234
 774 0066 02F10A05 		add	r5, r2, #10
 775              	.LVL70:
  95:User/Inc/rosserialInc/rosserial_msgs/TopicInfo.h ****           inbuffer[k-1]=inbuffer[k];
 776              		.loc 2 95 7 view .LVU235
 777              	.LBB87:
  95:User/Inc/rosserialInc/rosserial_msgs/TopicInfo.h ****           inbuffer[k-1]=inbuffer[k];
 778              		.loc 2 95 24 is_stmt 0 view .LVU236
 779 006a 2B46     		mov	r3, r5
 780 006c 05E0     		b	.L43
 781              	.LVL71:
 782              	.L51:
  96:User/Inc/rosserialInc/rosserial_msgs/TopicInfo.h ****       }
 783              		.loc 2 96 11 is_stmt 1 discriminator 2 view .LVU237
  96:User/Inc/rosserialInc/rosserial_msgs/TopicInfo.h ****       }
 784              		.loc 2 96 23 is_stmt 0 discriminator 2 view .LVU238
 785 006e 03F1FF3C 		add	ip, r3, #-1
  96:User/Inc/rosserialInc/rosserial_msgs/TopicInfo.h ****       }
 786              		.loc 2 96 35 discriminator 2 view .LVU239
 787 0072 CC5C     		ldrb	r4, [r1, r3]	@ zero_extendqisi2
  96:User/Inc/rosserialInc/rosserial_msgs/TopicInfo.h ****       }
 788              		.loc 2 96 24 discriminator 2 view .LVU240
 789 0074 01F80C40 		strb	r4, [r1, ip]
  95:User/Inc/rosserialInc/rosserial_msgs/TopicInfo.h ****           inbuffer[k-1]=inbuffer[k];
 790              		.loc 2 95 7 is_stmt 1 discriminator 2 view .LVU241
 791 0078 0133     		adds	r3, r3, #1
 792              	.LVL72:
 793              	.L43:
  95:User/Inc/rosserialInc/rosserial_msgs/TopicInfo.h ****           inbuffer[k-1]=inbuffer[k];
ARM GAS  /tmp/ccBu519l.s 			page 26


 794              		.loc 2 95 36 discriminator 3 view .LVU242
  95:User/Inc/rosserialInc/rosserial_msgs/TopicInfo.h ****           inbuffer[k-1]=inbuffer[k];
 795              		.loc 2 95 44 is_stmt 0 discriminator 3 view .LVU243
 796 007a 05EB0E0C 		add	ip, r5, lr
  95:User/Inc/rosserialInc/rosserial_msgs/TopicInfo.h ****           inbuffer[k-1]=inbuffer[k];
 797              		.loc 2 95 36 discriminator 3 view .LVU244
 798 007e 9C45     		cmp	ip, r3
 799 0080 F5D8     		bhi	.L51
  95:User/Inc/rosserialInc/rosserial_msgs/TopicInfo.h ****           inbuffer[k-1]=inbuffer[k];
 800              		.loc 2 95 36 discriminator 3 view .LVU245
 801              	.LBE87:
  98:User/Inc/rosserialInc/rosserial_msgs/TopicInfo.h ****       this->message_type = (char *)(inbuffer + offset-1);
 802              		.loc 2 98 7 is_stmt 1 view .LVU246
  98:User/Inc/rosserialInc/rosserial_msgs/TopicInfo.h ****       this->message_type = (char *)(inbuffer + offset-1);
 803              		.loc 2 98 44 is_stmt 0 view .LVU247
 804 0082 0CF1FF3C 		add	ip, ip, #-1
  98:User/Inc/rosserialInc/rosserial_msgs/TopicInfo.h ****       this->message_type = (char *)(inbuffer + offset-1);
 805              		.loc 2 98 45 view .LVU248
 806 0086 0023     		movs	r3, #0
 807              	.LVL73:
  98:User/Inc/rosserialInc/rosserial_msgs/TopicInfo.h ****       this->message_type = (char *)(inbuffer + offset-1);
 808              		.loc 2 98 45 view .LVU249
 809 0088 01F80C30 		strb	r3, [r1, ip]
  99:User/Inc/rosserialInc/rosserial_msgs/TopicInfo.h ****       offset += length_message_type;
 810              		.loc 2 99 7 is_stmt 1 view .LVU250
  99:User/Inc/rosserialInc/rosserial_msgs/TopicInfo.h ****       offset += length_message_type;
 811              		.loc 2 99 54 is_stmt 0 view .LVU251
 812 008c 0932     		adds	r2, r2, #9
 813              	.LVL74:
  99:User/Inc/rosserialInc/rosserial_msgs/TopicInfo.h ****       offset += length_message_type;
 814              		.loc 2 99 54 view .LVU252
 815 008e 0A44     		add	r2, r2, r1
  99:User/Inc/rosserialInc/rosserial_msgs/TopicInfo.h ****       offset += length_message_type;
 816              		.loc 2 99 26 view .LVU253
 817 0090 C260     		str	r2, [r0, #12]
 100:User/Inc/rosserialInc/rosserial_msgs/TopicInfo.h ****       uint32_t length_md5sum;
 818              		.loc 2 100 7 is_stmt 1 view .LVU254
 100:User/Inc/rosserialInc/rosserial_msgs/TopicInfo.h ****       uint32_t length_md5sum;
 819              		.loc 2 100 14 is_stmt 0 view .LVU255
 820 0092 7544     		add	r5, r5, lr
 821              	.LVL75:
 101:User/Inc/rosserialInc/rosserial_msgs/TopicInfo.h ****       arrToVar(length_md5sum, (inbuffer + offset));
 822              		.loc 2 101 7 is_stmt 1 view .LVU256
 102:User/Inc/rosserialInc/rosserial_msgs/TopicInfo.h ****       offset += 4;
 823              		.loc 2 102 7 view .LVU257
 102:User/Inc/rosserialInc/rosserial_msgs/TopicInfo.h ****       offset += 4;
 824              		.loc 2 102 15 is_stmt 0 view .LVU258
 825 0094 01EB050E 		add	lr, r1, r5
 826              	.LVL76:
 827              	.LBB88:
 828              	.LBI88:
 196:User/Inc/rosserialInc/ros/msg.h ****   {
 829              		.loc 3 196 15 is_stmt 1 view .LVU259
 830              	.LBB89:
 198:User/Inc/rosserialInc/ros/msg.h ****     for (size_t i = 0; i < sizeof(V); i++)
 831              		.loc 3 198 9 is_stmt 0 view .LVU260
 832 0098 1C46     		mov	r4, r3
ARM GAS  /tmp/ccBu519l.s 			page 27


 833              	.LVL77:
 834              	.L45:
 835              	.LBB90:
 199:User/Inc/rosserialInc/ros/msg.h ****       var |= (arr[i] << (8 * i));
 836              		.loc 3 199 26 is_stmt 1 view .LVU261
 837 009a 032B     		cmp	r3, #3
 838 009c 08D8     		bhi	.L44
 839              		.loc 3 200 18 is_stmt 0 view .LVU262
 840 009e 1EF80320 		ldrb	r2, [lr, r3]	@ zero_extendqisi2
 841              		.loc 3 200 28 view .LVU263
 842 00a2 4FEAC30C 		lsl	ip, r3, #3
 843              		.loc 3 200 22 view .LVU264
 844 00a6 02FA0CF2 		lsl	r2, r2, ip
 845              		.loc 3 200 11 view .LVU265
 846 00aa 1443     		orrs	r4, r4, r2
 847              	.LVL78:
 199:User/Inc/rosserialInc/ros/msg.h ****       var |= (arr[i] << (8 * i));
 848              		.loc 3 199 5 is_stmt 1 view .LVU266
 849 00ac 0133     		adds	r3, r3, #1
 850              	.LVL79:
 199:User/Inc/rosserialInc/ros/msg.h ****       var |= (arr[i] << (8 * i));
 851              		.loc 3 199 5 is_stmt 0 view .LVU267
 852 00ae F4E7     		b	.L45
 853              	.L44:
 854              	.LVL80:
 199:User/Inc/rosserialInc/ros/msg.h ****       var |= (arr[i] << (8 * i));
 855              		.loc 3 199 5 view .LVU268
 856              	.LBE90:
 857              	.LBE89:
 858              	.LBE88:
 103:User/Inc/rosserialInc/rosserial_msgs/TopicInfo.h ****       for(unsigned int k= offset; k< offset+length_md5sum; ++k){
 859              		.loc 2 103 7 is_stmt 1 view .LVU269
 103:User/Inc/rosserialInc/rosserial_msgs/TopicInfo.h ****       for(unsigned int k= offset; k< offset+length_md5sum; ++k){
 860              		.loc 2 103 14 is_stmt 0 view .LVU270
 861 00b0 05F1040C 		add	ip, r5, #4
 862              	.LVL81:
 104:User/Inc/rosserialInc/rosserial_msgs/TopicInfo.h ****           inbuffer[k-1]=inbuffer[k];
 863              		.loc 2 104 7 is_stmt 1 view .LVU271
 864              	.LBB91:
 104:User/Inc/rosserialInc/rosserial_msgs/TopicInfo.h ****           inbuffer[k-1]=inbuffer[k];
 865              		.loc 2 104 24 is_stmt 0 view .LVU272
 866 00b4 6346     		mov	r3, ip
 867 00b6 05E0     		b	.L47
 868              	.LVL82:
 869              	.L52:
 105:User/Inc/rosserialInc/rosserial_msgs/TopicInfo.h ****       }
 870              		.loc 2 105 11 is_stmt 1 discriminator 2 view .LVU273
 105:User/Inc/rosserialInc/rosserial_msgs/TopicInfo.h ****       }
 871              		.loc 2 105 23 is_stmt 0 discriminator 2 view .LVU274
 872 00b8 5A1E     		subs	r2, r3, #1
 105:User/Inc/rosserialInc/rosserial_msgs/TopicInfo.h ****       }
 873              		.loc 2 105 35 discriminator 2 view .LVU275
 874 00ba 11F803E0 		ldrb	lr, [r1, r3]	@ zero_extendqisi2
 105:User/Inc/rosserialInc/rosserial_msgs/TopicInfo.h ****       }
 875              		.loc 2 105 24 discriminator 2 view .LVU276
 876 00be 01F802E0 		strb	lr, [r1, r2]
 104:User/Inc/rosserialInc/rosserial_msgs/TopicInfo.h ****           inbuffer[k-1]=inbuffer[k];
ARM GAS  /tmp/ccBu519l.s 			page 28


 877              		.loc 2 104 7 is_stmt 1 discriminator 2 view .LVU277
 878 00c2 0133     		adds	r3, r3, #1
 879              	.LVL83:
 880              	.L47:
 104:User/Inc/rosserialInc/rosserial_msgs/TopicInfo.h ****           inbuffer[k-1]=inbuffer[k];
 881              		.loc 2 104 36 discriminator 3 view .LVU278
 104:User/Inc/rosserialInc/rosserial_msgs/TopicInfo.h ****           inbuffer[k-1]=inbuffer[k];
 882              		.loc 2 104 44 is_stmt 0 discriminator 3 view .LVU279
 883 00c4 0CEB0402 		add	r2, ip, r4
 104:User/Inc/rosserialInc/rosserial_msgs/TopicInfo.h ****           inbuffer[k-1]=inbuffer[k];
 884              		.loc 2 104 36 discriminator 3 view .LVU280
 885 00c8 9A42     		cmp	r2, r3
 886 00ca F5D8     		bhi	.L52
 104:User/Inc/rosserialInc/rosserial_msgs/TopicInfo.h ****           inbuffer[k-1]=inbuffer[k];
 887              		.loc 2 104 36 discriminator 3 view .LVU281
 888              	.LBE91:
 107:User/Inc/rosserialInc/rosserial_msgs/TopicInfo.h ****       this->md5sum = (char *)(inbuffer + offset-1);
 889              		.loc 2 107 7 is_stmt 1 view .LVU282
 107:User/Inc/rosserialInc/rosserial_msgs/TopicInfo.h ****       this->md5sum = (char *)(inbuffer + offset-1);
 890              		.loc 2 107 38 is_stmt 0 view .LVU283
 891 00cc 013A     		subs	r2, r2, #1
 107:User/Inc/rosserialInc/rosserial_msgs/TopicInfo.h ****       this->md5sum = (char *)(inbuffer + offset-1);
 892              		.loc 2 107 39 view .LVU284
 893 00ce 0023     		movs	r3, #0
 894              	.LVL84:
 107:User/Inc/rosserialInc/rosserial_msgs/TopicInfo.h ****       this->md5sum = (char *)(inbuffer + offset-1);
 895              		.loc 2 107 39 view .LVU285
 896 00d0 8B54     		strb	r3, [r1, r2]
 108:User/Inc/rosserialInc/rosserial_msgs/TopicInfo.h ****       offset += length_md5sum;
 897              		.loc 2 108 7 is_stmt 1 view .LVU286
 108:User/Inc/rosserialInc/rosserial_msgs/TopicInfo.h ****       offset += length_md5sum;
 898              		.loc 2 108 48 is_stmt 0 view .LVU287
 899 00d2 0335     		adds	r5, r5, #3
 900 00d4 0D44     		add	r5, r5, r1
 108:User/Inc/rosserialInc/rosserial_msgs/TopicInfo.h ****       offset += length_md5sum;
 901              		.loc 2 108 20 view .LVU288
 902 00d6 0561     		str	r5, [r0, #16]
 109:User/Inc/rosserialInc/rosserial_msgs/TopicInfo.h ****       union {
 903              		.loc 2 109 7 is_stmt 1 view .LVU289
 109:User/Inc/rosserialInc/rosserial_msgs/TopicInfo.h ****       union {
 904              		.loc 2 109 14 is_stmt 0 view .LVU290
 905 00d8 A444     		add	ip, ip, r4
 906              	.LVL85:
 110:User/Inc/rosserialInc/rosserial_msgs/TopicInfo.h ****         int32_t real;
 907              		.loc 2 110 7 is_stmt 1 view .LVU291
 114:User/Inc/rosserialInc/rosserial_msgs/TopicInfo.h ****       u_buffer_size.base |= ((uint32_t) (*(inbuffer + offset + 0))) << (8 * 0);
 908              		.loc 2 114 7 view .LVU292
 115:User/Inc/rosserialInc/rosserial_msgs/TopicInfo.h ****       u_buffer_size.base |= ((uint32_t) (*(inbuffer + offset + 1))) << (8 * 1);
 909              		.loc 2 115 7 view .LVU293
 115:User/Inc/rosserialInc/rosserial_msgs/TopicInfo.h ****       u_buffer_size.base |= ((uint32_t) (*(inbuffer + offset + 1))) << (8 * 1);
 910              		.loc 2 115 42 is_stmt 0 view .LVU294
 911 00da 11F80C30 		ldrb	r3, [r1, ip]	@ zero_extendqisi2
 116:User/Inc/rosserialInc/rosserial_msgs/TopicInfo.h ****       u_buffer_size.base |= ((uint32_t) (*(inbuffer + offset + 2))) << (8 * 2);
 912              		.loc 2 116 7 is_stmt 1 view .LVU295
 116:User/Inc/rosserialInc/rosserial_msgs/TopicInfo.h ****       u_buffer_size.base |= ((uint32_t) (*(inbuffer + offset + 2))) << (8 * 2);
 913              		.loc 2 116 62 is_stmt 0 view .LVU296
 914 00de 0CF10102 		add	r2, ip, #1
ARM GAS  /tmp/ccBu519l.s 			page 29


 116:User/Inc/rosserialInc/rosserial_msgs/TopicInfo.h ****       u_buffer_size.base |= ((uint32_t) (*(inbuffer + offset + 2))) << (8 * 2);
 915              		.loc 2 116 42 view .LVU297
 916 00e2 8A5C     		ldrb	r2, [r1, r2]	@ zero_extendqisi2
 116:User/Inc/rosserialInc/rosserial_msgs/TopicInfo.h ****       u_buffer_size.base |= ((uint32_t) (*(inbuffer + offset + 2))) << (8 * 2);
 917              		.loc 2 116 26 view .LVU298
 918 00e4 43EA0223 		orr	r3, r3, r2, lsl #8
 117:User/Inc/rosserialInc/rosserial_msgs/TopicInfo.h ****       u_buffer_size.base |= ((uint32_t) (*(inbuffer + offset + 3))) << (8 * 3);
 919              		.loc 2 117 7 is_stmt 1 view .LVU299
 117:User/Inc/rosserialInc/rosserial_msgs/TopicInfo.h ****       u_buffer_size.base |= ((uint32_t) (*(inbuffer + offset + 3))) << (8 * 3);
 920              		.loc 2 117 62 is_stmt 0 view .LVU300
 921 00e8 0CF10202 		add	r2, ip, #2
 117:User/Inc/rosserialInc/rosserial_msgs/TopicInfo.h ****       u_buffer_size.base |= ((uint32_t) (*(inbuffer + offset + 3))) << (8 * 3);
 922              		.loc 2 117 42 view .LVU301
 923 00ec 8A5C     		ldrb	r2, [r1, r2]	@ zero_extendqisi2
 117:User/Inc/rosserialInc/rosserial_msgs/TopicInfo.h ****       u_buffer_size.base |= ((uint32_t) (*(inbuffer + offset + 3))) << (8 * 3);
 924              		.loc 2 117 26 view .LVU302
 925 00ee 43EA0243 		orr	r3, r3, r2, lsl #16
 118:User/Inc/rosserialInc/rosserial_msgs/TopicInfo.h ****       this->buffer_size = u_buffer_size.real;
 926              		.loc 2 118 7 is_stmt 1 view .LVU303
 118:User/Inc/rosserialInc/rosserial_msgs/TopicInfo.h ****       this->buffer_size = u_buffer_size.real;
 927              		.loc 2 118 62 is_stmt 0 view .LVU304
 928 00f2 0CF10302 		add	r2, ip, #3
 118:User/Inc/rosserialInc/rosserial_msgs/TopicInfo.h ****       this->buffer_size = u_buffer_size.real;
 929              		.loc 2 118 42 view .LVU305
 930 00f6 8A5C     		ldrb	r2, [r1, r2]	@ zero_extendqisi2
 118:User/Inc/rosserialInc/rosserial_msgs/TopicInfo.h ****       this->buffer_size = u_buffer_size.real;
 931              		.loc 2 118 26 view .LVU306
 932 00f8 43EA0263 		orr	r3, r3, r2, lsl #24
 119:User/Inc/rosserialInc/rosserial_msgs/TopicInfo.h ****       offset += sizeof(this->buffer_size);
 933              		.loc 2 119 7 is_stmt 1 view .LVU307
 119:User/Inc/rosserialInc/rosserial_msgs/TopicInfo.h ****       offset += sizeof(this->buffer_size);
 934              		.loc 2 119 25 is_stmt 0 view .LVU308
 935 00fc 4361     		str	r3, [r0, #20]
 120:User/Inc/rosserialInc/rosserial_msgs/TopicInfo.h ****      return offset;
 936              		.loc 2 120 7 is_stmt 1 view .LVU309
 937              	.LVL86:
 121:User/Inc/rosserialInc/rosserial_msgs/TopicInfo.h ****     }
 938              		.loc 2 121 6 view .LVU310
 122:User/Inc/rosserialInc/rosserial_msgs/TopicInfo.h **** 
 939              		.loc 2 122 5 is_stmt 0 view .LVU311
 940 00fe 0CF10400 		add	r0, ip, #4
 941              	.LVL87:
 122:User/Inc/rosserialInc/rosserial_msgs/TopicInfo.h **** 
 942              		.loc 2 122 5 view .LVU312
 943 0102 30BD     		pop	{r4, r5, pc}
 944              		.cfi_endproc
 945              	.LFE326:
 946              		.cantunwind
 947              		.fnend
 949              		.section	.text._ZN14rosserial_msgs20RequestParamResponse11deserializeEPh,"axG",%progbits,_ZN14ross
 950              		.align	1
 951              		.weak	_ZN14rosserial_msgs20RequestParamResponse11deserializeEPh
 952              		.syntax unified
 953              		.thumb
 954              		.thumb_func
 955              		.fpu softvfp
 957              	_ZN14rosserial_msgs20RequestParamResponse11deserializeEPh:
ARM GAS  /tmp/ccBu519l.s 			page 30


 958              		.fnstart
 959              	.LVL88:
 960              	.LFB347:
 961              		.file 5 "User/Inc/rosserialInc/rosserial_msgs/RequestParam.h"
   1:User/Inc/rosserialInc/rosserial_msgs/RequestParam.h **** #ifndef _ROS_SERVICE_RequestParam_h
   2:User/Inc/rosserialInc/rosserial_msgs/RequestParam.h **** #define _ROS_SERVICE_RequestParam_h
   3:User/Inc/rosserialInc/rosserial_msgs/RequestParam.h **** #include <stdint.h>
   4:User/Inc/rosserialInc/rosserial_msgs/RequestParam.h **** #include <string.h>
   5:User/Inc/rosserialInc/rosserial_msgs/RequestParam.h **** #include <stdlib.h>
   6:User/Inc/rosserialInc/rosserial_msgs/RequestParam.h **** #include "ros/msg.h"
   7:User/Inc/rosserialInc/rosserial_msgs/RequestParam.h **** 
   8:User/Inc/rosserialInc/rosserial_msgs/RequestParam.h **** namespace rosserial_msgs
   9:User/Inc/rosserialInc/rosserial_msgs/RequestParam.h **** {
  10:User/Inc/rosserialInc/rosserial_msgs/RequestParam.h **** 
  11:User/Inc/rosserialInc/rosserial_msgs/RequestParam.h **** static const char REQUESTPARAM[] = "rosserial_msgs/RequestParam";
  12:User/Inc/rosserialInc/rosserial_msgs/RequestParam.h **** 
  13:User/Inc/rosserialInc/rosserial_msgs/RequestParam.h ****   class RequestParamRequest : public ros::Msg
  14:User/Inc/rosserialInc/rosserial_msgs/RequestParam.h ****   {
  15:User/Inc/rosserialInc/rosserial_msgs/RequestParam.h ****     public:
  16:User/Inc/rosserialInc/rosserial_msgs/RequestParam.h ****       typedef const char* _name_type;
  17:User/Inc/rosserialInc/rosserial_msgs/RequestParam.h ****       _name_type name;
  18:User/Inc/rosserialInc/rosserial_msgs/RequestParam.h **** 
  19:User/Inc/rosserialInc/rosserial_msgs/RequestParam.h ****     RequestParamRequest():
  20:User/Inc/rosserialInc/rosserial_msgs/RequestParam.h ****       name("")
  21:User/Inc/rosserialInc/rosserial_msgs/RequestParam.h ****     {
  22:User/Inc/rosserialInc/rosserial_msgs/RequestParam.h ****     }
  23:User/Inc/rosserialInc/rosserial_msgs/RequestParam.h **** 
  24:User/Inc/rosserialInc/rosserial_msgs/RequestParam.h ****     virtual int serialize(unsigned char *outbuffer) const override
  25:User/Inc/rosserialInc/rosserial_msgs/RequestParam.h ****     {
  26:User/Inc/rosserialInc/rosserial_msgs/RequestParam.h ****       int offset = 0;
  27:User/Inc/rosserialInc/rosserial_msgs/RequestParam.h ****       uint32_t length_name = strlen(this->name);
  28:User/Inc/rosserialInc/rosserial_msgs/RequestParam.h ****       varToArr(outbuffer + offset, length_name);
  29:User/Inc/rosserialInc/rosserial_msgs/RequestParam.h ****       offset += 4;
  30:User/Inc/rosserialInc/rosserial_msgs/RequestParam.h ****       memcpy(outbuffer + offset, this->name, length_name);
  31:User/Inc/rosserialInc/rosserial_msgs/RequestParam.h ****       offset += length_name;
  32:User/Inc/rosserialInc/rosserial_msgs/RequestParam.h ****       return offset;
  33:User/Inc/rosserialInc/rosserial_msgs/RequestParam.h ****     }
  34:User/Inc/rosserialInc/rosserial_msgs/RequestParam.h **** 
  35:User/Inc/rosserialInc/rosserial_msgs/RequestParam.h ****     virtual int deserialize(unsigned char *inbuffer) override
  36:User/Inc/rosserialInc/rosserial_msgs/RequestParam.h ****     {
  37:User/Inc/rosserialInc/rosserial_msgs/RequestParam.h ****       int offset = 0;
  38:User/Inc/rosserialInc/rosserial_msgs/RequestParam.h ****       uint32_t length_name;
  39:User/Inc/rosserialInc/rosserial_msgs/RequestParam.h ****       arrToVar(length_name, (inbuffer + offset));
  40:User/Inc/rosserialInc/rosserial_msgs/RequestParam.h ****       offset += 4;
  41:User/Inc/rosserialInc/rosserial_msgs/RequestParam.h ****       for(unsigned int k= offset; k< offset+length_name; ++k){
  42:User/Inc/rosserialInc/rosserial_msgs/RequestParam.h ****           inbuffer[k-1]=inbuffer[k];
  43:User/Inc/rosserialInc/rosserial_msgs/RequestParam.h ****       }
  44:User/Inc/rosserialInc/rosserial_msgs/RequestParam.h ****       inbuffer[offset+length_name-1]=0;
  45:User/Inc/rosserialInc/rosserial_msgs/RequestParam.h ****       this->name = (char *)(inbuffer + offset-1);
  46:User/Inc/rosserialInc/rosserial_msgs/RequestParam.h ****       offset += length_name;
  47:User/Inc/rosserialInc/rosserial_msgs/RequestParam.h ****      return offset;
  48:User/Inc/rosserialInc/rosserial_msgs/RequestParam.h ****     }
  49:User/Inc/rosserialInc/rosserial_msgs/RequestParam.h **** 
  50:User/Inc/rosserialInc/rosserial_msgs/RequestParam.h ****     virtual const char * getType() override { return REQUESTPARAM; };
  51:User/Inc/rosserialInc/rosserial_msgs/RequestParam.h ****     virtual const char * getMD5() override { return "c1f3d28f1b044c871e6eff2e9fc3c667"; };
  52:User/Inc/rosserialInc/rosserial_msgs/RequestParam.h **** 
  53:User/Inc/rosserialInc/rosserial_msgs/RequestParam.h ****   };
ARM GAS  /tmp/ccBu519l.s 			page 31


  54:User/Inc/rosserialInc/rosserial_msgs/RequestParam.h **** 
  55:User/Inc/rosserialInc/rosserial_msgs/RequestParam.h ****   class RequestParamResponse : public ros::Msg
  56:User/Inc/rosserialInc/rosserial_msgs/RequestParam.h ****   {
  57:User/Inc/rosserialInc/rosserial_msgs/RequestParam.h ****     public:
  58:User/Inc/rosserialInc/rosserial_msgs/RequestParam.h ****       uint32_t ints_length;
  59:User/Inc/rosserialInc/rosserial_msgs/RequestParam.h ****       typedef int32_t _ints_type;
  60:User/Inc/rosserialInc/rosserial_msgs/RequestParam.h ****       _ints_type st_ints;
  61:User/Inc/rosserialInc/rosserial_msgs/RequestParam.h ****       _ints_type * ints;
  62:User/Inc/rosserialInc/rosserial_msgs/RequestParam.h ****       uint32_t floats_length;
  63:User/Inc/rosserialInc/rosserial_msgs/RequestParam.h ****       typedef float _floats_type;
  64:User/Inc/rosserialInc/rosserial_msgs/RequestParam.h ****       _floats_type st_floats;
  65:User/Inc/rosserialInc/rosserial_msgs/RequestParam.h ****       _floats_type * floats;
  66:User/Inc/rosserialInc/rosserial_msgs/RequestParam.h ****       uint32_t strings_length;
  67:User/Inc/rosserialInc/rosserial_msgs/RequestParam.h ****       typedef char* _strings_type;
  68:User/Inc/rosserialInc/rosserial_msgs/RequestParam.h ****       _strings_type st_strings;
  69:User/Inc/rosserialInc/rosserial_msgs/RequestParam.h ****       _strings_type * strings;
  70:User/Inc/rosserialInc/rosserial_msgs/RequestParam.h **** 
  71:User/Inc/rosserialInc/rosserial_msgs/RequestParam.h ****     RequestParamResponse():
  72:User/Inc/rosserialInc/rosserial_msgs/RequestParam.h ****       ints_length(0), st_ints(), ints(nullptr),
  73:User/Inc/rosserialInc/rosserial_msgs/RequestParam.h ****       floats_length(0), st_floats(), floats(nullptr),
  74:User/Inc/rosserialInc/rosserial_msgs/RequestParam.h ****       strings_length(0), st_strings(), strings(nullptr)
  75:User/Inc/rosserialInc/rosserial_msgs/RequestParam.h ****     {
  76:User/Inc/rosserialInc/rosserial_msgs/RequestParam.h ****     }
  77:User/Inc/rosserialInc/rosserial_msgs/RequestParam.h **** 
  78:User/Inc/rosserialInc/rosserial_msgs/RequestParam.h ****     virtual int serialize(unsigned char *outbuffer) const override
  79:User/Inc/rosserialInc/rosserial_msgs/RequestParam.h ****     {
  80:User/Inc/rosserialInc/rosserial_msgs/RequestParam.h ****       int offset = 0;
  81:User/Inc/rosserialInc/rosserial_msgs/RequestParam.h ****       *(outbuffer + offset + 0) = (this->ints_length >> (8 * 0)) & 0xFF;
  82:User/Inc/rosserialInc/rosserial_msgs/RequestParam.h ****       *(outbuffer + offset + 1) = (this->ints_length >> (8 * 1)) & 0xFF;
  83:User/Inc/rosserialInc/rosserial_msgs/RequestParam.h ****       *(outbuffer + offset + 2) = (this->ints_length >> (8 * 2)) & 0xFF;
  84:User/Inc/rosserialInc/rosserial_msgs/RequestParam.h ****       *(outbuffer + offset + 3) = (this->ints_length >> (8 * 3)) & 0xFF;
  85:User/Inc/rosserialInc/rosserial_msgs/RequestParam.h ****       offset += sizeof(this->ints_length);
  86:User/Inc/rosserialInc/rosserial_msgs/RequestParam.h ****       for( uint32_t i = 0; i < ints_length; i++){
  87:User/Inc/rosserialInc/rosserial_msgs/RequestParam.h ****       union {
  88:User/Inc/rosserialInc/rosserial_msgs/RequestParam.h ****         int32_t real;
  89:User/Inc/rosserialInc/rosserial_msgs/RequestParam.h ****         uint32_t base;
  90:User/Inc/rosserialInc/rosserial_msgs/RequestParam.h ****       } u_intsi;
  91:User/Inc/rosserialInc/rosserial_msgs/RequestParam.h ****       u_intsi.real = this->ints[i];
  92:User/Inc/rosserialInc/rosserial_msgs/RequestParam.h ****       *(outbuffer + offset + 0) = (u_intsi.base >> (8 * 0)) & 0xFF;
  93:User/Inc/rosserialInc/rosserial_msgs/RequestParam.h ****       *(outbuffer + offset + 1) = (u_intsi.base >> (8 * 1)) & 0xFF;
  94:User/Inc/rosserialInc/rosserial_msgs/RequestParam.h ****       *(outbuffer + offset + 2) = (u_intsi.base >> (8 * 2)) & 0xFF;
  95:User/Inc/rosserialInc/rosserial_msgs/RequestParam.h ****       *(outbuffer + offset + 3) = (u_intsi.base >> (8 * 3)) & 0xFF;
  96:User/Inc/rosserialInc/rosserial_msgs/RequestParam.h ****       offset += sizeof(this->ints[i]);
  97:User/Inc/rosserialInc/rosserial_msgs/RequestParam.h ****       }
  98:User/Inc/rosserialInc/rosserial_msgs/RequestParam.h ****       *(outbuffer + offset + 0) = (this->floats_length >> (8 * 0)) & 0xFF;
  99:User/Inc/rosserialInc/rosserial_msgs/RequestParam.h ****       *(outbuffer + offset + 1) = (this->floats_length >> (8 * 1)) & 0xFF;
 100:User/Inc/rosserialInc/rosserial_msgs/RequestParam.h ****       *(outbuffer + offset + 2) = (this->floats_length >> (8 * 2)) & 0xFF;
 101:User/Inc/rosserialInc/rosserial_msgs/RequestParam.h ****       *(outbuffer + offset + 3) = (this->floats_length >> (8 * 3)) & 0xFF;
 102:User/Inc/rosserialInc/rosserial_msgs/RequestParam.h ****       offset += sizeof(this->floats_length);
 103:User/Inc/rosserialInc/rosserial_msgs/RequestParam.h ****       for( uint32_t i = 0; i < floats_length; i++){
 104:User/Inc/rosserialInc/rosserial_msgs/RequestParam.h ****       union {
 105:User/Inc/rosserialInc/rosserial_msgs/RequestParam.h ****         float real;
 106:User/Inc/rosserialInc/rosserial_msgs/RequestParam.h ****         uint32_t base;
 107:User/Inc/rosserialInc/rosserial_msgs/RequestParam.h ****       } u_floatsi;
 108:User/Inc/rosserialInc/rosserial_msgs/RequestParam.h ****       u_floatsi.real = this->floats[i];
 109:User/Inc/rosserialInc/rosserial_msgs/RequestParam.h ****       *(outbuffer + offset + 0) = (u_floatsi.base >> (8 * 0)) & 0xFF;
 110:User/Inc/rosserialInc/rosserial_msgs/RequestParam.h ****       *(outbuffer + offset + 1) = (u_floatsi.base >> (8 * 1)) & 0xFF;
ARM GAS  /tmp/ccBu519l.s 			page 32


 111:User/Inc/rosserialInc/rosserial_msgs/RequestParam.h ****       *(outbuffer + offset + 2) = (u_floatsi.base >> (8 * 2)) & 0xFF;
 112:User/Inc/rosserialInc/rosserial_msgs/RequestParam.h ****       *(outbuffer + offset + 3) = (u_floatsi.base >> (8 * 3)) & 0xFF;
 113:User/Inc/rosserialInc/rosserial_msgs/RequestParam.h ****       offset += sizeof(this->floats[i]);
 114:User/Inc/rosserialInc/rosserial_msgs/RequestParam.h ****       }
 115:User/Inc/rosserialInc/rosserial_msgs/RequestParam.h ****       *(outbuffer + offset + 0) = (this->strings_length >> (8 * 0)) & 0xFF;
 116:User/Inc/rosserialInc/rosserial_msgs/RequestParam.h ****       *(outbuffer + offset + 1) = (this->strings_length >> (8 * 1)) & 0xFF;
 117:User/Inc/rosserialInc/rosserial_msgs/RequestParam.h ****       *(outbuffer + offset + 2) = (this->strings_length >> (8 * 2)) & 0xFF;
 118:User/Inc/rosserialInc/rosserial_msgs/RequestParam.h ****       *(outbuffer + offset + 3) = (this->strings_length >> (8 * 3)) & 0xFF;
 119:User/Inc/rosserialInc/rosserial_msgs/RequestParam.h ****       offset += sizeof(this->strings_length);
 120:User/Inc/rosserialInc/rosserial_msgs/RequestParam.h ****       for( uint32_t i = 0; i < strings_length; i++){
 121:User/Inc/rosserialInc/rosserial_msgs/RequestParam.h ****       uint32_t length_stringsi = strlen(this->strings[i]);
 122:User/Inc/rosserialInc/rosserial_msgs/RequestParam.h ****       varToArr(outbuffer + offset, length_stringsi);
 123:User/Inc/rosserialInc/rosserial_msgs/RequestParam.h ****       offset += 4;
 124:User/Inc/rosserialInc/rosserial_msgs/RequestParam.h ****       memcpy(outbuffer + offset, this->strings[i], length_stringsi);
 125:User/Inc/rosserialInc/rosserial_msgs/RequestParam.h ****       offset += length_stringsi;
 126:User/Inc/rosserialInc/rosserial_msgs/RequestParam.h ****       }
 127:User/Inc/rosserialInc/rosserial_msgs/RequestParam.h ****       return offset;
 128:User/Inc/rosserialInc/rosserial_msgs/RequestParam.h ****     }
 129:User/Inc/rosserialInc/rosserial_msgs/RequestParam.h **** 
 130:User/Inc/rosserialInc/rosserial_msgs/RequestParam.h ****     virtual int deserialize(unsigned char *inbuffer) override
 962              		.loc 5 130 17 is_stmt 1 view -0
 963              		.cfi_startproc
 964              		@ args = 0, pretend = 0, frame = 0
 965              		@ frame_needed = 0, uses_anonymous_args = 0
 966              		.loc 5 130 17 is_stmt 0 view .LVU314
 967 0000 F8B5     		push	{r3, r4, r5, r6, r7, lr}
 968              	.LCFI3:
 969              		.cfi_def_cfa_offset 24
 970              		.cfi_offset 3, -24
 971              		.cfi_offset 4, -20
 972              		.cfi_offset 5, -16
 973              		.cfi_offset 6, -12
 974              		.cfi_offset 7, -8
 975              		.cfi_offset 14, -4
 976 0002 0546     		mov	r5, r0
 977 0004 0C46     		mov	r4, r1
 131:User/Inc/rosserialInc/rosserial_msgs/RequestParam.h ****     {
 132:User/Inc/rosserialInc/rosserial_msgs/RequestParam.h ****       int offset = 0;
 978              		.loc 5 132 7 is_stmt 1 view .LVU315
 979              	.LVL89:
 133:User/Inc/rosserialInc/rosserial_msgs/RequestParam.h ****       uint32_t ints_lengthT = ((uint32_t) (*(inbuffer + offset))); 
 980              		.loc 5 133 7 view .LVU316
 981              		.loc 5 133 44 is_stmt 0 view .LVU317
 982 0006 0E78     		ldrb	r6, [r1]	@ zero_extendqisi2
 983              	.LVL90:
 134:User/Inc/rosserialInc/rosserial_msgs/RequestParam.h ****       ints_lengthT |= ((uint32_t) (*(inbuffer + offset + 1))) << (8 * 1); 
 984              		.loc 5 134 7 is_stmt 1 view .LVU318
 985              		.loc 5 134 36 is_stmt 0 view .LVU319
 986 0008 4B78     		ldrb	r3, [r1, #1]	@ zero_extendqisi2
 987              		.loc 5 134 20 view .LVU320
 988 000a 46EA0326 		orr	r6, r6, r3, lsl #8
 989              	.LVL91:
 135:User/Inc/rosserialInc/rosserial_msgs/RequestParam.h ****       ints_lengthT |= ((uint32_t) (*(inbuffer + offset + 2))) << (8 * 2); 
 990              		.loc 5 135 7 is_stmt 1 view .LVU321
 991              		.loc 5 135 36 is_stmt 0 view .LVU322
 992 000e 8B78     		ldrb	r3, [r1, #2]	@ zero_extendqisi2
 993              		.loc 5 135 20 view .LVU323
ARM GAS  /tmp/ccBu519l.s 			page 33


 994 0010 46EA0346 		orr	r6, r6, r3, lsl #16
 995              	.LVL92:
 136:User/Inc/rosserialInc/rosserial_msgs/RequestParam.h ****       ints_lengthT |= ((uint32_t) (*(inbuffer + offset + 3))) << (8 * 3); 
 996              		.loc 5 136 7 is_stmt 1 view .LVU324
 997              		.loc 5 136 36 is_stmt 0 view .LVU325
 998 0014 CB78     		ldrb	r3, [r1, #3]	@ zero_extendqisi2
 999              		.loc 5 136 20 view .LVU326
 1000 0016 46EA0366 		orr	r6, r6, r3, lsl #24
 1001              	.LVL93:
 137:User/Inc/rosserialInc/rosserial_msgs/RequestParam.h ****       offset += sizeof(this->ints_length);
 1002              		.loc 5 137 7 is_stmt 1 view .LVU327
 138:User/Inc/rosserialInc/rosserial_msgs/RequestParam.h ****       if(ints_lengthT > ints_length)
 1003              		.loc 5 138 7 view .LVU328
 1004              		.loc 5 138 25 is_stmt 0 view .LVU329
 1005 001a 4368     		ldr	r3, [r0, #4]
 1006              		.loc 5 138 7 view .LVU330
 1007 001c B342     		cmp	r3, r6
 1008 001e 19D3     		bcc	.L68
 1009              	.LVL94:
 1010              	.L54:
 139:User/Inc/rosserialInc/rosserial_msgs/RequestParam.h ****         this->ints = (int32_t*)realloc(this->ints, ints_lengthT * sizeof(int32_t));
 140:User/Inc/rosserialInc/rosserial_msgs/RequestParam.h ****       ints_length = ints_lengthT;
 1011              		.loc 5 140 7 is_stmt 1 view .LVU331
 1012              		.loc 5 140 19 is_stmt 0 view .LVU332
 1013 0020 6E60     		str	r6, [r5, #4]
 141:User/Inc/rosserialInc/rosserial_msgs/RequestParam.h ****       for( uint32_t i = 0; i < ints_length; i++){
 1014              		.loc 5 141 7 is_stmt 1 view .LVU333
 1015              	.LVL95:
 1016              	.LBB102:
 1017              		.loc 5 141 21 is_stmt 0 view .LVU334
 1018 0022 0022     		movs	r2, #0
 1019              	.LBE102:
 137:User/Inc/rosserialInc/rosserial_msgs/RequestParam.h ****       if(ints_lengthT > ints_length)
 1020              		.loc 5 137 14 view .LVU335
 1021 0024 0426     		movs	r6, #4
 1022              	.LVL96:
 1023              	.L56:
 1024              	.LBB104:
 1025              		.loc 5 141 30 is_stmt 1 discriminator 3 view .LVU336
 1026              		.loc 5 141 32 is_stmt 0 discriminator 3 view .LVU337
 1027 0026 6B68     		ldr	r3, [r5, #4]
 1028              		.loc 5 141 30 discriminator 3 view .LVU338
 1029 0028 9342     		cmp	r3, r2
 1030 002a 19D9     		bls	.L55
 1031              	.LBB103:
 142:User/Inc/rosserialInc/rosserial_msgs/RequestParam.h ****       union {
 1032              		.loc 5 142 7 is_stmt 1 discriminator 2 view .LVU339
 143:User/Inc/rosserialInc/rosserial_msgs/RequestParam.h ****         int32_t real;
 144:User/Inc/rosserialInc/rosserial_msgs/RequestParam.h ****         uint32_t base;
 145:User/Inc/rosserialInc/rosserial_msgs/RequestParam.h ****       } u_st_ints;
 146:User/Inc/rosserialInc/rosserial_msgs/RequestParam.h ****       u_st_ints.base = 0;
 1033              		.loc 5 146 7 discriminator 2 view .LVU340
 147:User/Inc/rosserialInc/rosserial_msgs/RequestParam.h ****       u_st_ints.base |= ((uint32_t) (*(inbuffer + offset + 0))) << (8 * 0);
 1034              		.loc 5 147 7 discriminator 2 view .LVU341
 1035              		.loc 5 147 38 is_stmt 0 discriminator 2 view .LVU342
 1036 002c A35D     		ldrb	r3, [r4, r6]	@ zero_extendqisi2
 148:User/Inc/rosserialInc/rosserial_msgs/RequestParam.h ****       u_st_ints.base |= ((uint32_t) (*(inbuffer + offset + 1))) << (8 * 1);
ARM GAS  /tmp/ccBu519l.s 			page 34


 1037              		.loc 5 148 7 is_stmt 1 discriminator 2 view .LVU343
 1038              		.loc 5 148 58 is_stmt 0 discriminator 2 view .LVU344
 1039 002e 711C     		adds	r1, r6, #1
 1040              		.loc 5 148 38 discriminator 2 view .LVU345
 1041 0030 615C     		ldrb	r1, [r4, r1]	@ zero_extendqisi2
 1042              		.loc 5 148 22 discriminator 2 view .LVU346
 1043 0032 43EA0123 		orr	r3, r3, r1, lsl #8
 149:User/Inc/rosserialInc/rosserial_msgs/RequestParam.h ****       u_st_ints.base |= ((uint32_t) (*(inbuffer + offset + 2))) << (8 * 2);
 1044              		.loc 5 149 7 is_stmt 1 discriminator 2 view .LVU347
 1045              		.loc 5 149 58 is_stmt 0 discriminator 2 view .LVU348
 1046 0036 B11C     		adds	r1, r6, #2
 1047              		.loc 5 149 38 discriminator 2 view .LVU349
 1048 0038 615C     		ldrb	r1, [r4, r1]	@ zero_extendqisi2
 1049              		.loc 5 149 22 discriminator 2 view .LVU350
 1050 003a 43EA0143 		orr	r3, r3, r1, lsl #16
 150:User/Inc/rosserialInc/rosserial_msgs/RequestParam.h ****       u_st_ints.base |= ((uint32_t) (*(inbuffer + offset + 3))) << (8 * 3);
 1051              		.loc 5 150 7 is_stmt 1 discriminator 2 view .LVU351
 1052              		.loc 5 150 58 is_stmt 0 discriminator 2 view .LVU352
 1053 003e F11C     		adds	r1, r6, #3
 1054              		.loc 5 150 38 discriminator 2 view .LVU353
 1055 0040 615C     		ldrb	r1, [r4, r1]	@ zero_extendqisi2
 1056              		.loc 5 150 22 discriminator 2 view .LVU354
 1057 0042 43EA0163 		orr	r3, r3, r1, lsl #24
 151:User/Inc/rosserialInc/rosserial_msgs/RequestParam.h ****       this->st_ints = u_st_ints.real;
 1058              		.loc 5 151 7 is_stmt 1 discriminator 2 view .LVU355
 1059              		.loc 5 151 21 is_stmt 0 discriminator 2 view .LVU356
 1060 0046 AB60     		str	r3, [r5, #8]
 152:User/Inc/rosserialInc/rosserial_msgs/RequestParam.h ****       offset += sizeof(this->st_ints);
 1061              		.loc 5 152 7 is_stmt 1 discriminator 2 view .LVU357
 1062              		.loc 5 152 14 is_stmt 0 discriminator 2 view .LVU358
 1063 0048 0436     		adds	r6, r6, #4
 1064              	.LVL97:
 153:User/Inc/rosserialInc/rosserial_msgs/RequestParam.h ****         memcpy( &(this->ints[i]), &(this->st_ints), sizeof(int32_t));
 1065              		.loc 5 153 9 is_stmt 1 discriminator 2 view .LVU359
 1066              		.loc 5 153 25 is_stmt 0 discriminator 2 view .LVU360
 1067 004a E968     		ldr	r1, [r5, #12]
 1068              		.loc 5 153 15 discriminator 2 view .LVU361
 1069 004c 41F82230 		str	r3, [r1, r2, lsl #2]	@ unaligned
 1070              	.LBE103:
 141:User/Inc/rosserialInc/rosserial_msgs/RequestParam.h ****       union {
 1071              		.loc 5 141 7 is_stmt 1 discriminator 2 view .LVU362
 1072 0050 0132     		adds	r2, r2, #1
 1073              	.LVL98:
 141:User/Inc/rosserialInc/rosserial_msgs/RequestParam.h ****       union {
 1074              		.loc 5 141 7 is_stmt 0 discriminator 2 view .LVU363
 1075 0052 E8E7     		b	.L56
 1076              	.LVL99:
 1077              	.L68:
 141:User/Inc/rosserialInc/rosserial_msgs/RequestParam.h ****       union {
 1078              		.loc 5 141 7 discriminator 2 view .LVU364
 1079              	.LBE104:
 139:User/Inc/rosserialInc/rosserial_msgs/RequestParam.h ****       ints_length = ints_lengthT;
 1080              		.loc 5 139 9 is_stmt 1 view .LVU365
 139:User/Inc/rosserialInc/rosserial_msgs/RequestParam.h ****       ints_length = ints_lengthT;
 1081              		.loc 5 139 39 is_stmt 0 view .LVU366
 1082 0054 B100     		lsls	r1, r6, #2
 1083              	.LVL100:
ARM GAS  /tmp/ccBu519l.s 			page 35


 139:User/Inc/rosserialInc/rosserial_msgs/RequestParam.h ****       ints_length = ints_lengthT;
 1084              		.loc 5 139 39 view .LVU367
 1085 0056 C068     		ldr	r0, [r0, #12]
 1086              	.LVL101:
 139:User/Inc/rosserialInc/rosserial_msgs/RequestParam.h ****       ints_length = ints_lengthT;
 1087              		.loc 5 139 39 view .LVU368
 1088 0058 FFF7FEFF 		bl	realloc
 1089              	.LVL102:
 139:User/Inc/rosserialInc/rosserial_msgs/RequestParam.h ****       ints_length = ints_lengthT;
 1090              		.loc 5 139 20 view .LVU369
 1091 005c E860     		str	r0, [r5, #12]
 1092 005e DFE7     		b	.L54
 1093              	.LVL103:
 1094              	.L55:
 154:User/Inc/rosserialInc/rosserial_msgs/RequestParam.h ****       }
 155:User/Inc/rosserialInc/rosserial_msgs/RequestParam.h ****       uint32_t floats_lengthT = ((uint32_t) (*(inbuffer + offset))); 
 1095              		.loc 5 155 7 is_stmt 1 view .LVU370
 1096              		.loc 5 155 46 is_stmt 0 view .LVU371
 1097 0060 A75D     		ldrb	r7, [r4, r6]	@ zero_extendqisi2
 1098              	.LVL104:
 156:User/Inc/rosserialInc/rosserial_msgs/RequestParam.h ****       floats_lengthT |= ((uint32_t) (*(inbuffer + offset + 1))) << (8 * 1); 
 1099              		.loc 5 156 7 is_stmt 1 view .LVU372
 1100              		.loc 5 156 58 is_stmt 0 view .LVU373
 1101 0062 731C     		adds	r3, r6, #1
 1102              		.loc 5 156 38 view .LVU374
 1103 0064 E35C     		ldrb	r3, [r4, r3]	@ zero_extendqisi2
 1104              		.loc 5 156 22 view .LVU375
 1105 0066 47EA0327 		orr	r7, r7, r3, lsl #8
 1106              	.LVL105:
 157:User/Inc/rosserialInc/rosserial_msgs/RequestParam.h ****       floats_lengthT |= ((uint32_t) (*(inbuffer + offset + 2))) << (8 * 2); 
 1107              		.loc 5 157 7 is_stmt 1 view .LVU376
 1108              		.loc 5 157 58 is_stmt 0 view .LVU377
 1109 006a B31C     		adds	r3, r6, #2
 1110              		.loc 5 157 38 view .LVU378
 1111 006c E35C     		ldrb	r3, [r4, r3]	@ zero_extendqisi2
 1112              		.loc 5 157 22 view .LVU379
 1113 006e 47EA0347 		orr	r7, r7, r3, lsl #16
 1114              	.LVL106:
 158:User/Inc/rosserialInc/rosserial_msgs/RequestParam.h ****       floats_lengthT |= ((uint32_t) (*(inbuffer + offset + 3))) << (8 * 3); 
 1115              		.loc 5 158 7 is_stmt 1 view .LVU380
 1116              		.loc 5 158 58 is_stmt 0 view .LVU381
 1117 0072 F31C     		adds	r3, r6, #3
 1118              		.loc 5 158 38 view .LVU382
 1119 0074 E35C     		ldrb	r3, [r4, r3]	@ zero_extendqisi2
 1120              		.loc 5 158 22 view .LVU383
 1121 0076 47EA0367 		orr	r7, r7, r3, lsl #24
 1122              	.LVL107:
 159:User/Inc/rosserialInc/rosserial_msgs/RequestParam.h ****       offset += sizeof(this->floats_length);
 1123              		.loc 5 159 7 is_stmt 1 view .LVU384
 1124              		.loc 5 159 14 is_stmt 0 view .LVU385
 1125 007a 0436     		adds	r6, r6, #4
 1126              	.LVL108:
 160:User/Inc/rosserialInc/rosserial_msgs/RequestParam.h ****       if(floats_lengthT > floats_length)
 1127              		.loc 5 160 7 is_stmt 1 view .LVU386
 1128              		.loc 5 160 27 is_stmt 0 view .LVU387
 1129 007c 2B69     		ldr	r3, [r5, #16]
 1130              		.loc 5 160 7 view .LVU388
ARM GAS  /tmp/ccBu519l.s 			page 36


 1131 007e BB42     		cmp	r3, r7
 1132 0080 18D3     		bcc	.L69
 1133              	.LVL109:
 1134              	.L57:
 161:User/Inc/rosserialInc/rosserial_msgs/RequestParam.h ****         this->floats = (float*)realloc(this->floats, floats_lengthT * sizeof(float));
 162:User/Inc/rosserialInc/rosserial_msgs/RequestParam.h ****       floats_length = floats_lengthT;
 1135              		.loc 5 162 7 is_stmt 1 view .LVU389
 1136              		.loc 5 162 21 is_stmt 0 view .LVU390
 1137 0082 2F61     		str	r7, [r5, #16]
 163:User/Inc/rosserialInc/rosserial_msgs/RequestParam.h ****       for( uint32_t i = 0; i < floats_length; i++){
 1138              		.loc 5 163 7 is_stmt 1 view .LVU391
 1139              	.LVL110:
 1140              	.LBB105:
 1141              		.loc 5 163 21 is_stmt 0 view .LVU392
 1142 0084 0022     		movs	r2, #0
 1143              	.LVL111:
 1144              	.L59:
 1145              		.loc 5 163 30 is_stmt 1 discriminator 3 view .LVU393
 1146              		.loc 5 163 32 is_stmt 0 discriminator 3 view .LVU394
 1147 0086 2B69     		ldr	r3, [r5, #16]
 1148              		.loc 5 163 30 discriminator 3 view .LVU395
 1149 0088 9342     		cmp	r3, r2
 1150 008a 19D9     		bls	.L58
 1151              	.LBB106:
 164:User/Inc/rosserialInc/rosserial_msgs/RequestParam.h ****       union {
 1152              		.loc 5 164 7 is_stmt 1 discriminator 2 view .LVU396
 165:User/Inc/rosserialInc/rosserial_msgs/RequestParam.h ****         float real;
 166:User/Inc/rosserialInc/rosserial_msgs/RequestParam.h ****         uint32_t base;
 167:User/Inc/rosserialInc/rosserial_msgs/RequestParam.h ****       } u_st_floats;
 168:User/Inc/rosserialInc/rosserial_msgs/RequestParam.h ****       u_st_floats.base = 0;
 1153              		.loc 5 168 7 discriminator 2 view .LVU397
 169:User/Inc/rosserialInc/rosserial_msgs/RequestParam.h ****       u_st_floats.base |= ((uint32_t) (*(inbuffer + offset + 0))) << (8 * 0);
 1154              		.loc 5 169 7 discriminator 2 view .LVU398
 1155              		.loc 5 169 40 is_stmt 0 discriminator 2 view .LVU399
 1156 008c A35D     		ldrb	r3, [r4, r6]	@ zero_extendqisi2
 170:User/Inc/rosserialInc/rosserial_msgs/RequestParam.h ****       u_st_floats.base |= ((uint32_t) (*(inbuffer + offset + 1))) << (8 * 1);
 1157              		.loc 5 170 7 is_stmt 1 discriminator 2 view .LVU400
 1158              		.loc 5 170 60 is_stmt 0 discriminator 2 view .LVU401
 1159 008e 711C     		adds	r1, r6, #1
 1160              		.loc 5 170 40 discriminator 2 view .LVU402
 1161 0090 615C     		ldrb	r1, [r4, r1]	@ zero_extendqisi2
 1162              		.loc 5 170 24 discriminator 2 view .LVU403
 1163 0092 43EA0123 		orr	r3, r3, r1, lsl #8
 171:User/Inc/rosserialInc/rosserial_msgs/RequestParam.h ****       u_st_floats.base |= ((uint32_t) (*(inbuffer + offset + 2))) << (8 * 2);
 1164              		.loc 5 171 7 is_stmt 1 discriminator 2 view .LVU404
 1165              		.loc 5 171 60 is_stmt 0 discriminator 2 view .LVU405
 1166 0096 B11C     		adds	r1, r6, #2
 1167              		.loc 5 171 40 discriminator 2 view .LVU406
 1168 0098 615C     		ldrb	r1, [r4, r1]	@ zero_extendqisi2
 1169              		.loc 5 171 24 discriminator 2 view .LVU407
 1170 009a 43EA0143 		orr	r3, r3, r1, lsl #16
 172:User/Inc/rosserialInc/rosserial_msgs/RequestParam.h ****       u_st_floats.base |= ((uint32_t) (*(inbuffer + offset + 3))) << (8 * 3);
 1171              		.loc 5 172 7 is_stmt 1 discriminator 2 view .LVU408
 1172              		.loc 5 172 60 is_stmt 0 discriminator 2 view .LVU409
 1173 009e F11C     		adds	r1, r6, #3
 1174              		.loc 5 172 40 discriminator 2 view .LVU410
 1175 00a0 615C     		ldrb	r1, [r4, r1]	@ zero_extendqisi2
ARM GAS  /tmp/ccBu519l.s 			page 37


 1176              		.loc 5 172 24 discriminator 2 view .LVU411
 1177 00a2 43EA0163 		orr	r3, r3, r1, lsl #24
 173:User/Inc/rosserialInc/rosserial_msgs/RequestParam.h ****       this->st_floats = u_st_floats.real;
 1178              		.loc 5 173 7 is_stmt 1 discriminator 2 view .LVU412
 1179              		.loc 5 173 23 is_stmt 0 discriminator 2 view .LVU413
 1180 00a6 6B61     		str	r3, [r5, #20]	@ float
 174:User/Inc/rosserialInc/rosserial_msgs/RequestParam.h ****       offset += sizeof(this->st_floats);
 1181              		.loc 5 174 7 is_stmt 1 discriminator 2 view .LVU414
 1182              		.loc 5 174 14 is_stmt 0 discriminator 2 view .LVU415
 1183 00a8 0436     		adds	r6, r6, #4
 1184              	.LVL112:
 175:User/Inc/rosserialInc/rosserial_msgs/RequestParam.h ****         memcpy( &(this->floats[i]), &(this->st_floats), sizeof(float));
 1185              		.loc 5 175 9 is_stmt 1 discriminator 2 view .LVU416
 1186              		.loc 5 175 25 is_stmt 0 discriminator 2 view .LVU417
 1187 00aa A969     		ldr	r1, [r5, #24]
 1188              		.loc 5 175 15 discriminator 2 view .LVU418
 1189 00ac 41F82230 		str	r3, [r1, r2, lsl #2]	@ unaligned
 1190              	.LBE106:
 163:User/Inc/rosserialInc/rosserial_msgs/RequestParam.h ****       union {
 1191              		.loc 5 163 7 is_stmt 1 discriminator 2 view .LVU419
 1192 00b0 0132     		adds	r2, r2, #1
 1193              	.LVL113:
 163:User/Inc/rosserialInc/rosserial_msgs/RequestParam.h ****       union {
 1194              		.loc 5 163 7 is_stmt 0 discriminator 2 view .LVU420
 1195 00b2 E8E7     		b	.L59
 1196              	.LVL114:
 1197              	.L69:
 163:User/Inc/rosserialInc/rosserial_msgs/RequestParam.h ****       union {
 1198              		.loc 5 163 7 discriminator 2 view .LVU421
 1199              	.LBE105:
 161:User/Inc/rosserialInc/rosserial_msgs/RequestParam.h ****       floats_length = floats_lengthT;
 1200              		.loc 5 161 9 is_stmt 1 view .LVU422
 161:User/Inc/rosserialInc/rosserial_msgs/RequestParam.h ****       floats_length = floats_lengthT;
 1201              		.loc 5 161 39 is_stmt 0 view .LVU423
 1202 00b4 B900     		lsls	r1, r7, #2
 1203 00b6 A869     		ldr	r0, [r5, #24]
 1204 00b8 FFF7FEFF 		bl	realloc
 1205              	.LVL115:
 161:User/Inc/rosserialInc/rosserial_msgs/RequestParam.h ****       floats_length = floats_lengthT;
 1206              		.loc 5 161 22 view .LVU424
 1207 00bc A861     		str	r0, [r5, #24]
 1208 00be E0E7     		b	.L57
 1209              	.LVL116:
 1210              	.L58:
 176:User/Inc/rosserialInc/rosserial_msgs/RequestParam.h ****       }
 177:User/Inc/rosserialInc/rosserial_msgs/RequestParam.h ****       uint32_t strings_lengthT = ((uint32_t) (*(inbuffer + offset))); 
 1211              		.loc 5 177 7 is_stmt 1 view .LVU425
 1212              		.loc 5 177 47 is_stmt 0 view .LVU426
 1213 00c0 A75D     		ldrb	r7, [r4, r6]	@ zero_extendqisi2
 1214              	.LVL117:
 178:User/Inc/rosserialInc/rosserial_msgs/RequestParam.h ****       strings_lengthT |= ((uint32_t) (*(inbuffer + offset + 1))) << (8 * 1); 
 1215              		.loc 5 178 7 is_stmt 1 view .LVU427
 1216              		.loc 5 178 59 is_stmt 0 view .LVU428
 1217 00c2 731C     		adds	r3, r6, #1
 1218              		.loc 5 178 39 view .LVU429
 1219 00c4 E35C     		ldrb	r3, [r4, r3]	@ zero_extendqisi2
 1220              		.loc 5 178 23 view .LVU430
ARM GAS  /tmp/ccBu519l.s 			page 38


 1221 00c6 47EA0327 		orr	r7, r7, r3, lsl #8
 1222              	.LVL118:
 179:User/Inc/rosserialInc/rosserial_msgs/RequestParam.h ****       strings_lengthT |= ((uint32_t) (*(inbuffer + offset + 2))) << (8 * 2); 
 1223              		.loc 5 179 7 is_stmt 1 view .LVU431
 1224              		.loc 5 179 59 is_stmt 0 view .LVU432
 1225 00ca B31C     		adds	r3, r6, #2
 1226              		.loc 5 179 39 view .LVU433
 1227 00cc E35C     		ldrb	r3, [r4, r3]	@ zero_extendqisi2
 1228              		.loc 5 179 23 view .LVU434
 1229 00ce 47EA0347 		orr	r7, r7, r3, lsl #16
 1230              	.LVL119:
 180:User/Inc/rosserialInc/rosserial_msgs/RequestParam.h ****       strings_lengthT |= ((uint32_t) (*(inbuffer + offset + 3))) << (8 * 3); 
 1231              		.loc 5 180 7 is_stmt 1 view .LVU435
 1232              		.loc 5 180 59 is_stmt 0 view .LVU436
 1233 00d2 F31C     		adds	r3, r6, #3
 1234              		.loc 5 180 39 view .LVU437
 1235 00d4 E35C     		ldrb	r3, [r4, r3]	@ zero_extendqisi2
 1236              		.loc 5 180 23 view .LVU438
 1237 00d6 47EA0367 		orr	r7, r7, r3, lsl #24
 1238              	.LVL120:
 181:User/Inc/rosserialInc/rosserial_msgs/RequestParam.h ****       offset += sizeof(this->strings_length);
 1239              		.loc 5 181 7 is_stmt 1 view .LVU439
 1240              		.loc 5 181 14 is_stmt 0 view .LVU440
 1241 00da 0436     		adds	r6, r6, #4
 1242              	.LVL121:
 182:User/Inc/rosserialInc/rosserial_msgs/RequestParam.h ****       if(strings_lengthT > strings_length)
 1243              		.loc 5 182 7 is_stmt 1 view .LVU441
 1244              		.loc 5 182 28 is_stmt 0 view .LVU442
 1245 00dc EB69     		ldr	r3, [r5, #28]
 1246              		.loc 5 182 7 view .LVU443
 1247 00de BB42     		cmp	r3, r7
 1248 00e0 03D3     		bcc	.L70
 1249              	.LVL122:
 1250              	.L60:
 183:User/Inc/rosserialInc/rosserial_msgs/RequestParam.h ****         this->strings = (char**)realloc(this->strings, strings_lengthT * sizeof(char*));
 184:User/Inc/rosserialInc/rosserial_msgs/RequestParam.h ****       strings_length = strings_lengthT;
 1251              		.loc 5 184 7 is_stmt 1 view .LVU444
 1252              		.loc 5 184 22 is_stmt 0 view .LVU445
 1253 00e2 EF61     		str	r7, [r5, #28]
 185:User/Inc/rosserialInc/rosserial_msgs/RequestParam.h ****       for( uint32_t i = 0; i < strings_length; i++){
 1254              		.loc 5 185 7 is_stmt 1 view .LVU446
 1255              	.LVL123:
 1256              	.LBB107:
 1257              		.loc 5 185 21 is_stmt 0 view .LVU447
 1258 00e4 4FF0000E 		mov	lr, #0
 1259 00e8 1DE0     		b	.L66
 1260              	.LVL124:
 1261              	.L70:
 1262              		.loc 5 185 21 view .LVU448
 1263              	.LBE107:
 183:User/Inc/rosserialInc/rosserial_msgs/RequestParam.h ****         this->strings = (char**)realloc(this->strings, strings_lengthT * sizeof(char*));
 1264              		.loc 5 183 9 is_stmt 1 view .LVU449
 183:User/Inc/rosserialInc/rosserial_msgs/RequestParam.h ****         this->strings = (char**)realloc(this->strings, strings_lengthT * sizeof(char*));
 1265              		.loc 5 183 40 is_stmt 0 view .LVU450
 1266 00ea B900     		lsls	r1, r7, #2
 1267 00ec 686A     		ldr	r0, [r5, #36]
 1268 00ee FFF7FEFF 		bl	realloc
ARM GAS  /tmp/ccBu519l.s 			page 39


 1269              	.LVL125:
 183:User/Inc/rosserialInc/rosserial_msgs/RequestParam.h ****         this->strings = (char**)realloc(this->strings, strings_lengthT * sizeof(char*));
 1270              		.loc 5 183 23 view .LVU451
 1271 00f2 6862     		str	r0, [r5, #36]
 1272 00f4 F5E7     		b	.L60
 1273              	.LVL126:
 1274              	.L62:
 1275              	.LBB114:
 1276              	.LBB108:
 186:User/Inc/rosserialInc/rosserial_msgs/RequestParam.h ****       uint32_t length_st_strings;
 187:User/Inc/rosserialInc/rosserial_msgs/RequestParam.h ****       arrToVar(length_st_strings, (inbuffer + offset));
 188:User/Inc/rosserialInc/rosserial_msgs/RequestParam.h ****       offset += 4;
 1277              		.loc 5 188 7 is_stmt 1 view .LVU452
 1278              		.loc 5 188 14 is_stmt 0 view .LVU453
 1279 00f6 0436     		adds	r6, r6, #4
 1280              	.LVL127:
 189:User/Inc/rosserialInc/rosserial_msgs/RequestParam.h ****       for(unsigned int k= offset; k< offset+length_st_strings; ++k){
 1281              		.loc 5 189 7 is_stmt 1 view .LVU454
 1282              	.LBB109:
 1283              		.loc 5 189 24 is_stmt 0 view .LVU455
 1284 00f8 3346     		mov	r3, r6
 1285 00fa 03E0     		b	.L65
 1286              	.LVL128:
 1287              	.L71:
 190:User/Inc/rosserialInc/rosserial_msgs/RequestParam.h ****           inbuffer[k-1]=inbuffer[k];
 1288              		.loc 5 190 11 is_stmt 1 discriminator 2 view .LVU456
 1289              		.loc 5 190 23 is_stmt 0 discriminator 2 view .LVU457
 1290 00fc 5A1E     		subs	r2, r3, #1
 1291              		.loc 5 190 35 discriminator 2 view .LVU458
 1292 00fe E05C     		ldrb	r0, [r4, r3]	@ zero_extendqisi2
 1293              		.loc 5 190 24 discriminator 2 view .LVU459
 1294 0100 A054     		strb	r0, [r4, r2]
 189:User/Inc/rosserialInc/rosserial_msgs/RequestParam.h ****       for(unsigned int k= offset; k< offset+length_st_strings; ++k){
 1295              		.loc 5 189 7 is_stmt 1 discriminator 2 view .LVU460
 1296 0102 0133     		adds	r3, r3, #1
 1297              	.LVL129:
 1298              	.L65:
 189:User/Inc/rosserialInc/rosserial_msgs/RequestParam.h ****       for(unsigned int k= offset; k< offset+length_st_strings; ++k){
 1299              		.loc 5 189 36 discriminator 3 view .LVU461
 189:User/Inc/rosserialInc/rosserial_msgs/RequestParam.h ****       for(unsigned int k= offset; k< offset+length_st_strings; ++k){
 1300              		.loc 5 189 44 is_stmt 0 discriminator 3 view .LVU462
 1301 0104 7218     		adds	r2, r6, r1
 189:User/Inc/rosserialInc/rosserial_msgs/RequestParam.h ****       for(unsigned int k= offset; k< offset+length_st_strings; ++k){
 1302              		.loc 5 189 36 discriminator 3 view .LVU463
 1303 0106 9A42     		cmp	r2, r3
 1304 0108 F8D8     		bhi	.L71
 189:User/Inc/rosserialInc/rosserial_msgs/RequestParam.h ****       for(unsigned int k= offset; k< offset+length_st_strings; ++k){
 1305              		.loc 5 189 36 discriminator 3 view .LVU464
 1306              	.LBE109:
 191:User/Inc/rosserialInc/rosserial_msgs/RequestParam.h ****       }
 192:User/Inc/rosserialInc/rosserial_msgs/RequestParam.h ****       inbuffer[offset+length_st_strings-1]=0;
 1307              		.loc 5 192 7 is_stmt 1 discriminator 2 view .LVU465
 1308              		.loc 5 192 42 is_stmt 0 discriminator 2 view .LVU466
 1309 010a 013A     		subs	r2, r2, #1
 1310              		.loc 5 192 43 discriminator 2 view .LVU467
 1311 010c 0023     		movs	r3, #0
 1312              	.LVL130:
ARM GAS  /tmp/ccBu519l.s 			page 40


 1313              		.loc 5 192 43 discriminator 2 view .LVU468
 1314 010e A354     		strb	r3, [r4, r2]
 193:User/Inc/rosserialInc/rosserial_msgs/RequestParam.h ****       this->st_strings = (char *)(inbuffer + offset-1);
 1315              		.loc 5 193 7 is_stmt 1 discriminator 2 view .LVU469
 1316              		.loc 5 193 52 is_stmt 0 discriminator 2 view .LVU470
 1317 0110 0CF1030C 		add	ip, ip, #3
 1318 0114 04EB0C03 		add	r3, r4, ip
 1319              		.loc 5 193 24 discriminator 2 view .LVU471
 1320 0118 2B62     		str	r3, [r5, #32]
 194:User/Inc/rosserialInc/rosserial_msgs/RequestParam.h ****       offset += length_st_strings;
 1321              		.loc 5 194 7 is_stmt 1 discriminator 2 view .LVU472
 1322              		.loc 5 194 14 is_stmt 0 discriminator 2 view .LVU473
 1323 011a 0E44     		add	r6, r6, r1
 1324              	.LVL131:
 195:User/Inc/rosserialInc/rosserial_msgs/RequestParam.h ****         memcpy( &(this->strings[i]), &(this->st_strings), sizeof(char*));
 1325              		.loc 5 195 9 is_stmt 1 discriminator 2 view .LVU474
 1326              		.loc 5 195 25 is_stmt 0 discriminator 2 view .LVU475
 1327 011c 6A6A     		ldr	r2, [r5, #36]
 1328              		.loc 5 195 15 discriminator 2 view .LVU476
 1329 011e 42F82E30 		str	r3, [r2, lr, lsl #2]	@ unaligned
 1330              	.LVL132:
 1331              		.loc 5 195 15 discriminator 2 view .LVU477
 1332              	.LBE108:
 185:User/Inc/rosserialInc/rosserial_msgs/RequestParam.h ****       uint32_t length_st_strings;
 1333              		.loc 5 185 7 is_stmt 1 discriminator 2 view .LVU478
 1334 0122 0EF1010E 		add	lr, lr, #1
 1335              	.LVL133:
 1336              	.L66:
 185:User/Inc/rosserialInc/rosserial_msgs/RequestParam.h ****       uint32_t length_st_strings;
 1337              		.loc 5 185 30 discriminator 1 view .LVU479
 185:User/Inc/rosserialInc/rosserial_msgs/RequestParam.h ****       uint32_t length_st_strings;
 1338              		.loc 5 185 32 is_stmt 0 discriminator 1 view .LVU480
 1339 0126 EB69     		ldr	r3, [r5, #28]
 185:User/Inc/rosserialInc/rosserial_msgs/RequestParam.h ****       uint32_t length_st_strings;
 1340              		.loc 5 185 30 discriminator 1 view .LVU481
 1341 0128 7345     		cmp	r3, lr
 1342 012a 0BD9     		bls	.L53
 1343              	.LBB113:
 186:User/Inc/rosserialInc/rosserial_msgs/RequestParam.h ****       arrToVar(length_st_strings, (inbuffer + offset));
 1344              		.loc 5 186 7 is_stmt 1 view .LVU482
 187:User/Inc/rosserialInc/rosserial_msgs/RequestParam.h ****       offset += 4;
 1345              		.loc 5 187 7 view .LVU483
 187:User/Inc/rosserialInc/rosserial_msgs/RequestParam.h ****       offset += 4;
 1346              		.loc 5 187 47 is_stmt 0 view .LVU484
 1347 012c B446     		mov	ip, r6
 187:User/Inc/rosserialInc/rosserial_msgs/RequestParam.h ****       offset += 4;
 1348              		.loc 5 187 15 view .LVU485
 1349 012e A719     		adds	r7, r4, r6
 1350              	.LVL134:
 1351              	.LBB110:
 1352              	.LBI110:
 196:User/Inc/rosserialInc/ros/msg.h ****   {
 1353              		.loc 3 196 15 is_stmt 1 view .LVU486
 1354              	.LBB111:
 198:User/Inc/rosserialInc/ros/msg.h ****     for (size_t i = 0; i < sizeof(V); i++)
 1355              		.loc 3 198 9 is_stmt 0 view .LVU487
 1356 0130 0021     		movs	r1, #0
ARM GAS  /tmp/ccBu519l.s 			page 41


 1357              	.LBB112:
 199:User/Inc/rosserialInc/ros/msg.h ****       var |= (arr[i] << (8 * i));
 1358              		.loc 3 199 17 view .LVU488
 1359 0132 0B46     		mov	r3, r1
 1360              	.LVL135:
 1361              	.L63:
 199:User/Inc/rosserialInc/ros/msg.h ****       var |= (arr[i] << (8 * i));
 1362              		.loc 3 199 26 is_stmt 1 view .LVU489
 1363 0134 032B     		cmp	r3, #3
 1364 0136 DED8     		bhi	.L62
 1365              		.loc 3 200 18 is_stmt 0 view .LVU490
 1366 0138 FA5C     		ldrb	r2, [r7, r3]	@ zero_extendqisi2
 1367              		.loc 3 200 28 view .LVU491
 1368 013a D800     		lsls	r0, r3, #3
 1369              		.loc 3 200 22 view .LVU492
 1370 013c 8240     		lsls	r2, r2, r0
 1371              		.loc 3 200 11 view .LVU493
 1372 013e 1143     		orrs	r1, r1, r2
 1373              	.LVL136:
 199:User/Inc/rosserialInc/ros/msg.h ****       var |= (arr[i] << (8 * i));
 1374              		.loc 3 199 5 is_stmt 1 view .LVU494
 1375 0140 0133     		adds	r3, r3, #1
 1376              	.LVL137:
 199:User/Inc/rosserialInc/ros/msg.h ****       var |= (arr[i] << (8 * i));
 1377              		.loc 3 199 5 is_stmt 0 view .LVU495
 1378 0142 F7E7     		b	.L63
 1379              	.LVL138:
 1380              	.L53:
 199:User/Inc/rosserialInc/ros/msg.h ****       var |= (arr[i] << (8 * i));
 1381              		.loc 3 199 5 view .LVU496
 1382              	.LBE112:
 1383              	.LBE111:
 1384              	.LBE110:
 1385              	.LBE113:
 1386              	.LBE114:
 196:User/Inc/rosserialInc/rosserial_msgs/RequestParam.h ****       }
 197:User/Inc/rosserialInc/rosserial_msgs/RequestParam.h ****      return offset;
 198:User/Inc/rosserialInc/rosserial_msgs/RequestParam.h ****     }
 1387              		.loc 5 198 5 view .LVU497
 1388 0144 3046     		mov	r0, r6
 1389 0146 F8BD     		pop	{r3, r4, r5, r6, r7, pc}
 1390              		.loc 5 198 5 view .LVU498
 1391              		.cfi_endproc
 1392              	.LFE347:
 1393              		.cantunwind
 1394              		.fnend
 1396              		.section	.text.loop2,"ax",%progbits
 1397              		.align	1
 1398              		.global	loop2
 1399              		.syntax unified
 1400              		.thumb
 1401              		.thumb_func
 1402              		.fpu softvfp
 1404              	loop2:
 1405              		.fnstart
 1406              	.LFB445:
  88:User/myMain.cpp **** {
ARM GAS  /tmp/ccBu519l.s 			page 42


 1407              		.loc 4 88 1 is_stmt 1 view -0
 1408              		.cfi_startproc
 1409              		@ args = 0, pretend = 0, frame = 0
 1410              		@ frame_needed = 0, uses_anonymous_args = 0
 1411              		@ link register save eliminated.
  89:User/myMain.cpp **** }
 1412              		.loc 4 89 1 is_stmt 0 view .LVU500
 1413 0000 7047     		bx	lr
 1414              		.cfi_endproc
 1415              	.LFE445:
 1416              		.cantunwind
 1417              		.fnend
 1419              		.section	.text._Z12sub1CallbackRKN13hydrosoft_ros11Command_ArmE,"ax",%progbits
 1420              		.align	1
 1421              		.global	_Z12sub1CallbackRKN13hydrosoft_ros11Command_ArmE
 1422              		.syntax unified
 1423              		.thumb
 1424              		.thumb_func
 1425              		.fpu softvfp
 1427              	_Z12sub1CallbackRKN13hydrosoft_ros11Command_ArmE:
 1428              		.fnstart
 1429              	.LVL139:
 1430              	.LFB446:
  97:User/myMain.cpp **** {
 1431              		.loc 4 97 1 is_stmt 1 view -0
 1432              		.cfi_startproc
 1433              		@ args = 0, pretend = 0, frame = 0
 1434              		@ frame_needed = 0, uses_anonymous_args = 0
  97:User/myMain.cpp **** {
 1435              		.loc 4 97 1 is_stmt 0 view .LVU502
 1436 0000 38B5     		push	{r3, r4, r5, lr}
 1437              	.LCFI4:
 1438              		.cfi_def_cfa_offset 16
 1439              		.cfi_offset 3, -16
 1440              		.cfi_offset 4, -12
 1441              		.cfi_offset 5, -8
 1442              		.cfi_offset 14, -4
 1443 0002 0446     		mov	r4, r0
 100:User/myMain.cpp ****   uwManipulator.hostCommand.controlModeCommand = cmd_msg.controlModeCommand;
 1444              		.loc 4 100 3 is_stmt 1 view .LVU503
 100:User/myMain.cpp ****   uwManipulator.hostCommand.controlModeCommand = cmd_msg.controlModeCommand;
 1445              		.loc 4 100 58 is_stmt 0 view .LVU504
 1446 0004 B0F90430 		ldrsh	r3, [r0, #4]
 100:User/myMain.cpp ****   uwManipulator.hostCommand.controlModeCommand = cmd_msg.controlModeCommand;
 1447              		.loc 4 100 48 view .LVU505
 1448 0008 0A4D     		ldr	r5, .L75
 1449 000a A5F8D833 		strh	r3, [r5, #984]	@ movhi
 101:User/myMain.cpp ****   memcpy(uwManipulator.hostCommand.actuatorCommand, cmd_msg.actuatorCommand, cmd_msg.actuatorComman
 1450              		.loc 4 101 3 is_stmt 1 view .LVU506
 101:User/myMain.cpp ****   memcpy(uwManipulator.hostCommand.actuatorCommand, cmd_msg.actuatorCommand, cmd_msg.actuatorComman
 1451              		.loc 4 101 9 is_stmt 0 view .LVU507
 1452 000e 8268     		ldr	r2, [r0, #8]
 1453 0010 0169     		ldr	r1, [r0, #16]
 1454 0012 D5F8E403 		ldr	r0, [r5, #996]
 1455              	.LVL140:
 101:User/myMain.cpp ****   memcpy(uwManipulator.hostCommand.actuatorCommand, cmd_msg.actuatorCommand, cmd_msg.actuatorComman
 1456              		.loc 4 101 9 view .LVU508
ARM GAS  /tmp/ccBu519l.s 			page 43


 1457 0016 FFF7FEFF 		bl	memcpy
 1458              	.LVL141:
 102:User/myMain.cpp ****   uwManipulator.hostCommand.gripperCommand = cmd_msg.gripperCommand;
 1459              		.loc 4 102 3 is_stmt 1 view .LVU509
 102:User/myMain.cpp ****   uwManipulator.hostCommand.gripperCommand = cmd_msg.gripperCommand;
 1460              		.loc 4 102 54 is_stmt 0 view .LVU510
 1461 001a B4F91430 		ldrsh	r3, [r4, #20]
 102:User/myMain.cpp ****   uwManipulator.hostCommand.gripperCommand = cmd_msg.gripperCommand;
 1462              		.loc 4 102 44 view .LVU511
 1463 001e A5F8E833 		strh	r3, [r5, #1000]	@ movhi
 103:User/myMain.cpp ****   uwManipulator.hostCommand.pSourceCommand = cmd_msg.pSourceCommand;
 1464              		.loc 4 103 3 is_stmt 1 view .LVU512
 103:User/myMain.cpp ****   uwManipulator.hostCommand.pSourceCommand = cmd_msg.pSourceCommand;
 1465              		.loc 4 103 54 is_stmt 0 view .LVU513
 1466 0022 B4F91630 		ldrsh	r3, [r4, #22]
 103:User/myMain.cpp ****   uwManipulator.hostCommand.pSourceCommand = cmd_msg.pSourceCommand;
 1467              		.loc 4 103 44 view .LVU514
 1468 0026 A5F8EA33 		strh	r3, [r5, #1002]	@ movhi
 104:User/myMain.cpp ****   uwManipulator.hostCommand.pSinkCommand = cmd_msg.pSinkCommand;
 1469              		.loc 4 104 3 is_stmt 1 view .LVU515
 104:User/myMain.cpp ****   uwManipulator.hostCommand.pSinkCommand = cmd_msg.pSinkCommand;
 1470              		.loc 4 104 52 is_stmt 0 view .LVU516
 1471 002a B4F91830 		ldrsh	r3, [r4, #24]
 104:User/myMain.cpp ****   uwManipulator.hostCommand.pSinkCommand = cmd_msg.pSinkCommand;
 1472              		.loc 4 104 42 view .LVU517
 1473 002e A5F8EC33 		strh	r3, [r5, #1004]	@ movhi
 105:User/myMain.cpp **** }
 1474              		.loc 4 105 1 view .LVU518
 1475 0032 38BD     		pop	{r3, r4, r5, pc}
 1476              	.LVL142:
 1477              	.L76:
 105:User/myMain.cpp **** }
 1478              		.loc 4 105 1 view .LVU519
 1479              		.align	2
 1480              	.L75:
 1481 0034 00000000 		.word	.LANCHOR0
 1482              		.cfi_endproc
 1483              	.LFE446:
 1484              		.cantunwind
 1485              		.fnend
 1487              		.section	.text._Z18setupLoopFrequencys,"ax",%progbits
 1488              		.align	1
 1489              		.global	_Z18setupLoopFrequencys
 1490              		.syntax unified
 1491              		.thumb
 1492              		.thumb_func
 1493              		.fpu softvfp
 1495              	_Z18setupLoopFrequencys:
 1496              		.fnstart
 1497              	.LVL143:
 1498              	.LFB447:
 108:User/myMain.cpp **** {
 1499              		.loc 4 108 1 is_stmt 1 view -0
 1500              		.cfi_startproc
 1501              		@ args = 0, pretend = 0, frame = 0
 1502              		@ frame_needed = 0, uses_anonymous_args = 0
 1503              		@ link register save eliminated.
ARM GAS  /tmp/ccBu519l.s 			page 44


 109:User/myMain.cpp ****   extern int32_t globalSensorTaskPeriod;
 1504              		.loc 4 109 3 view .LVU521
 110:User/myMain.cpp ****   globalSensorTaskPeriod = (int)(1000 / fre);
 1505              		.loc 4 110 3 view .LVU522
 110:User/myMain.cpp ****   globalSensorTaskPeriod = (int)(1000 / fre);
 1506              		.loc 4 110 39 is_stmt 0 view .LVU523
 1507 0000 4FF47A73 		mov	r3, #1000
 1508 0004 93FBF0F0 		sdiv	r0, r3, r0
 1509              	.LVL144:
 110:User/myMain.cpp ****   globalSensorTaskPeriod = (int)(1000 / fre);
 1510              		.loc 4 110 26 view .LVU524
 1511 0008 034B     		ldr	r3, .L80
 1512 000a 1860     		str	r0, [r3]
 111:User/myMain.cpp ****   if (globalSensorTaskPeriod < 1)
 1513              		.loc 4 111 3 is_stmt 1 view .LVU525
 1514 000c 0028     		cmp	r0, #0
 1515 000e 00DD     		ble	.L79
 1516              	.L77:
 113:User/myMain.cpp **** }
 1517              		.loc 4 113 1 is_stmt 0 view .LVU526
 1518 0010 7047     		bx	lr
 1519              	.L79:
 112:User/myMain.cpp ****     globalSensorTaskPeriod = 1;
 1520              		.loc 4 112 5 is_stmt 1 view .LVU527
 112:User/myMain.cpp ****     globalSensorTaskPeriod = 1;
 1521              		.loc 4 112 28 is_stmt 0 view .LVU528
 1522 0012 0122     		movs	r2, #1
 1523 0014 1A60     		str	r2, [r3]
 113:User/myMain.cpp **** }
 1524              		.loc 4 113 1 view .LVU529
 1525 0016 FBE7     		b	.L77
 1526              	.L81:
 1527              		.align	2
 1528              	.L80:
 1529 0018 00000000 		.word	globalSensorTaskPeriod
 1530              		.cfi_endproc
 1531              	.LFE447:
 1532              		.cantunwind
 1533              		.fnend
 1535              		.section	.text.setup,"ax",%progbits
 1536              		.align	1
 1537              		.global	setup
 1538              		.syntax unified
 1539              		.thumb
 1540              		.thumb_func
 1541              		.fpu softvfp
 1543              	setup:
 1544              		.fnstart
 1545              	.LFB443:
  48:User/myMain.cpp **** {
 1546              		.loc 4 48 1 is_stmt 1 view -0
 1547              		.cfi_startproc
 1548              		@ args = 0, pretend = 0, frame = 0
 1549              		@ frame_needed = 0, uses_anonymous_args = 0
 1550 0000 10B5     		push	{r4, lr}
 1551              		.save {r4, lr}
 1552              	.LCFI5:
ARM GAS  /tmp/ccBu519l.s 			page 45


 1553              		.cfi_def_cfa_offset 8
 1554              		.cfi_offset 4, -8
 1555              		.cfi_offset 14, -4
  51:User/myMain.cpp ****   LED_Driver_Setup();
 1556              		.loc 4 51 3 view .LVU531
  51:User/myMain.cpp ****   LED_Driver_Setup();
 1557              		.loc 4 51 19 is_stmt 0 view .LVU532
 1558 0002 FFF7FEFF 		bl	LED_Driver_Setup
 1559              	.LVL145:
  52:User/myMain.cpp ****   ADS1115_Setup();
 1560              		.loc 4 52 3 is_stmt 1 view .LVU533
  52:User/myMain.cpp ****   ADS1115_Setup();
 1561              		.loc 4 52 16 is_stmt 0 view .LVU534
 1562 0006 FFF7FEFF 		bl	ADS1115_Setup
 1563              	.LVL146:
  53:User/myMain.cpp ****   canConfig();
 1564              		.loc 4 53 3 is_stmt 1 view .LVU535
  53:User/myMain.cpp ****   canConfig();
 1565              		.loc 4 53 12 is_stmt 0 view .LVU536
 1566 000a FFF7FEFF 		bl	canConfig
 1567              	.LVL147:
  56:User/myMain.cpp ****   setupLoopFrequency(100);
 1568              		.loc 4 56 3 is_stmt 1 view .LVU537
  56:User/myMain.cpp ****   setupLoopFrequency(100);
 1569              		.loc 4 56 21 is_stmt 0 view .LVU538
 1570 000e 6420     		movs	r0, #100
 1571 0010 FFF7FEFF 		bl	_Z18setupLoopFrequencys
 1572              	.LVL148:
  59:User/myMain.cpp ****   uwManipulator.setupActuatorPorts(actuatorInitPorts);
 1573              		.loc 4 59 3 is_stmt 1 view .LVU539
  59:User/myMain.cpp ****   uwManipulator.setupActuatorPorts(actuatorInitPorts);
 1574              		.loc 4 59 35 is_stmt 0 view .LVU540
 1575 0014 0D4C     		ldr	r4, .L84
 1576 0016 0E49     		ldr	r1, .L84+4
 1577 0018 2046     		mov	r0, r4
 1578 001a FFF7FEFF 		bl	_ZN26HydroUnderwaterManipulator18setupActuatorPortsERA3_A4_A2_h
 1579              	.LVL149:
  60:User/myMain.cpp ****   uwManipulator.setupGripperPorts(gripperInitPort);
 1580              		.loc 4 60 3 is_stmt 1 view .LVU541
  60:User/myMain.cpp ****   uwManipulator.setupGripperPorts(gripperInitPort);
 1581              		.loc 4 60 34 is_stmt 0 view .LVU542
 1582 001e 0D49     		ldr	r1, .L84+8
 1583 0020 2046     		mov	r0, r4
 1584 0022 FFF7FEFF 		bl	_ZN26HydroUnderwaterManipulator17setupGripperPortsERA2_h
 1585              	.LVL150:
  61:User/myMain.cpp ****   uwManipulator.setupPsourcePorts(pSourcePumpInitPort, pSourceValveInitPort, pSourceSensorInitPort)
 1586              		.loc 4 61 3 is_stmt 1 view .LVU543
  61:User/myMain.cpp ****   uwManipulator.setupPsourcePorts(pSourcePumpInitPort, pSourceValveInitPort, pSourceSensorInitPort)
 1587              		.loc 4 61 34 is_stmt 0 view .LVU544
 1588 0026 0C4B     		ldr	r3, .L84+12
 1589 0028 1B78     		ldrb	r3, [r3]	@ zero_extendqisi2
 1590 002a 0C4A     		ldr	r2, .L84+16
 1591 002c 1278     		ldrb	r2, [r2]	@ zero_extendqisi2
 1592 002e 0C49     		ldr	r1, .L84+20
 1593 0030 0978     		ldrb	r1, [r1]	@ zero_extendqisi2
 1594 0032 2046     		mov	r0, r4
 1595 0034 FFF7FEFF 		bl	_ZN26HydroUnderwaterManipulator17setupPsourcePortsEhhh
ARM GAS  /tmp/ccBu519l.s 			page 46


 1596              	.LVL151:
  62:User/myMain.cpp ****   uwManipulator.setupPsinkPorts(pSinkPumpInitPort, pSinkValveInitPort, pSinkSensorInitPort);
 1597              		.loc 4 62 3 is_stmt 1 view .LVU545
  62:User/myMain.cpp ****   uwManipulator.setupPsinkPorts(pSinkPumpInitPort, pSinkValveInitPort, pSinkSensorInitPort);
 1598              		.loc 4 62 32 is_stmt 0 view .LVU546
 1599 0038 0A4B     		ldr	r3, .L84+24
 1600 003a 1B78     		ldrb	r3, [r3]	@ zero_extendqisi2
 1601 003c 0A4A     		ldr	r2, .L84+28
 1602 003e 1278     		ldrb	r2, [r2]	@ zero_extendqisi2
 1603 0040 0A49     		ldr	r1, .L84+32
 1604 0042 0978     		ldrb	r1, [r1]	@ zero_extendqisi2
 1605 0044 2046     		mov	r0, r4
 1606 0046 FFF7FEFF 		bl	_ZN26HydroUnderwaterManipulator15setupPsinkPortsEhhh
 1607              	.LVL152:
  63:User/myMain.cpp **** }
 1608              		.loc 4 63 1 view .LVU547
 1609 004a 10BD     		pop	{r4, pc}
 1610              	.L85:
 1611              		.align	2
 1612              	.L84:
 1613 004c 00000000 		.word	.LANCHOR0
 1614 0050 00000000 		.word	.LANCHOR1
 1615 0054 00000000 		.word	.LANCHOR2
 1616 0058 00000000 		.word	.LANCHOR3
 1617 005c 00000000 		.word	.LANCHOR4
 1618 0060 00000000 		.word	.LANCHOR5
 1619 0064 00000000 		.word	.LANCHOR6
 1620 0068 00000000 		.word	.LANCHOR7
 1621 006c 00000000 		.word	.LANCHOR8
 1622              		.cfi_endproc
 1623              	.LFE443:
 1624              		.fnend
 1626              		.section	.text._Z19setupLoop2Frequencys,"ax",%progbits
 1627              		.align	1
 1628              		.global	_Z19setupLoop2Frequencys
 1629              		.syntax unified
 1630              		.thumb
 1631              		.thumb_func
 1632              		.fpu softvfp
 1634              	_Z19setupLoop2Frequencys:
 1635              		.fnstart
 1636              	.LVL153:
 1637              	.LFB448:
 116:User/myMain.cpp **** {
 1638              		.loc 4 116 1 is_stmt 1 view -0
 1639              		.cfi_startproc
 1640              		@ args = 0, pretend = 0, frame = 0
 1641              		@ frame_needed = 0, uses_anonymous_args = 0
 1642              		@ link register save eliminated.
 117:User/myMain.cpp ****   extern int32_t globalCommunicationTaskPeriod;
 1643              		.loc 4 117 3 view .LVU549
 118:User/myMain.cpp ****   globalCommunicationTaskPeriod = (int)(1000 / fre);
 1644              		.loc 4 118 3 view .LVU550
 118:User/myMain.cpp ****   globalCommunicationTaskPeriod = (int)(1000 / fre);
 1645              		.loc 4 118 46 is_stmt 0 view .LVU551
 1646 0000 4FF47A73 		mov	r3, #1000
 1647 0004 93FBF0F0 		sdiv	r0, r3, r0
ARM GAS  /tmp/ccBu519l.s 			page 47


 1648              	.LVL154:
 118:User/myMain.cpp ****   globalCommunicationTaskPeriod = (int)(1000 / fre);
 1649              		.loc 4 118 33 view .LVU552
 1650 0008 034B     		ldr	r3, .L89
 1651 000a 1860     		str	r0, [r3]
 119:User/myMain.cpp ****   if (globalCommunicationTaskPeriod < 1)
 1652              		.loc 4 119 3 is_stmt 1 view .LVU553
 1653 000c 0028     		cmp	r0, #0
 1654 000e 00DD     		ble	.L88
 1655              	.L86:
 1656              		.loc 4 121 1 is_stmt 0 view .LVU554
 1657 0010 7047     		bx	lr
 1658              	.L88:
 120:User/myMain.cpp ****     globalCommunicationTaskPeriod = 1;
 1659              		.loc 4 120 5 is_stmt 1 view .LVU555
 120:User/myMain.cpp ****     globalCommunicationTaskPeriod = 1;
 1660              		.loc 4 120 35 is_stmt 0 view .LVU556
 1661 0012 0122     		movs	r2, #1
 1662 0014 1A60     		str	r2, [r3]
 1663              		.loc 4 121 1 view .LVU557
 1664 0016 FBE7     		b	.L86
 1665              	.L90:
 1666              		.align	2
 1667              	.L89:
 1668 0018 00000000 		.word	globalCommunicationTaskPeriod
 1669              		.cfi_endproc
 1670              	.LFE448:
 1671              		.cantunwind
 1672              		.fnend
 1674              		.section	.rodata._ZN3ros11NodeHandle_I13STM32HardwareLi25ELi25ELi512ELi512EE15negotiateTopicsEv.st
 1675              		.align	2
 1676              	.LC4:
 1677 0000 00       		.ascii	"\000"
 1678              		.section	.text._ZN3ros11NodeHandle_I13STM32HardwareLi25ELi25ELi512ELi512EE15negotiateTopicsEv,"axG
 1679              		.align	1
 1680              		.weak	_ZN3ros11NodeHandle_I13STM32HardwareLi25ELi25ELi512ELi512EE15negotiateTopicsEv
 1681              		.syntax unified
 1682              		.thumb
 1683              		.thumb_func
 1684              		.fpu softvfp
 1686              	_ZN3ros11NodeHandle_I13STM32HardwareLi25ELi25ELi512ELi512EE15negotiateTopicsEv:
 1687              		.fnstart
 1688              	.LVL155:
 1689              	.LFB453:
 1690              		.file 6 "User/Inc/rosserialInc/ros/node_handle.h"
   1:User/Inc/rosserialInc/ros/node_handle.h **** /*
   2:User/Inc/rosserialInc/ros/node_handle.h ****  * Software License Agreement (BSD License)
   3:User/Inc/rosserialInc/ros/node_handle.h ****  *
   4:User/Inc/rosserialInc/ros/node_handle.h ****  * Copyright (c) 2011, Willow Garage, Inc.
   5:User/Inc/rosserialInc/ros/node_handle.h ****  * All rights reserved.
   6:User/Inc/rosserialInc/ros/node_handle.h ****  *
   7:User/Inc/rosserialInc/ros/node_handle.h ****  * Redistribution and use in source and binary forms, with or without
   8:User/Inc/rosserialInc/ros/node_handle.h ****  * modification, are permitted provided that the following conditions
   9:User/Inc/rosserialInc/ros/node_handle.h ****  * are met:
  10:User/Inc/rosserialInc/ros/node_handle.h ****  *
  11:User/Inc/rosserialInc/ros/node_handle.h ****  *  * Redistributions of source code must retain the above copyright
  12:User/Inc/rosserialInc/ros/node_handle.h ****  *    notice, this list of conditions and the following disclaimer.
ARM GAS  /tmp/ccBu519l.s 			page 48


  13:User/Inc/rosserialInc/ros/node_handle.h ****  *  * Redistributions in binary form must reproduce the above
  14:User/Inc/rosserialInc/ros/node_handle.h ****  *    copyright notice, this list of conditions and the following
  15:User/Inc/rosserialInc/ros/node_handle.h ****  *    disclaimer in the documentation and/or other materials provided
  16:User/Inc/rosserialInc/ros/node_handle.h ****  *    with the distribution.
  17:User/Inc/rosserialInc/ros/node_handle.h ****  *  * Neither the name of Willow Garage, Inc. nor the names of its
  18:User/Inc/rosserialInc/ros/node_handle.h ****  *    contributors may be used to endorse or promote prducts derived
  19:User/Inc/rosserialInc/ros/node_handle.h ****  *    from this software without specific prior written permission.
  20:User/Inc/rosserialInc/ros/node_handle.h ****  *
  21:User/Inc/rosserialInc/ros/node_handle.h ****  * THIS SOFTWARE IS PROVIDED BY THE COPYRIGHT HOLDERS AND CONTRIBUTORS
  22:User/Inc/rosserialInc/ros/node_handle.h ****  * "AS IS" AND ANY EXPRESS OR IMPLIED WARRANTIES, INCLUDING, BUT NOT
  23:User/Inc/rosserialInc/ros/node_handle.h ****  * LIMITED TO, THE IMPLIED WARRANTIES OF MERCHANTABILITY AND FITNESS
  24:User/Inc/rosserialInc/ros/node_handle.h ****  * FOR A PARTICULAR PURPOSE ARE DISCLAIMED. IN NO EVENT SHALL THE
  25:User/Inc/rosserialInc/ros/node_handle.h ****  * COPYRIGHT OWNER OR CONTRIBUTORS BE LIABLE FOR ANY DIRECT, INDIRECT,
  26:User/Inc/rosserialInc/ros/node_handle.h ****  * INCIDENTAL, SPECIAL, EXEMPLARY, OR CONSEQUENTIAL DAMAGES (INCLUDING,
  27:User/Inc/rosserialInc/ros/node_handle.h ****  * BUT NOT LIMITED TO, PROCUREMENT OF SUBSTITUTE GOODS OR SERVICES;
  28:User/Inc/rosserialInc/ros/node_handle.h ****  * LOSS OF USE, DATA, OR PROFITS; OR BUSINESS INTERRUPTION) HOWEVER
  29:User/Inc/rosserialInc/ros/node_handle.h ****  * CAUSED AND ON ANY THEORY OF LIABILITY, WHETHER IN CONTRACT, STRICT
  30:User/Inc/rosserialInc/ros/node_handle.h ****  * LIABILITY, OR TORT (INCLUDING NEGLIGENCE OR OTHERWISE) ARISING IN
  31:User/Inc/rosserialInc/ros/node_handle.h ****  * ANY WAY OUT OF THE USE OF THIS SOFTWARE, EVEN IF ADVISED OF THE
  32:User/Inc/rosserialInc/ros/node_handle.h ****  * POSSIBILITY OF SUCH DAMAGE.
  33:User/Inc/rosserialInc/ros/node_handle.h ****  */
  34:User/Inc/rosserialInc/ros/node_handle.h **** 
  35:User/Inc/rosserialInc/ros/node_handle.h **** #ifndef ROS_NODE_HANDLE_H_
  36:User/Inc/rosserialInc/ros/node_handle.h **** #define ROS_NODE_HANDLE_H_
  37:User/Inc/rosserialInc/ros/node_handle.h **** 
  38:User/Inc/rosserialInc/ros/node_handle.h **** #include <stdint.h>
  39:User/Inc/rosserialInc/ros/node_handle.h **** 
  40:User/Inc/rosserialInc/ros/node_handle.h **** #include "std_msgs/Time.h"
  41:User/Inc/rosserialInc/ros/node_handle.h **** #include "rosserial_msgs/TopicInfo.h"
  42:User/Inc/rosserialInc/ros/node_handle.h **** #include "rosserial_msgs/Log.h"
  43:User/Inc/rosserialInc/ros/node_handle.h **** #include "rosserial_msgs/RequestParam.h"
  44:User/Inc/rosserialInc/ros/node_handle.h **** 
  45:User/Inc/rosserialInc/ros/node_handle.h **** #include "ros/msg.h"
  46:User/Inc/rosserialInc/ros/node_handle.h **** 
  47:User/Inc/rosserialInc/ros/node_handle.h **** namespace ros
  48:User/Inc/rosserialInc/ros/node_handle.h **** {
  49:User/Inc/rosserialInc/ros/node_handle.h **** 
  50:User/Inc/rosserialInc/ros/node_handle.h **** class NodeHandleBase_
  51:User/Inc/rosserialInc/ros/node_handle.h **** {
  52:User/Inc/rosserialInc/ros/node_handle.h **** public:
  53:User/Inc/rosserialInc/ros/node_handle.h ****   virtual int publish(int id, const Msg* msg) = 0;
  54:User/Inc/rosserialInc/ros/node_handle.h ****   virtual int spinOnce() = 0;
  55:User/Inc/rosserialInc/ros/node_handle.h ****   virtual bool connected() = 0;
  56:User/Inc/rosserialInc/ros/node_handle.h **** };
  57:User/Inc/rosserialInc/ros/node_handle.h **** }
  58:User/Inc/rosserialInc/ros/node_handle.h **** 
  59:User/Inc/rosserialInc/ros/node_handle.h **** #include "ros/publisher.h"
  60:User/Inc/rosserialInc/ros/node_handle.h **** #include "ros/subscriber.h"
  61:User/Inc/rosserialInc/ros/node_handle.h **** #include "ros/service_server.h"
  62:User/Inc/rosserialInc/ros/node_handle.h **** #include "ros/service_client.h"
  63:User/Inc/rosserialInc/ros/node_handle.h **** 
  64:User/Inc/rosserialInc/ros/node_handle.h **** namespace ros
  65:User/Inc/rosserialInc/ros/node_handle.h **** {
  66:User/Inc/rosserialInc/ros/node_handle.h **** 
  67:User/Inc/rosserialInc/ros/node_handle.h **** const int SPIN_OK = 0;
  68:User/Inc/rosserialInc/ros/node_handle.h **** const int SPIN_ERR = -1;
  69:User/Inc/rosserialInc/ros/node_handle.h **** const int SPIN_TIMEOUT = -2;
ARM GAS  /tmp/ccBu519l.s 			page 49


  70:User/Inc/rosserialInc/ros/node_handle.h **** 
  71:User/Inc/rosserialInc/ros/node_handle.h **** const uint8_t SYNC_SECONDS  = 5;
  72:User/Inc/rosserialInc/ros/node_handle.h **** const uint8_t MODE_FIRST_FF = 0;
  73:User/Inc/rosserialInc/ros/node_handle.h **** /*
  74:User/Inc/rosserialInc/ros/node_handle.h ****  * The second sync byte is a protocol version. It's value is 0xff for the first
  75:User/Inc/rosserialInc/ros/node_handle.h ****  * version of the rosserial protocol (used up to hydro), 0xfe for the second version
  76:User/Inc/rosserialInc/ros/node_handle.h ****  * (introduced in hydro), 0xfd for the next, and so on. Its purpose is to enable
  77:User/Inc/rosserialInc/ros/node_handle.h ****  * detection of mismatched protocol versions (e.g. hydro rosserial_python with groovy
  78:User/Inc/rosserialInc/ros/node_handle.h ****  * rosserial_arduino. It must be changed in both this file and in
  79:User/Inc/rosserialInc/ros/node_handle.h ****  * rosserial_python/src/rosserial_python/SerialClient.py
  80:User/Inc/rosserialInc/ros/node_handle.h ****  */
  81:User/Inc/rosserialInc/ros/node_handle.h **** const uint8_t MODE_PROTOCOL_VER   = 1;
  82:User/Inc/rosserialInc/ros/node_handle.h **** const uint8_t PROTOCOL_VER1       = 0xff; // through groovy
  83:User/Inc/rosserialInc/ros/node_handle.h **** const uint8_t PROTOCOL_VER2       = 0xfe; // in hydro
  84:User/Inc/rosserialInc/ros/node_handle.h **** const uint8_t PROTOCOL_VER        = PROTOCOL_VER2;
  85:User/Inc/rosserialInc/ros/node_handle.h **** const uint8_t MODE_SIZE_L         = 2;
  86:User/Inc/rosserialInc/ros/node_handle.h **** const uint8_t MODE_SIZE_H         = 3;
  87:User/Inc/rosserialInc/ros/node_handle.h **** const uint8_t MODE_SIZE_CHECKSUM  = 4;    // checksum for msg size received from size L and H
  88:User/Inc/rosserialInc/ros/node_handle.h **** const uint8_t MODE_TOPIC_L        = 5;    // waiting for topic id
  89:User/Inc/rosserialInc/ros/node_handle.h **** const uint8_t MODE_TOPIC_H        = 6;
  90:User/Inc/rosserialInc/ros/node_handle.h **** const uint8_t MODE_MESSAGE        = 7;
  91:User/Inc/rosserialInc/ros/node_handle.h **** const uint8_t MODE_MSG_CHECKSUM   = 8;    // checksum for msg and topic id
  92:User/Inc/rosserialInc/ros/node_handle.h **** 
  93:User/Inc/rosserialInc/ros/node_handle.h **** 
  94:User/Inc/rosserialInc/ros/node_handle.h **** const uint8_t SERIAL_MSG_TIMEOUT  = 20;   // 20 milliseconds to recieve all of message data
  95:User/Inc/rosserialInc/ros/node_handle.h **** 
  96:User/Inc/rosserialInc/ros/node_handle.h **** using rosserial_msgs::TopicInfo;
  97:User/Inc/rosserialInc/ros/node_handle.h **** 
  98:User/Inc/rosserialInc/ros/node_handle.h **** /* Node Handle */
  99:User/Inc/rosserialInc/ros/node_handle.h **** template<class Hardware,
 100:User/Inc/rosserialInc/ros/node_handle.h ****          int MAX_SUBSCRIBERS = 25,
 101:User/Inc/rosserialInc/ros/node_handle.h ****          int MAX_PUBLISHERS = 25,
 102:User/Inc/rosserialInc/ros/node_handle.h ****          int INPUT_SIZE = 512,
 103:User/Inc/rosserialInc/ros/node_handle.h ****          int OUTPUT_SIZE = 512>
 104:User/Inc/rosserialInc/ros/node_handle.h **** class NodeHandle_ : public NodeHandleBase_
 105:User/Inc/rosserialInc/ros/node_handle.h **** {
 106:User/Inc/rosserialInc/ros/node_handle.h **** protected:
 107:User/Inc/rosserialInc/ros/node_handle.h ****   Hardware hardware_{};
 108:User/Inc/rosserialInc/ros/node_handle.h **** 
 109:User/Inc/rosserialInc/ros/node_handle.h ****   /* time used for syncing */
 110:User/Inc/rosserialInc/ros/node_handle.h ****   uint32_t rt_time{0};
 111:User/Inc/rosserialInc/ros/node_handle.h **** 
 112:User/Inc/rosserialInc/ros/node_handle.h ****   /* used for computing current time */
 113:User/Inc/rosserialInc/ros/node_handle.h ****   uint32_t sec_offset{0}, nsec_offset{0};
 114:User/Inc/rosserialInc/ros/node_handle.h **** 
 115:User/Inc/rosserialInc/ros/node_handle.h ****   /* Spinonce maximum work timeout */
 116:User/Inc/rosserialInc/ros/node_handle.h ****   uint32_t spin_timeout_{0};
 117:User/Inc/rosserialInc/ros/node_handle.h **** 
 118:User/Inc/rosserialInc/ros/node_handle.h ****   uint8_t message_in[INPUT_SIZE] = {0};
 119:User/Inc/rosserialInc/ros/node_handle.h ****   uint8_t message_out[OUTPUT_SIZE] = {0};
 120:User/Inc/rosserialInc/ros/node_handle.h **** 
 121:User/Inc/rosserialInc/ros/node_handle.h ****   Publisher * publishers[MAX_PUBLISHERS] = {nullptr};
 122:User/Inc/rosserialInc/ros/node_handle.h ****   Subscriber_ * subscribers[MAX_SUBSCRIBERS] {nullptr};
 123:User/Inc/rosserialInc/ros/node_handle.h **** 
 124:User/Inc/rosserialInc/ros/node_handle.h ****   /*
 125:User/Inc/rosserialInc/ros/node_handle.h ****    * Setup Functions
 126:User/Inc/rosserialInc/ros/node_handle.h ****    */
ARM GAS  /tmp/ccBu519l.s 			page 50


 127:User/Inc/rosserialInc/ros/node_handle.h **** public:
 128:User/Inc/rosserialInc/ros/node_handle.h ****   Hardware* getHardware()
 129:User/Inc/rosserialInc/ros/node_handle.h ****   {
 130:User/Inc/rosserialInc/ros/node_handle.h ****     return &hardware_;
 131:User/Inc/rosserialInc/ros/node_handle.h ****   }
 132:User/Inc/rosserialInc/ros/node_handle.h **** 
 133:User/Inc/rosserialInc/ros/node_handle.h ****   /* Start serial, initialize buffers */
 134:User/Inc/rosserialInc/ros/node_handle.h ****   void initNode()
 135:User/Inc/rosserialInc/ros/node_handle.h ****   {
 136:User/Inc/rosserialInc/ros/node_handle.h ****     hardware_.init();
 137:User/Inc/rosserialInc/ros/node_handle.h ****     mode_ = 0;
 138:User/Inc/rosserialInc/ros/node_handle.h ****     bytes_ = 0;
 139:User/Inc/rosserialInc/ros/node_handle.h ****     index_ = 0;
 140:User/Inc/rosserialInc/ros/node_handle.h ****     topic_ = 0;
 141:User/Inc/rosserialInc/ros/node_handle.h ****   };
 142:User/Inc/rosserialInc/ros/node_handle.h **** 
 143:User/Inc/rosserialInc/ros/node_handle.h ****   /* Start a named port, which may be network server IP, initialize buffers */
 144:User/Inc/rosserialInc/ros/node_handle.h ****   void initNode(char *portName)
 145:User/Inc/rosserialInc/ros/node_handle.h ****   {
 146:User/Inc/rosserialInc/ros/node_handle.h ****     hardware_.init(portName);
 147:User/Inc/rosserialInc/ros/node_handle.h ****     mode_ = 0;
 148:User/Inc/rosserialInc/ros/node_handle.h ****     bytes_ = 0;
 149:User/Inc/rosserialInc/ros/node_handle.h ****     index_ = 0;
 150:User/Inc/rosserialInc/ros/node_handle.h ****     topic_ = 0;
 151:User/Inc/rosserialInc/ros/node_handle.h ****   };
 152:User/Inc/rosserialInc/ros/node_handle.h **** 
 153:User/Inc/rosserialInc/ros/node_handle.h ****   /**
 154:User/Inc/rosserialInc/ros/node_handle.h ****    * @brief Sets the maximum time in millisconds that spinOnce() can work.
 155:User/Inc/rosserialInc/ros/node_handle.h ****    * This will not effect the processing of the buffer, as spinOnce processes
 156:User/Inc/rosserialInc/ros/node_handle.h ****    * one byte at a time. It simply sets the maximum time that one call can
 157:User/Inc/rosserialInc/ros/node_handle.h ****    * process for. You can choose to clear the buffer if that is beneficial if
 158:User/Inc/rosserialInc/ros/node_handle.h ****    * SPIN_TIMEOUT is returned from spinOnce().
 159:User/Inc/rosserialInc/ros/node_handle.h ****    * @param timeout The timeout in milliseconds that spinOnce will function.
 160:User/Inc/rosserialInc/ros/node_handle.h ****    */
 161:User/Inc/rosserialInc/ros/node_handle.h ****   void setSpinTimeout(const uint32_t& timeout)
 162:User/Inc/rosserialInc/ros/node_handle.h ****   {
 163:User/Inc/rosserialInc/ros/node_handle.h ****      spin_timeout_ = timeout;
 164:User/Inc/rosserialInc/ros/node_handle.h ****   }
 165:User/Inc/rosserialInc/ros/node_handle.h **** 
 166:User/Inc/rosserialInc/ros/node_handle.h **** protected:
 167:User/Inc/rosserialInc/ros/node_handle.h ****   // State machine variables for spinOnce
 168:User/Inc/rosserialInc/ros/node_handle.h ****   int mode_{0};
 169:User/Inc/rosserialInc/ros/node_handle.h ****   int bytes_{0};
 170:User/Inc/rosserialInc/ros/node_handle.h ****   int topic_{0};
 171:User/Inc/rosserialInc/ros/node_handle.h ****   int index_{0};
 172:User/Inc/rosserialInc/ros/node_handle.h ****   int checksum_{0};
 173:User/Inc/rosserialInc/ros/node_handle.h **** 
 174:User/Inc/rosserialInc/ros/node_handle.h ****   bool configured_{false};
 175:User/Inc/rosserialInc/ros/node_handle.h **** 
 176:User/Inc/rosserialInc/ros/node_handle.h ****   /* used for syncing the time */
 177:User/Inc/rosserialInc/ros/node_handle.h ****   uint32_t last_sync_time{0};
 178:User/Inc/rosserialInc/ros/node_handle.h ****   uint32_t last_sync_receive_time{0};
 179:User/Inc/rosserialInc/ros/node_handle.h ****   uint32_t last_msg_timeout_time{0};
 180:User/Inc/rosserialInc/ros/node_handle.h **** 
 181:User/Inc/rosserialInc/ros/node_handle.h **** public:
 182:User/Inc/rosserialInc/ros/node_handle.h ****   /* This function goes in your loop() function, it handles
 183:User/Inc/rosserialInc/ros/node_handle.h ****    *  serial input and callbacks for subscribers.
ARM GAS  /tmp/ccBu519l.s 			page 51


 184:User/Inc/rosserialInc/ros/node_handle.h ****    */
 185:User/Inc/rosserialInc/ros/node_handle.h **** 
 186:User/Inc/rosserialInc/ros/node_handle.h **** 
 187:User/Inc/rosserialInc/ros/node_handle.h ****   virtual int spinOnce() override
 188:User/Inc/rosserialInc/ros/node_handle.h ****   {
 189:User/Inc/rosserialInc/ros/node_handle.h ****     /* restart if timed out */
 190:User/Inc/rosserialInc/ros/node_handle.h ****     uint32_t c_time = hardware_.time();
 191:User/Inc/rosserialInc/ros/node_handle.h ****     if ((c_time - last_sync_receive_time) > (SYNC_SECONDS * 2200))
 192:User/Inc/rosserialInc/ros/node_handle.h ****     {
 193:User/Inc/rosserialInc/ros/node_handle.h ****       configured_ = false;
 194:User/Inc/rosserialInc/ros/node_handle.h ****     }
 195:User/Inc/rosserialInc/ros/node_handle.h **** 
 196:User/Inc/rosserialInc/ros/node_handle.h ****     /* reset if message has timed out */
 197:User/Inc/rosserialInc/ros/node_handle.h ****     if (mode_ != MODE_FIRST_FF)
 198:User/Inc/rosserialInc/ros/node_handle.h ****     {
 199:User/Inc/rosserialInc/ros/node_handle.h ****       if (c_time > last_msg_timeout_time)
 200:User/Inc/rosserialInc/ros/node_handle.h ****       {
 201:User/Inc/rosserialInc/ros/node_handle.h ****         mode_ = MODE_FIRST_FF;
 202:User/Inc/rosserialInc/ros/node_handle.h ****       }
 203:User/Inc/rosserialInc/ros/node_handle.h ****     }
 204:User/Inc/rosserialInc/ros/node_handle.h **** 
 205:User/Inc/rosserialInc/ros/node_handle.h ****     /* while available buffer, read data */
 206:User/Inc/rosserialInc/ros/node_handle.h ****     while (true)
 207:User/Inc/rosserialInc/ros/node_handle.h ****     {
 208:User/Inc/rosserialInc/ros/node_handle.h ****       // If a timeout has been specified, check how long spinOnce has been running.
 209:User/Inc/rosserialInc/ros/node_handle.h ****       if (spin_timeout_ > 0)
 210:User/Inc/rosserialInc/ros/node_handle.h ****       {
 211:User/Inc/rosserialInc/ros/node_handle.h ****         // If the maximum processing timeout has been exceeded, exit with error.
 212:User/Inc/rosserialInc/ros/node_handle.h ****         // The next spinOnce can continue where it left off, or optionally
 213:User/Inc/rosserialInc/ros/node_handle.h ****         // based on the application in use, the hardware buffer could be flushed
 214:User/Inc/rosserialInc/ros/node_handle.h ****         // and start fresh.
 215:User/Inc/rosserialInc/ros/node_handle.h ****         if ((hardware_.time() - c_time) > spin_timeout_)
 216:User/Inc/rosserialInc/ros/node_handle.h ****         {
 217:User/Inc/rosserialInc/ros/node_handle.h ****           // Exit the spin, processing timeout exceeded.
 218:User/Inc/rosserialInc/ros/node_handle.h ****           return SPIN_TIMEOUT;
 219:User/Inc/rosserialInc/ros/node_handle.h ****         }
 220:User/Inc/rosserialInc/ros/node_handle.h ****       }
 221:User/Inc/rosserialInc/ros/node_handle.h ****       int data = hardware_.read();
 222:User/Inc/rosserialInc/ros/node_handle.h ****       if (data < 0)
 223:User/Inc/rosserialInc/ros/node_handle.h ****         break;
 224:User/Inc/rosserialInc/ros/node_handle.h ****       checksum_ += data;
 225:User/Inc/rosserialInc/ros/node_handle.h ****       if (mode_ == MODE_MESSAGE)          /* message data being recieved */
 226:User/Inc/rosserialInc/ros/node_handle.h ****       {
 227:User/Inc/rosserialInc/ros/node_handle.h ****         message_in[index_++] = data;
 228:User/Inc/rosserialInc/ros/node_handle.h ****         bytes_--;
 229:User/Inc/rosserialInc/ros/node_handle.h ****         if (bytes_ == 0)                 /* is message complete? if so, checksum */
 230:User/Inc/rosserialInc/ros/node_handle.h ****           mode_ = MODE_MSG_CHECKSUM;
 231:User/Inc/rosserialInc/ros/node_handle.h ****       }
 232:User/Inc/rosserialInc/ros/node_handle.h ****       else if (mode_ == MODE_FIRST_FF)
 233:User/Inc/rosserialInc/ros/node_handle.h ****       {
 234:User/Inc/rosserialInc/ros/node_handle.h ****         if (data == 0xff)
 235:User/Inc/rosserialInc/ros/node_handle.h ****         {
 236:User/Inc/rosserialInc/ros/node_handle.h ****           mode_++;
 237:User/Inc/rosserialInc/ros/node_handle.h ****           last_msg_timeout_time = c_time + SERIAL_MSG_TIMEOUT;
 238:User/Inc/rosserialInc/ros/node_handle.h ****         }
 239:User/Inc/rosserialInc/ros/node_handle.h ****         else if (hardware_.time() - c_time > (SYNC_SECONDS * 1000))
 240:User/Inc/rosserialInc/ros/node_handle.h ****         {
ARM GAS  /tmp/ccBu519l.s 			page 52


 241:User/Inc/rosserialInc/ros/node_handle.h ****           /* We have been stuck in spinOnce too long, return error */
 242:User/Inc/rosserialInc/ros/node_handle.h ****           configured_ = false;
 243:User/Inc/rosserialInc/ros/node_handle.h ****           return SPIN_TIMEOUT;
 244:User/Inc/rosserialInc/ros/node_handle.h ****         }
 245:User/Inc/rosserialInc/ros/node_handle.h ****       }
 246:User/Inc/rosserialInc/ros/node_handle.h ****       else if (mode_ == MODE_PROTOCOL_VER)
 247:User/Inc/rosserialInc/ros/node_handle.h ****       {
 248:User/Inc/rosserialInc/ros/node_handle.h ****         if (data == PROTOCOL_VER)
 249:User/Inc/rosserialInc/ros/node_handle.h ****         {
 250:User/Inc/rosserialInc/ros/node_handle.h ****           mode_++;
 251:User/Inc/rosserialInc/ros/node_handle.h ****         }
 252:User/Inc/rosserialInc/ros/node_handle.h ****         else
 253:User/Inc/rosserialInc/ros/node_handle.h ****         {
 254:User/Inc/rosserialInc/ros/node_handle.h ****           mode_ = MODE_FIRST_FF;
 255:User/Inc/rosserialInc/ros/node_handle.h ****           if (configured_ == false)
 256:User/Inc/rosserialInc/ros/node_handle.h ****             requestSyncTime();  /* send a msg back showing our protocol version */
 257:User/Inc/rosserialInc/ros/node_handle.h ****         }
 258:User/Inc/rosserialInc/ros/node_handle.h ****       }
 259:User/Inc/rosserialInc/ros/node_handle.h ****       else if (mode_ == MODE_SIZE_L)      /* bottom half of message size */
 260:User/Inc/rosserialInc/ros/node_handle.h ****       {
 261:User/Inc/rosserialInc/ros/node_handle.h ****         bytes_ = data;
 262:User/Inc/rosserialInc/ros/node_handle.h ****         index_ = 0;
 263:User/Inc/rosserialInc/ros/node_handle.h ****         mode_++;
 264:User/Inc/rosserialInc/ros/node_handle.h ****         checksum_ = data;               /* first byte for calculating size checksum */
 265:User/Inc/rosserialInc/ros/node_handle.h ****       }
 266:User/Inc/rosserialInc/ros/node_handle.h ****       else if (mode_ == MODE_SIZE_H)      /* top half of message size */
 267:User/Inc/rosserialInc/ros/node_handle.h ****       {
 268:User/Inc/rosserialInc/ros/node_handle.h ****         bytes_ += data << 8;
 269:User/Inc/rosserialInc/ros/node_handle.h ****         mode_++;
 270:User/Inc/rosserialInc/ros/node_handle.h ****       }
 271:User/Inc/rosserialInc/ros/node_handle.h ****       else if (mode_ == MODE_SIZE_CHECKSUM)
 272:User/Inc/rosserialInc/ros/node_handle.h ****       {
 273:User/Inc/rosserialInc/ros/node_handle.h ****         if ((checksum_ % 256) == 255)
 274:User/Inc/rosserialInc/ros/node_handle.h ****           mode_++;
 275:User/Inc/rosserialInc/ros/node_handle.h ****         else
 276:User/Inc/rosserialInc/ros/node_handle.h ****           mode_ = MODE_FIRST_FF;          /* Abandon the frame if the msg len is wrong */
 277:User/Inc/rosserialInc/ros/node_handle.h ****       }
 278:User/Inc/rosserialInc/ros/node_handle.h ****       else if (mode_ == MODE_TOPIC_L)     /* bottom half of topic id */
 279:User/Inc/rosserialInc/ros/node_handle.h ****       {
 280:User/Inc/rosserialInc/ros/node_handle.h ****         topic_ = data;
 281:User/Inc/rosserialInc/ros/node_handle.h ****         mode_++;
 282:User/Inc/rosserialInc/ros/node_handle.h ****         checksum_ = data;               /* first byte included in checksum */
 283:User/Inc/rosserialInc/ros/node_handle.h ****       }
 284:User/Inc/rosserialInc/ros/node_handle.h ****       else if (mode_ == MODE_TOPIC_H)     /* top half of topic id */
 285:User/Inc/rosserialInc/ros/node_handle.h ****       {
 286:User/Inc/rosserialInc/ros/node_handle.h ****         topic_ += data << 8;
 287:User/Inc/rosserialInc/ros/node_handle.h ****         mode_ = MODE_MESSAGE;
 288:User/Inc/rosserialInc/ros/node_handle.h ****         if (bytes_ == 0)
 289:User/Inc/rosserialInc/ros/node_handle.h ****           mode_ = MODE_MSG_CHECKSUM;
 290:User/Inc/rosserialInc/ros/node_handle.h ****       }
 291:User/Inc/rosserialInc/ros/node_handle.h ****       else if (mode_ == MODE_MSG_CHECKSUM)    /* do checksum */
 292:User/Inc/rosserialInc/ros/node_handle.h ****       {
 293:User/Inc/rosserialInc/ros/node_handle.h ****         mode_ = MODE_FIRST_FF;
 294:User/Inc/rosserialInc/ros/node_handle.h ****         if ((checksum_ % 256) == 255)
 295:User/Inc/rosserialInc/ros/node_handle.h ****         {
 296:User/Inc/rosserialInc/ros/node_handle.h ****           if (topic_ == TopicInfo::ID_PUBLISHER)
 297:User/Inc/rosserialInc/ros/node_handle.h ****           {
ARM GAS  /tmp/ccBu519l.s 			page 53


 298:User/Inc/rosserialInc/ros/node_handle.h ****             requestSyncTime();
 299:User/Inc/rosserialInc/ros/node_handle.h ****             negotiateTopics();
 300:User/Inc/rosserialInc/ros/node_handle.h ****             last_sync_time = c_time;
 301:User/Inc/rosserialInc/ros/node_handle.h ****             last_sync_receive_time = c_time;
 302:User/Inc/rosserialInc/ros/node_handle.h ****             return SPIN_ERR;
 303:User/Inc/rosserialInc/ros/node_handle.h ****           }
 304:User/Inc/rosserialInc/ros/node_handle.h ****           else if (topic_ == TopicInfo::ID_TIME)
 305:User/Inc/rosserialInc/ros/node_handle.h ****           {
 306:User/Inc/rosserialInc/ros/node_handle.h ****             syncTime(message_in);
 307:User/Inc/rosserialInc/ros/node_handle.h ****           }
 308:User/Inc/rosserialInc/ros/node_handle.h ****           else if (topic_ == TopicInfo::ID_PARAMETER_REQUEST)
 309:User/Inc/rosserialInc/ros/node_handle.h ****           {
 310:User/Inc/rosserialInc/ros/node_handle.h ****             req_param_resp.deserialize(message_in);
 311:User/Inc/rosserialInc/ros/node_handle.h ****             param_received = true;
 312:User/Inc/rosserialInc/ros/node_handle.h ****           }
 313:User/Inc/rosserialInc/ros/node_handle.h ****           else if (topic_ == TopicInfo::ID_TX_STOP)
 314:User/Inc/rosserialInc/ros/node_handle.h ****           {
 315:User/Inc/rosserialInc/ros/node_handle.h ****             configured_ = false;
 316:User/Inc/rosserialInc/ros/node_handle.h ****           }
 317:User/Inc/rosserialInc/ros/node_handle.h ****           else
 318:User/Inc/rosserialInc/ros/node_handle.h ****           {
 319:User/Inc/rosserialInc/ros/node_handle.h ****             if (subscribers[topic_ - 100])
 320:User/Inc/rosserialInc/ros/node_handle.h ****               subscribers[topic_ - 100]->callback(message_in);
 321:User/Inc/rosserialInc/ros/node_handle.h ****           }
 322:User/Inc/rosserialInc/ros/node_handle.h ****         }
 323:User/Inc/rosserialInc/ros/node_handle.h ****       }
 324:User/Inc/rosserialInc/ros/node_handle.h ****     }
 325:User/Inc/rosserialInc/ros/node_handle.h **** 
 326:User/Inc/rosserialInc/ros/node_handle.h ****     /* occasionally sync time */
 327:User/Inc/rosserialInc/ros/node_handle.h ****     if (configured_ && ((c_time - last_sync_time) > (SYNC_SECONDS * 500)))
 328:User/Inc/rosserialInc/ros/node_handle.h ****     {
 329:User/Inc/rosserialInc/ros/node_handle.h ****       requestSyncTime();
 330:User/Inc/rosserialInc/ros/node_handle.h ****       last_sync_time = c_time;
 331:User/Inc/rosserialInc/ros/node_handle.h ****     }
 332:User/Inc/rosserialInc/ros/node_handle.h **** 
 333:User/Inc/rosserialInc/ros/node_handle.h ****     return SPIN_OK;
 334:User/Inc/rosserialInc/ros/node_handle.h ****   }
 335:User/Inc/rosserialInc/ros/node_handle.h **** 
 336:User/Inc/rosserialInc/ros/node_handle.h **** 
 337:User/Inc/rosserialInc/ros/node_handle.h ****   /* Are we connected to the PC? */
 338:User/Inc/rosserialInc/ros/node_handle.h ****   virtual bool connected() override
 339:User/Inc/rosserialInc/ros/node_handle.h ****   {
 340:User/Inc/rosserialInc/ros/node_handle.h ****     return configured_;
 341:User/Inc/rosserialInc/ros/node_handle.h ****   };
 342:User/Inc/rosserialInc/ros/node_handle.h **** 
 343:User/Inc/rosserialInc/ros/node_handle.h ****   /********************************************************************
 344:User/Inc/rosserialInc/ros/node_handle.h ****    * Time functions
 345:User/Inc/rosserialInc/ros/node_handle.h ****    */
 346:User/Inc/rosserialInc/ros/node_handle.h **** 
 347:User/Inc/rosserialInc/ros/node_handle.h ****   void requestSyncTime()
 348:User/Inc/rosserialInc/ros/node_handle.h ****   {
 349:User/Inc/rosserialInc/ros/node_handle.h ****     std_msgs::Time t;
 350:User/Inc/rosserialInc/ros/node_handle.h ****     publish(TopicInfo::ID_TIME, &t);
 351:User/Inc/rosserialInc/ros/node_handle.h ****     rt_time = hardware_.time();
 352:User/Inc/rosserialInc/ros/node_handle.h ****   }
 353:User/Inc/rosserialInc/ros/node_handle.h **** 
 354:User/Inc/rosserialInc/ros/node_handle.h ****   void syncTime(uint8_t * data)
ARM GAS  /tmp/ccBu519l.s 			page 54


 355:User/Inc/rosserialInc/ros/node_handle.h ****   {
 356:User/Inc/rosserialInc/ros/node_handle.h ****     std_msgs::Time t;
 357:User/Inc/rosserialInc/ros/node_handle.h ****     uint32_t offset = hardware_.time() - rt_time;
 358:User/Inc/rosserialInc/ros/node_handle.h **** 
 359:User/Inc/rosserialInc/ros/node_handle.h ****     t.deserialize(data);
 360:User/Inc/rosserialInc/ros/node_handle.h ****     t.data.sec += offset / 1000;
 361:User/Inc/rosserialInc/ros/node_handle.h ****     t.data.nsec += (offset % 1000) * 1000000UL;
 362:User/Inc/rosserialInc/ros/node_handle.h **** 
 363:User/Inc/rosserialInc/ros/node_handle.h ****     this->setNow(t.data);
 364:User/Inc/rosserialInc/ros/node_handle.h ****     last_sync_receive_time = hardware_.time();
 365:User/Inc/rosserialInc/ros/node_handle.h ****   }
 366:User/Inc/rosserialInc/ros/node_handle.h **** 
 367:User/Inc/rosserialInc/ros/node_handle.h ****   Time now()
 368:User/Inc/rosserialInc/ros/node_handle.h ****   {
 369:User/Inc/rosserialInc/ros/node_handle.h ****     uint32_t ms = hardware_.time();
 370:User/Inc/rosserialInc/ros/node_handle.h ****     Time current_time;
 371:User/Inc/rosserialInc/ros/node_handle.h ****     current_time.sec = ms / 1000 + sec_offset;
 372:User/Inc/rosserialInc/ros/node_handle.h ****     current_time.nsec = (ms % 1000) * 1000000UL + nsec_offset;
 373:User/Inc/rosserialInc/ros/node_handle.h ****     normalizeSecNSec(current_time.sec, current_time.nsec);
 374:User/Inc/rosserialInc/ros/node_handle.h ****     return current_time;
 375:User/Inc/rosserialInc/ros/node_handle.h ****   }
 376:User/Inc/rosserialInc/ros/node_handle.h **** 
 377:User/Inc/rosserialInc/ros/node_handle.h ****   void setNow(const Time & new_now)
 378:User/Inc/rosserialInc/ros/node_handle.h ****   {
 379:User/Inc/rosserialInc/ros/node_handle.h ****     uint32_t ms = hardware_.time();
 380:User/Inc/rosserialInc/ros/node_handle.h ****     sec_offset = new_now.sec - ms / 1000 - 1;
 381:User/Inc/rosserialInc/ros/node_handle.h ****     nsec_offset = new_now.nsec - (ms % 1000) * 1000000UL + 1000000000UL;
 382:User/Inc/rosserialInc/ros/node_handle.h ****     normalizeSecNSec(sec_offset, nsec_offset);
 383:User/Inc/rosserialInc/ros/node_handle.h ****   }
 384:User/Inc/rosserialInc/ros/node_handle.h **** 
 385:User/Inc/rosserialInc/ros/node_handle.h ****   /********************************************************************
 386:User/Inc/rosserialInc/ros/node_handle.h ****    * Topic Management
 387:User/Inc/rosserialInc/ros/node_handle.h ****    */
 388:User/Inc/rosserialInc/ros/node_handle.h **** 
 389:User/Inc/rosserialInc/ros/node_handle.h ****   /* Register a new publisher */
 390:User/Inc/rosserialInc/ros/node_handle.h ****   bool advertise(Publisher & p)
 391:User/Inc/rosserialInc/ros/node_handle.h ****   {
 392:User/Inc/rosserialInc/ros/node_handle.h ****     for (int i = 0; i < MAX_PUBLISHERS; i++)
 393:User/Inc/rosserialInc/ros/node_handle.h ****     {
 394:User/Inc/rosserialInc/ros/node_handle.h ****       if (publishers[i] == 0) // empty slot
 395:User/Inc/rosserialInc/ros/node_handle.h ****       {
 396:User/Inc/rosserialInc/ros/node_handle.h ****         publishers[i] = &p;
 397:User/Inc/rosserialInc/ros/node_handle.h ****         p.id_ = i + 100 + MAX_SUBSCRIBERS;
 398:User/Inc/rosserialInc/ros/node_handle.h ****         p.nh_ = this;
 399:User/Inc/rosserialInc/ros/node_handle.h ****         return true;
 400:User/Inc/rosserialInc/ros/node_handle.h ****       }
 401:User/Inc/rosserialInc/ros/node_handle.h ****     }
 402:User/Inc/rosserialInc/ros/node_handle.h ****     return false;
 403:User/Inc/rosserialInc/ros/node_handle.h ****   }
 404:User/Inc/rosserialInc/ros/node_handle.h **** 
 405:User/Inc/rosserialInc/ros/node_handle.h ****   /* Register a new subscriber */
 406:User/Inc/rosserialInc/ros/node_handle.h ****   bool subscribe(Subscriber_& s)
 407:User/Inc/rosserialInc/ros/node_handle.h ****   {
 408:User/Inc/rosserialInc/ros/node_handle.h ****     for (int i = 0; i < MAX_SUBSCRIBERS; i++)
 409:User/Inc/rosserialInc/ros/node_handle.h ****     {
 410:User/Inc/rosserialInc/ros/node_handle.h ****       if (subscribers[i] == 0) // empty slot
 411:User/Inc/rosserialInc/ros/node_handle.h ****       {
ARM GAS  /tmp/ccBu519l.s 			page 55


 412:User/Inc/rosserialInc/ros/node_handle.h ****         subscribers[i] = &s;
 413:User/Inc/rosserialInc/ros/node_handle.h ****         s.id_ = i + 100;
 414:User/Inc/rosserialInc/ros/node_handle.h ****         return true;
 415:User/Inc/rosserialInc/ros/node_handle.h ****       }
 416:User/Inc/rosserialInc/ros/node_handle.h ****     }
 417:User/Inc/rosserialInc/ros/node_handle.h ****     return false;
 418:User/Inc/rosserialInc/ros/node_handle.h ****   }
 419:User/Inc/rosserialInc/ros/node_handle.h **** 
 420:User/Inc/rosserialInc/ros/node_handle.h ****   /* Register a new Service Server */
 421:User/Inc/rosserialInc/ros/node_handle.h ****   template<typename MReq, typename MRes, typename ObjT>
 422:User/Inc/rosserialInc/ros/node_handle.h ****   bool advertiseService(ServiceServer<MReq, MRes, ObjT>& srv)
 423:User/Inc/rosserialInc/ros/node_handle.h ****   {
 424:User/Inc/rosserialInc/ros/node_handle.h ****     bool v = advertise(srv.pub);
 425:User/Inc/rosserialInc/ros/node_handle.h ****     bool w = subscribe(srv);
 426:User/Inc/rosserialInc/ros/node_handle.h ****     return v && w;
 427:User/Inc/rosserialInc/ros/node_handle.h ****   }
 428:User/Inc/rosserialInc/ros/node_handle.h **** 
 429:User/Inc/rosserialInc/ros/node_handle.h ****   /* Register a new Service Client */
 430:User/Inc/rosserialInc/ros/node_handle.h ****   template<typename MReq, typename MRes>
 431:User/Inc/rosserialInc/ros/node_handle.h ****   bool serviceClient(ServiceClient<MReq, MRes>& srv)
 432:User/Inc/rosserialInc/ros/node_handle.h ****   {
 433:User/Inc/rosserialInc/ros/node_handle.h ****     bool v = advertise(srv.pub);
 434:User/Inc/rosserialInc/ros/node_handle.h ****     bool w = subscribe(srv);
 435:User/Inc/rosserialInc/ros/node_handle.h ****     return v && w;
 436:User/Inc/rosserialInc/ros/node_handle.h ****   }
 437:User/Inc/rosserialInc/ros/node_handle.h **** 
 438:User/Inc/rosserialInc/ros/node_handle.h ****   void negotiateTopics()
 1691              		.loc 6 438 8 is_stmt 1 view -0
 1692              		.cfi_startproc
 1693              		@ args = 0, pretend = 0, frame = 24
 1694              		@ frame_needed = 0, uses_anonymous_args = 0
 1695              		.loc 6 438 8 is_stmt 0 view .LVU559
 1696 0000 F0B5     		push	{r4, r5, r6, r7, lr}
 1697              		.save {r4, r5, r6, r7, lr}
 1698              	.LCFI6:
 1699              		.cfi_def_cfa_offset 20
 1700              		.cfi_offset 4, -20
 1701              		.cfi_offset 5, -16
 1702              		.cfi_offset 6, -12
 1703              		.cfi_offset 7, -8
 1704              		.cfi_offset 14, -4
 1705              		.pad #28
 1706 0002 87B0     		sub	sp, sp, #28
 1707              	.LCFI7:
 1708              		.cfi_def_cfa_offset 48
 1709 0004 0446     		mov	r4, r0
 1710              	.LVL156:
 1711              	.LBB115:
 1712              	.LBI115:
  34:User/Inc/rosserialInc/rosserial_msgs/TopicInfo.h ****       topic_id(0),
 1713              		.loc 2 34 5 is_stmt 1 view .LVU560
 1714              	.LBB116:
 1715              	.LBB117:
 1716              	.LBB118:
 1717              	.LBI118:
  46:User/Inc/rosserialInc/ros/msg.h **** {
 1718              		.loc 3 46 7 view .LVU561
ARM GAS  /tmp/ccBu519l.s 			page 56


 1719              	.LBB119:
 1720 0006 334B     		ldr	r3, .L99
 1721 0008 0093     		str	r3, [sp]
 1722              	.LVL157:
  46:User/Inc/rosserialInc/ros/msg.h **** {
 1723              		.loc 3 46 7 is_stmt 0 view .LVU562
 1724              	.LBE119:
 1725              	.LBE118:
  39:User/Inc/rosserialInc/rosserial_msgs/TopicInfo.h ****     {
 1726              		.loc 2 39 20 view .LVU563
 1727 000a 334B     		ldr	r3, .L99+4
 1728 000c 0093     		str	r3, [sp]
 1729 000e 0025     		movs	r5, #0
 1730 0010 ADF80450 		strh	r5, [sp, #4]	@ movhi
 1731 0014 314B     		ldr	r3, .L99+8
 1732 0016 0293     		str	r3, [sp, #8]
 1733 0018 0393     		str	r3, [sp, #12]
 1734 001a 0493     		str	r3, [sp, #16]
 1735 001c 0595     		str	r5, [sp, #20]
 1736              	.LVL158:
  39:User/Inc/rosserialInc/rosserial_msgs/TopicInfo.h ****     {
 1737              		.loc 2 39 20 view .LVU564
 1738 001e 00E0     		b	.L94
 1739              	.LVL159:
 1740              	.L93:
  39:User/Inc/rosserialInc/rosserial_msgs/TopicInfo.h ****     {
 1741              		.loc 2 39 20 view .LVU565
 1742              	.LBE117:
 1743              	.LBE116:
 1744              	.LBE115:
 439:User/Inc/rosserialInc/ros/node_handle.h ****   {
 440:User/Inc/rosserialInc/ros/node_handle.h ****     rosserial_msgs::TopicInfo ti;
 441:User/Inc/rosserialInc/ros/node_handle.h ****     int i;
 442:User/Inc/rosserialInc/ros/node_handle.h ****     for (i = 0; i < MAX_PUBLISHERS; i++)
 1745              		.loc 6 442 5 is_stmt 1 discriminator 2 view .LVU566
 1746 0020 0135     		adds	r5, r5, #1
 1747              	.LVL160:
 1748              	.L94:
 1749              		.loc 6 442 19 discriminator 1 view .LVU567
 1750 0022 182D     		cmp	r5, #24
 1751 0024 25DC     		bgt	.L97
 443:User/Inc/rosserialInc/ros/node_handle.h ****     {
 444:User/Inc/rosserialInc/ros/node_handle.h ****       if (publishers[i] != 0) // non-empty slot
 1752              		.loc 6 444 21 is_stmt 0 view .LVU568
 1753 0026 05F5C473 		add	r3, r5, #392
 1754 002a 04EB8303 		add	r3, r4, r3, lsl #2
 1755 002e 5B68     		ldr	r3, [r3, #4]
 1756              		.loc 6 444 7 view .LVU569
 1757 0030 002B     		cmp	r3, #0
 1758 0032 F5D0     		beq	.L93
 445:User/Inc/rosserialInc/ros/node_handle.h ****       {
 446:User/Inc/rosserialInc/ros/node_handle.h ****         ti.topic_id = publishers[i]->id_;
 1759              		.loc 6 446 38 view .LVU570
 1760 0034 9A68     		ldr	r2, [r3, #8]
 1761              		.loc 6 446 21 view .LVU571
 1762 0036 ADF80420 		strh	r2, [sp, #4]	@ movhi
 447:User/Inc/rosserialInc/ros/node_handle.h ****         ti.topic_name = (char *) publishers[i]->topic_;
ARM GAS  /tmp/ccBu519l.s 			page 57


 1763              		.loc 6 447 49 view .LVU572
 1764 003a 1A68     		ldr	r2, [r3]
 1765              		.loc 6 447 23 view .LVU573
 1766 003c 0292     		str	r2, [sp, #8]
 448:User/Inc/rosserialInc/ros/node_handle.h ****         ti.message_type = (char *) publishers[i]->msg_->getType();
 1767              		.loc 6 448 51 view .LVU574
 1768 003e 5868     		ldr	r0, [r3, #4]
 1769              		.loc 6 448 64 view .LVU575
 1770 0040 0368     		ldr	r3, [r0]
 1771 0042 9B68     		ldr	r3, [r3, #8]
 1772 0044 9847     		blx	r3
 1773              	.LVL161:
 1774              		.loc 6 448 25 view .LVU576
 1775 0046 0390     		str	r0, [sp, #12]
 449:User/Inc/rosserialInc/ros/node_handle.h ****         ti.md5sum = (char *) publishers[i]->msg_->getMD5();
 1776              		.loc 6 449 40 view .LVU577
 1777 0048 05F5C476 		add	r6, r5, #392
 1778 004c 04EB8606 		add	r6, r4, r6, lsl #2
 1779 0050 7368     		ldr	r3, [r6, #4]
 1780              		.loc 6 449 45 view .LVU578
 1781 0052 5868     		ldr	r0, [r3, #4]
 1782              		.loc 6 449 57 view .LVU579
 1783 0054 0368     		ldr	r3, [r0]
 1784 0056 DB68     		ldr	r3, [r3, #12]
 1785 0058 9847     		blx	r3
 1786              	.LVL162:
 1787              		.loc 6 449 19 view .LVU580
 1788 005a 0490     		str	r0, [sp, #16]
 450:User/Inc/rosserialInc/ros/node_handle.h ****         ti.buffer_size = OUTPUT_SIZE;
 1789              		.loc 6 450 24 view .LVU581
 1790 005c 4FF40073 		mov	r3, #512
 1791 0060 0593     		str	r3, [sp, #20]
 451:User/Inc/rosserialInc/ros/node_handle.h ****         publish(publishers[i]->getEndpointType(), &ti);
 1792              		.loc 6 451 27 view .LVU582
 1793 0062 7168     		ldr	r1, [r6, #4]
 1794              	.LVL163:
 1795              	.LBB120:
 1796              	.LBI120:
 1797              		.file 7 "User/Inc/rosserialInc/ros/publisher.h"
   1:User/Inc/rosserialInc/ros/publisher.h **** /*
   2:User/Inc/rosserialInc/ros/publisher.h ****  * Software License Agreement (BSD License)
   3:User/Inc/rosserialInc/ros/publisher.h ****  *
   4:User/Inc/rosserialInc/ros/publisher.h ****  * Copyright (c) 2011, Willow Garage, Inc.
   5:User/Inc/rosserialInc/ros/publisher.h ****  * All rights reserved.
   6:User/Inc/rosserialInc/ros/publisher.h ****  *
   7:User/Inc/rosserialInc/ros/publisher.h ****  * Redistribution and use in source and binary forms, with or without
   8:User/Inc/rosserialInc/ros/publisher.h ****  * modification, are permitted provided that the following conditions
   9:User/Inc/rosserialInc/ros/publisher.h ****  * are met:
  10:User/Inc/rosserialInc/ros/publisher.h ****  *
  11:User/Inc/rosserialInc/ros/publisher.h ****  *  * Redistributions of source code must retain the above copyright
  12:User/Inc/rosserialInc/ros/publisher.h ****  *    notice, this list of conditions and the following disclaimer.
  13:User/Inc/rosserialInc/ros/publisher.h ****  *  * Redistributions in binary form must reproduce the above
  14:User/Inc/rosserialInc/ros/publisher.h ****  *    copyright notice, this list of conditions and the following
  15:User/Inc/rosserialInc/ros/publisher.h ****  *    disclaimer in the documentation and/or other materials provided
  16:User/Inc/rosserialInc/ros/publisher.h ****  *    with the distribution.
  17:User/Inc/rosserialInc/ros/publisher.h ****  *  * Neither the name of Willow Garage, Inc. nor the names of its
  18:User/Inc/rosserialInc/ros/publisher.h ****  *    contributors may be used to endorse or promote prducts derived
ARM GAS  /tmp/ccBu519l.s 			page 58


  19:User/Inc/rosserialInc/ros/publisher.h ****  *    from this software without specific prior written permission.
  20:User/Inc/rosserialInc/ros/publisher.h ****  *
  21:User/Inc/rosserialInc/ros/publisher.h ****  * THIS SOFTWARE IS PROVIDED BY THE COPYRIGHT HOLDERS AND CONTRIBUTORS
  22:User/Inc/rosserialInc/ros/publisher.h ****  * "AS IS" AND ANY EXPRESS OR IMPLIED WARRANTIES, INCLUDING, BUT NOT
  23:User/Inc/rosserialInc/ros/publisher.h ****  * LIMITED TO, THE IMPLIED WARRANTIES OF MERCHANTABILITY AND FITNESS
  24:User/Inc/rosserialInc/ros/publisher.h ****  * FOR A PARTICULAR PURPOSE ARE DISCLAIMED. IN NO EVENT SHALL THE
  25:User/Inc/rosserialInc/ros/publisher.h ****  * COPYRIGHT OWNER OR CONTRIBUTORS BE LIABLE FOR ANY DIRECT, INDIRECT,
  26:User/Inc/rosserialInc/ros/publisher.h ****  * INCIDENTAL, SPECIAL, EXEMPLARY, OR CONSEQUENTIAL DAMAGES (INCLUDING,
  27:User/Inc/rosserialInc/ros/publisher.h ****  * BUT NOT LIMITED TO, PROCUREMENT OF SUBSTITUTE GOODS OR SERVICES;
  28:User/Inc/rosserialInc/ros/publisher.h ****  * LOSS OF USE, DATA, OR PROFITS; OR BUSINESS INTERRUPTION) HOWEVER
  29:User/Inc/rosserialInc/ros/publisher.h ****  * CAUSED AND ON ANY THEORY OF LIABILITY, WHETHER IN CONTRACT, STRICT
  30:User/Inc/rosserialInc/ros/publisher.h ****  * LIABILITY, OR TORT (INCLUDING NEGLIGENCE OR OTHERWISE) ARISING IN
  31:User/Inc/rosserialInc/ros/publisher.h ****  * ANY WAY OUT OF THE USE OF THIS SOFTWARE, EVEN IF ADVISED OF THE
  32:User/Inc/rosserialInc/ros/publisher.h ****  * POSSIBILITY OF SUCH DAMAGE.
  33:User/Inc/rosserialInc/ros/publisher.h ****  */
  34:User/Inc/rosserialInc/ros/publisher.h **** 
  35:User/Inc/rosserialInc/ros/publisher.h **** #ifndef _ROS_PUBLISHER_H_
  36:User/Inc/rosserialInc/ros/publisher.h **** #define _ROS_PUBLISHER_H_
  37:User/Inc/rosserialInc/ros/publisher.h **** 
  38:User/Inc/rosserialInc/ros/publisher.h **** #include "rosserial_msgs/TopicInfo.h"
  39:User/Inc/rosserialInc/ros/publisher.h **** #include "ros/node_handle.h"
  40:User/Inc/rosserialInc/ros/publisher.h **** 
  41:User/Inc/rosserialInc/ros/publisher.h **** namespace ros
  42:User/Inc/rosserialInc/ros/publisher.h **** {
  43:User/Inc/rosserialInc/ros/publisher.h **** 
  44:User/Inc/rosserialInc/ros/publisher.h **** /* Generic Publisher */
  45:User/Inc/rosserialInc/ros/publisher.h **** class Publisher
  46:User/Inc/rosserialInc/ros/publisher.h **** {
  47:User/Inc/rosserialInc/ros/publisher.h **** public:
  48:User/Inc/rosserialInc/ros/publisher.h ****   Publisher(const char * topic_name, Msg * msg, int endpoint = rosserial_msgs::TopicInfo::ID_PUBLIS
  49:User/Inc/rosserialInc/ros/publisher.h ****     topic_(topic_name),
  50:User/Inc/rosserialInc/ros/publisher.h ****     msg_(msg),
  51:User/Inc/rosserialInc/ros/publisher.h ****     endpoint_(endpoint) {};
  52:User/Inc/rosserialInc/ros/publisher.h **** 
  53:User/Inc/rosserialInc/ros/publisher.h ****   int publish(const Msg * msg)
  54:User/Inc/rosserialInc/ros/publisher.h ****   {
  55:User/Inc/rosserialInc/ros/publisher.h ****     return nh_->publish(id_, msg);
  56:User/Inc/rosserialInc/ros/publisher.h ****   };
  57:User/Inc/rosserialInc/ros/publisher.h ****   int getEndpointType()
 1798              		.loc 7 57 7 is_stmt 1 view .LVU583
 1799              	.LBB121:
  58:User/Inc/rosserialInc/ros/publisher.h ****   {
  59:User/Inc/rosserialInc/ros/publisher.h ****     return endpoint_;
 1800              		.loc 7 59 5 view .LVU584
 1801              		.loc 7 59 5 is_stmt 0 view .LVU585
 1802              	.LBE121:
 1803              	.LBE120:
 1804              		.loc 6 451 16 view .LVU586
 1805 0064 2368     		ldr	r3, [r4]
 1806 0066 1B68     		ldr	r3, [r3]
 1807 0068 6A46     		mov	r2, sp
 1808 006a 0969     		ldr	r1, [r1, #16]
 1809 006c 2046     		mov	r0, r4
 1810 006e 9847     		blx	r3
 1811              	.LVL164:
 1812 0070 D6E7     		b	.L93
 1813              	.L97:
ARM GAS  /tmp/ccBu519l.s 			page 59


 452:User/Inc/rosserialInc/ros/node_handle.h ****       }
 453:User/Inc/rosserialInc/ros/node_handle.h ****     }
 454:User/Inc/rosserialInc/ros/node_handle.h ****     for (i = 0; i < MAX_SUBSCRIBERS; i++)
 1814              		.loc 6 454 12 view .LVU587
 1815 0072 0025     		movs	r5, #0
 1816              	.LVL165:
 1817              		.loc 6 454 12 view .LVU588
 1818 0074 00E0     		b	.L92
 1819              	.LVL166:
 1820              	.L96:
 1821              		.loc 6 454 5 is_stmt 1 discriminator 2 view .LVU589
 1822 0076 0135     		adds	r5, r5, #1
 1823              	.LVL167:
 1824              	.L92:
 1825              		.loc 6 454 19 discriminator 1 view .LVU590
 1826 0078 182D     		cmp	r5, #24
 1827 007a 25DC     		bgt	.L95
 455:User/Inc/rosserialInc/ros/node_handle.h ****     {
 456:User/Inc/rosserialInc/ros/node_handle.h ****       if (subscribers[i] != 0) // non-empty slot
 1828              		.loc 6 456 22 is_stmt 0 view .LVU591
 1829 007c 05F5D173 		add	r3, r5, #418
 1830 0080 54F82300 		ldr	r0, [r4, r3, lsl #2]
 1831              		.loc 6 456 7 view .LVU592
 1832 0084 0028     		cmp	r0, #0
 1833 0086 F6D0     		beq	.L96
 457:User/Inc/rosserialInc/ros/node_handle.h ****       {
 458:User/Inc/rosserialInc/ros/node_handle.h ****         ti.topic_id = subscribers[i]->id_;
 1834              		.loc 6 458 39 view .LVU593
 1835 0088 4368     		ldr	r3, [r0, #4]
 1836              		.loc 6 458 21 view .LVU594
 1837 008a ADF80430 		strh	r3, [sp, #4]	@ movhi
 459:User/Inc/rosserialInc/ros/node_handle.h ****         ti.topic_name = (char *) subscribers[i]->topic_;
 1838              		.loc 6 459 50 view .LVU595
 1839 008e 8368     		ldr	r3, [r0, #8]
 1840              		.loc 6 459 23 view .LVU596
 1841 0090 0293     		str	r3, [sp, #8]
 460:User/Inc/rosserialInc/ros/node_handle.h ****         ti.message_type = (char *) subscribers[i]->getMsgType();
 1842              		.loc 6 460 62 view .LVU597
 1843 0092 0368     		ldr	r3, [r0]
 1844 0094 9B68     		ldr	r3, [r3, #8]
 1845 0096 9847     		blx	r3
 1846              	.LVL168:
 1847              		.loc 6 460 25 view .LVU598
 1848 0098 0390     		str	r0, [sp, #12]
 461:User/Inc/rosserialInc/ros/node_handle.h ****         ti.md5sum = (char *) subscribers[i]->getMsgMD5();
 1849              		.loc 6 461 41 view .LVU599
 1850 009a 05F5D176 		add	r6, r5, #418
 1851 009e 54F82600 		ldr	r0, [r4, r6, lsl #2]
 1852              		.loc 6 461 55 view .LVU600
 1853 00a2 0368     		ldr	r3, [r0]
 1854 00a4 DB68     		ldr	r3, [r3, #12]
 1855 00a6 9847     		blx	r3
 1856              	.LVL169:
 1857              		.loc 6 461 19 view .LVU601
 1858 00a8 0490     		str	r0, [sp, #16]
 462:User/Inc/rosserialInc/ros/node_handle.h ****         ti.buffer_size = INPUT_SIZE;
 1859              		.loc 6 462 24 view .LVU602
ARM GAS  /tmp/ccBu519l.s 			page 60


 1860 00aa 4FF40073 		mov	r3, #512
 1861 00ae 0593     		str	r3, [sp, #20]
 463:User/Inc/rosserialInc/ros/node_handle.h ****         publish(subscribers[i]->getEndpointType(), &ti);
 1862              		.loc 6 463 16 view .LVU603
 1863 00b0 2368     		ldr	r3, [r4]
 1864 00b2 1F68     		ldr	r7, [r3]
 1865              		.loc 6 463 28 view .LVU604
 1866 00b4 54F82600 		ldr	r0, [r4, r6, lsl #2]
 1867              		.loc 6 463 48 view .LVU605
 1868 00b8 0368     		ldr	r3, [r0]
 1869 00ba 5B68     		ldr	r3, [r3, #4]
 1870              		.loc 6 463 16 view .LVU606
 1871 00bc 9847     		blx	r3
 1872              	.LVL170:
 1873 00be 0146     		mov	r1, r0
 1874 00c0 6A46     		mov	r2, sp
 1875 00c2 2046     		mov	r0, r4
 1876 00c4 B847     		blx	r7
 1877              	.LVL171:
 1878 00c6 D6E7     		b	.L96
 1879              	.L95:
 464:User/Inc/rosserialInc/ros/node_handle.h ****       }
 465:User/Inc/rosserialInc/ros/node_handle.h ****     }
 466:User/Inc/rosserialInc/ros/node_handle.h ****     configured_ = true;
 1880              		.loc 6 466 17 view .LVU607
 1881 00c8 0123     		movs	r3, #1
 1882 00ca 84F80037 		strb	r3, [r4, #1792]
 467:User/Inc/rosserialInc/ros/node_handle.h ****   }
 1883              		.loc 6 467 3 view .LVU608
 1884 00ce 07B0     		add	sp, sp, #28
 1885              	.LCFI8:
 1886              		.cfi_def_cfa_offset 20
 1887              		@ sp needed
 1888 00d0 F0BD     		pop	{r4, r5, r6, r7, pc}
 1889              	.LVL172:
 1890              	.L100:
 1891              		.loc 6 467 3 view .LVU609
 1892 00d2 00BF     		.align	2
 1893              	.L99:
 1894 00d4 08000000 		.word	_ZTVN3ros3MsgE+8
 1895 00d8 08000000 		.word	_ZTVN14rosserial_msgs9TopicInfoE+8
 1896 00dc 00000000 		.word	.LC4
 1897              		.cfi_endproc
 1898              	.LFE453:
 1899              		.fnend
 1901              		.section	.text._ZN3ros11NodeHandle_I13STM32HardwareLi25ELi25ELi512ELi512EE8spinOnceEv,"axG",%progb
 1902              		.align	1
 1903              		.weak	_ZN3ros11NodeHandle_I13STM32HardwareLi25ELi25ELi512ELi512EE8spinOnceEv
 1904              		.syntax unified
 1905              		.thumb
 1906              		.thumb_func
 1907              		.fpu softvfp
 1909              	_ZN3ros11NodeHandle_I13STM32HardwareLi25ELi25ELi512ELi512EE8spinOnceEv:
 1910              		.fnstart
 1911              	.LVL173:
 1912              	.LFB451:
 187:User/Inc/rosserialInc/ros/node_handle.h ****   {
ARM GAS  /tmp/ccBu519l.s 			page 61


 1913              		.loc 6 187 15 is_stmt 1 view -0
 1914              		.cfi_startproc
 1915              		@ args = 0, pretend = 0, frame = 16
 1916              		@ frame_needed = 0, uses_anonymous_args = 0
 187:User/Inc/rosserialInc/ros/node_handle.h ****   {
 1917              		.loc 6 187 15 is_stmt 0 view .LVU611
 1918 0000 2DE9F043 		push	{r4, r5, r6, r7, r8, r9, lr}
 1919              		.save {r4, r5, r6, r7, r8, r9, lr}
 1920              	.LCFI9:
 1921              		.cfi_def_cfa_offset 28
 1922              		.cfi_offset 4, -28
 1923              		.cfi_offset 5, -24
 1924              		.cfi_offset 6, -20
 1925              		.cfi_offset 7, -16
 1926              		.cfi_offset 8, -12
 1927              		.cfi_offset 9, -8
 1928              		.cfi_offset 14, -4
 1929              		.pad #20
 1930 0004 85B0     		sub	sp, sp, #20
 1931              	.LCFI10:
 1932              		.cfi_def_cfa_offset 48
 1933 0006 0446     		mov	r4, r0
 190:User/Inc/rosserialInc/ros/node_handle.h ****     if ((c_time - last_sync_receive_time) > (SYNC_SECONDS * 2200))
 1934              		.loc 6 190 37 view .LVU612
 1935 0008 051D     		adds	r5, r0, #4
 1936              	.LVL174:
 1937              	.LBB189:
 1938              	.LBI189:
 1939              		.file 8 "User/Inc/rosserialInc/STM32Hardware.h"
   1:User/Inc/rosserialInc/STM32Hardware.h **** /* 
   2:User/Inc/rosserialInc/STM32Hardware.h ****  * Software License Agreement (BSD License)
   3:User/Inc/rosserialInc/STM32Hardware.h ****  *
   4:User/Inc/rosserialInc/STM32Hardware.h ****  * Copyright (c) 2018, Kenta Yonekura (a.k.a. yoneken)
   5:User/Inc/rosserialInc/STM32Hardware.h ****  * All rights reserved.
   6:User/Inc/rosserialInc/STM32Hardware.h ****  *
   7:User/Inc/rosserialInc/STM32Hardware.h ****  * Redistribution and use in source and binary forms, with or without
   8:User/Inc/rosserialInc/STM32Hardware.h ****  * modification, are permitted provided that the following conditions
   9:User/Inc/rosserialInc/STM32Hardware.h ****  * are met:
  10:User/Inc/rosserialInc/STM32Hardware.h ****  *
  11:User/Inc/rosserialInc/STM32Hardware.h ****  *  * Redistributions of source code must retain the above copyright
  12:User/Inc/rosserialInc/STM32Hardware.h ****  *    notice, this list of conditions and the following disclaimer.
  13:User/Inc/rosserialInc/STM32Hardware.h ****  *  * Redistributions in binary form must reproduce the above
  14:User/Inc/rosserialInc/STM32Hardware.h ****  *    copyright notice, this list of conditions and the following
  15:User/Inc/rosserialInc/STM32Hardware.h ****  *    disclaimer in the documentation and/or other materials provided
  16:User/Inc/rosserialInc/STM32Hardware.h ****  *    with the distribution.
  17:User/Inc/rosserialInc/STM32Hardware.h ****  *  * Neither the name of Willow Garage, Inc. nor the names of its
  18:User/Inc/rosserialInc/STM32Hardware.h ****  *    contributors may be used to endorse or promote prducts derived
  19:User/Inc/rosserialInc/STM32Hardware.h ****  *    from this software without specific prior written permission.
  20:User/Inc/rosserialInc/STM32Hardware.h ****  *
  21:User/Inc/rosserialInc/STM32Hardware.h ****  * THIS SOFTWARE IS PROVIDED BY THE COPYRIGHT HOLDERS AND CONTRIBUTORS
  22:User/Inc/rosserialInc/STM32Hardware.h ****  * "AS IS" AND ANY EXPRESS OR IMPLIED WARRANTIES, INCLUDING, BUT NOT
  23:User/Inc/rosserialInc/STM32Hardware.h ****  * LIMITED TO, THE IMPLIED WARRANTIES OF MERCHANTABILITY AND FITNESS
  24:User/Inc/rosserialInc/STM32Hardware.h ****  * FOR A PARTICULAR PURPOSE ARE DISCLAIMED. IN NO EVENT SHALL THE
  25:User/Inc/rosserialInc/STM32Hardware.h ****  * COPYRIGHT OWNER OR CONTRIBUTORS BE LIABLE FOR ANY DIRECT, INDIRECT,
  26:User/Inc/rosserialInc/STM32Hardware.h ****  * INCIDENTAL, SPECIAL, EXEMPLARY, OR CONSEQUENTIAL DAMAGES (INCLUDING,
  27:User/Inc/rosserialInc/STM32Hardware.h ****  * BUT NOT LIMITED TO, PROCUREMENT OF SUBSTITUTE GOODS OR SERVICES;
  28:User/Inc/rosserialInc/STM32Hardware.h ****  * LOSS OF USE, DATA, OR PROFITS; OR BUSINESS INTERRUPTION) HOWEVER
ARM GAS  /tmp/ccBu519l.s 			page 62


  29:User/Inc/rosserialInc/STM32Hardware.h ****  * CAUSED AND ON ANY THEORY OF LIABILITY, WHETHER IN CONTRACT, STRICT
  30:User/Inc/rosserialInc/STM32Hardware.h ****  * LIABILITY, OR TORT (INCLUDING NEGLIGENCE OR OTHERWISE) ARISING IN
  31:User/Inc/rosserialInc/STM32Hardware.h ****  * ANY WAY OUT OF THE USE OF THIS SOFTWARE, EVEN IF ADVISED OF THE
  32:User/Inc/rosserialInc/STM32Hardware.h ****  * POSSIBILITY OF SUCH DAMAGE.
  33:User/Inc/rosserialInc/STM32Hardware.h ****  */
  34:User/Inc/rosserialInc/STM32Hardware.h **** 
  35:User/Inc/rosserialInc/STM32Hardware.h **** #ifndef ROS_STM32_HARDWARE_H_
  36:User/Inc/rosserialInc/STM32Hardware.h **** #define ROS_STM32_HARDWARE_H_
  37:User/Inc/rosserialInc/STM32Hardware.h **** 
  38:User/Inc/rosserialInc/STM32Hardware.h **** 
  39:User/Inc/rosserialInc/STM32Hardware.h **** //try #include "stm32f1xx_hal.h" if this doesn't work
  40:User/Inc/rosserialInc/STM32Hardware.h **** #include "main.h"
  41:User/Inc/rosserialInc/STM32Hardware.h **** 
  42:User/Inc/rosserialInc/STM32Hardware.h **** /**********************************  Configuration    ************************************/
  43:User/Inc/rosserialInc/STM32Hardware.h **** 
  44:User/Inc/rosserialInc/STM32Hardware.h **** #define RxBufLen  256     //suit your needs
  45:User/Inc/rosserialInc/STM32Hardware.h **** 
  46:User/Inc/rosserialInc/STM32Hardware.h **** #define TxBufLen  256     //suit your needs
  47:User/Inc/rosserialInc/STM32Hardware.h **** 
  48:User/Inc/rosserialInc/STM32Hardware.h **** /**********************************  Configuration end************************************/
  49:User/Inc/rosserialInc/STM32Hardware.h **** 
  50:User/Inc/rosserialInc/STM32Hardware.h **** 
  51:User/Inc/rosserialInc/STM32Hardware.h **** class STM32Hardware {
  52:User/Inc/rosserialInc/STM32Hardware.h ****   protected:
  53:User/Inc/rosserialInc/STM32Hardware.h ****     UART_HandleTypeDef *roshuart;
  54:User/Inc/rosserialInc/STM32Hardware.h **** 
  55:User/Inc/rosserialInc/STM32Hardware.h ****     const static int rbuflen = RxBufLen;
  56:User/Inc/rosserialInc/STM32Hardware.h ****     uint8_t rbuf[rbuflen];
  57:User/Inc/rosserialInc/STM32Hardware.h ****     int rind;
  58:User/Inc/rosserialInc/STM32Hardware.h ****     inline int getRdmaInd(void){ return (rbuflen - (int)__HAL_DMA_GET_COUNTER(roshuart->hdmarx)) & 
  59:User/Inc/rosserialInc/STM32Hardware.h **** 
  60:User/Inc/rosserialInc/STM32Hardware.h ****     const static int tbuflen = TxBufLen;
  61:User/Inc/rosserialInc/STM32Hardware.h ****     uint8_t tbuf[tbuflen];
  62:User/Inc/rosserialInc/STM32Hardware.h ****     int twind, tfind;
  63:User/Inc/rosserialInc/STM32Hardware.h **** 
  64:User/Inc/rosserialInc/STM32Hardware.h ****   public:
  65:User/Inc/rosserialInc/STM32Hardware.h **** 
  66:User/Inc/rosserialInc/STM32Hardware.h ****     STM32Hardware():
  67:User/Inc/rosserialInc/STM32Hardware.h ****       roshuart(0), rind(0), twind(0), tfind(0){ //we dont define port here, but addtionally call se
  68:User/Inc/rosserialInc/STM32Hardware.h ****     }
  69:User/Inc/rosserialInc/STM32Hardware.h **** 
  70:User/Inc/rosserialInc/STM32Hardware.h ****     STM32Hardware(UART_HandleTypeDef *huart_):
  71:User/Inc/rosserialInc/STM32Hardware.h ****       roshuart(huart_), rind(0), twind(0), tfind(0){
  72:User/Inc/rosserialInc/STM32Hardware.h ****     }
  73:User/Inc/rosserialInc/STM32Hardware.h ****   
  74:User/Inc/rosserialInc/STM32Hardware.h ****     void init(){
  75:User/Inc/rosserialInc/STM32Hardware.h ****       reset_rbuf();
  76:User/Inc/rosserialInc/STM32Hardware.h ****     }
  77:User/Inc/rosserialInc/STM32Hardware.h **** 
  78:User/Inc/rosserialInc/STM32Hardware.h ****     void init(char *huart_){
  79:User/Inc/rosserialInc/STM32Hardware.h ****     	roshuart = (UART_HandleTypeDef *)huart_;
  80:User/Inc/rosserialInc/STM32Hardware.h ****     	init();
  81:User/Inc/rosserialInc/STM32Hardware.h ****     }
  82:User/Inc/rosserialInc/STM32Hardware.h ****     void reset_rbuf(void){
  83:User/Inc/rosserialInc/STM32Hardware.h ****       HAL_UART_Receive_DMA(roshuart, rbuf, rbuflen);
  84:User/Inc/rosserialInc/STM32Hardware.h ****     }
  85:User/Inc/rosserialInc/STM32Hardware.h **** 
ARM GAS  /tmp/ccBu519l.s 			page 63


  86:User/Inc/rosserialInc/STM32Hardware.h ****     int read(){
  87:User/Inc/rosserialInc/STM32Hardware.h ****       int c = -1;
  88:User/Inc/rosserialInc/STM32Hardware.h ****       if(rind != getRdmaInd()){
  89:User/Inc/rosserialInc/STM32Hardware.h ****         c = rbuf[rind++];
  90:User/Inc/rosserialInc/STM32Hardware.h ****         rind &= rbuflen - 1;
  91:User/Inc/rosserialInc/STM32Hardware.h ****       }
  92:User/Inc/rosserialInc/STM32Hardware.h ****       return c;
  93:User/Inc/rosserialInc/STM32Hardware.h ****     }
  94:User/Inc/rosserialInc/STM32Hardware.h **** 
  95:User/Inc/rosserialInc/STM32Hardware.h ****     void flush(void){
  96:User/Inc/rosserialInc/STM32Hardware.h ****       static bool mutex = false;
  97:User/Inc/rosserialInc/STM32Hardware.h **** 
  98:User/Inc/rosserialInc/STM32Hardware.h ****       if((roshuart->gState == HAL_UART_STATE_READY) && !mutex){
  99:User/Inc/rosserialInc/STM32Hardware.h ****         mutex = true;
 100:User/Inc/rosserialInc/STM32Hardware.h **** 
 101:User/Inc/rosserialInc/STM32Hardware.h ****         if(twind != tfind){
 102:User/Inc/rosserialInc/STM32Hardware.h ****         	int32_t len = tfind < twind ? twind - tfind : tbuflen - tfind;
 103:User/Inc/rosserialInc/STM32Hardware.h ****           HAL_UART_Transmit_DMA(roshuart, &(tbuf[tfind]), len);
 104:User/Inc/rosserialInc/STM32Hardware.h ****           tfind = (tfind + len) & (tbuflen - 1);
 105:User/Inc/rosserialInc/STM32Hardware.h ****         }
 106:User/Inc/rosserialInc/STM32Hardware.h ****         mutex = false;
 107:User/Inc/rosserialInc/STM32Hardware.h ****       }
 108:User/Inc/rosserialInc/STM32Hardware.h ****     }
 109:User/Inc/rosserialInc/STM32Hardware.h **** 
 110:User/Inc/rosserialInc/STM32Hardware.h ****     void write(uint8_t* data, int length){
 111:User/Inc/rosserialInc/STM32Hardware.h ****       int n = length;
 112:User/Inc/rosserialInc/STM32Hardware.h ****       n = n <= tbuflen ? n : tbuflen;
 113:User/Inc/rosserialInc/STM32Hardware.h **** 
 114:User/Inc/rosserialInc/STM32Hardware.h ****       int n_tail = n <= tbuflen - twind ? n : tbuflen - twind;
 115:User/Inc/rosserialInc/STM32Hardware.h ****       memcpy(&(tbuf[twind]), data, n_tail);
 116:User/Inc/rosserialInc/STM32Hardware.h ****       twind = (twind + n) & (tbuflen - 1);
 117:User/Inc/rosserialInc/STM32Hardware.h **** 
 118:User/Inc/rosserialInc/STM32Hardware.h ****       if(n != n_tail){
 119:User/Inc/rosserialInc/STM32Hardware.h ****         memcpy(tbuf, &(data[n_tail]), n - n_tail);
 120:User/Inc/rosserialInc/STM32Hardware.h ****       }
 121:User/Inc/rosserialInc/STM32Hardware.h **** 
 122:User/Inc/rosserialInc/STM32Hardware.h ****       flush();
 123:User/Inc/rosserialInc/STM32Hardware.h ****     }
 124:User/Inc/rosserialInc/STM32Hardware.h **** 
 125:User/Inc/rosserialInc/STM32Hardware.h **** 
 126:User/Inc/rosserialInc/STM32Hardware.h **** 
 127:User/Inc/rosserialInc/STM32Hardware.h **** 
 128:User/Inc/rosserialInc/STM32Hardware.h **** 
 129:User/Inc/rosserialInc/STM32Hardware.h ****     unsigned long time(){ return HAL_GetTick();; }
 1940              		.loc 8 129 19 is_stmt 1 view .LVU613
 1941              	.LBB190:
 1942              		.loc 8 129 27 view .LVU614
 1943              		.loc 8 129 45 is_stmt 0 view .LVU615
 1944 000a FFF7FEFF 		bl	HAL_GetTick
 1945              	.LVL175:
 1946              		.loc 8 129 45 view .LVU616
 1947 000e 0646     		mov	r6, r0
 1948              		.loc 8 129 48 is_stmt 1 view .LVU617
 1949              	.LVL176:
 1950              		.loc 8 129 48 is_stmt 0 view .LVU618
 1951              	.LBE190:
 1952              	.LBE189:
ARM GAS  /tmp/ccBu519l.s 			page 64


 191:User/Inc/rosserialInc/ros/node_handle.h ****     {
 1953              		.loc 6 191 19 view .LVU619
 1954 0010 D4F80837 		ldr	r3, [r4, #1800]
 191:User/Inc/rosserialInc/ros/node_handle.h ****     {
 1955              		.loc 6 191 17 view .LVU620
 1956 0014 C31A     		subs	r3, r0, r3
 191:User/Inc/rosserialInc/ros/node_handle.h ****     {
 1957              		.loc 6 191 5 view .LVU621
 1958 0016 42F6F822 		movw	r2, #11000
 1959 001a 9342     		cmp	r3, r2
 1960 001c 02D9     		bls	.L102
 193:User/Inc/rosserialInc/ros/node_handle.h ****     }
 1961              		.loc 6 193 19 view .LVU622
 1962 001e 0023     		movs	r3, #0
 1963 0020 84F80037 		strb	r3, [r4, #1792]
 1964              	.L102:
 197:User/Inc/rosserialInc/ros/node_handle.h ****     {
 1965              		.loc 6 197 9 view .LVU623
 1966 0024 D4F8EC36 		ldr	r3, [r4, #1772]
 197:User/Inc/rosserialInc/ros/node_handle.h ****     {
 1967              		.loc 6 197 5 view .LVU624
 1968 0028 DBB1     		cbz	r3, .L104
 199:User/Inc/rosserialInc/ros/node_handle.h ****       {
 1969              		.loc 6 199 20 view .LVU625
 1970 002a D4F80C37 		ldr	r3, [r4, #1804]
 199:User/Inc/rosserialInc/ros/node_handle.h ****       {
 1971              		.loc 6 199 7 view .LVU626
 1972 002e B342     		cmp	r3, r6
 1973 0030 17D2     		bcs	.L104
 201:User/Inc/rosserialInc/ros/node_handle.h ****       }
 1974              		.loc 6 201 15 view .LVU627
 1975 0032 0023     		movs	r3, #0
 1976 0034 C4F8EC36 		str	r3, [r4, #1772]
 1977 0038 13E0     		b	.L104
 1978              	.LVL177:
 1979              	.L126:
 1980              	.LBB191:
 1981              	.LBB192:
 1982              	.LBB193:
  87:User/Inc/rosserialInc/STM32Hardware.h ****       if(rind != getRdmaInd()){
 1983              		.loc 8 87 11 view .LVU628
 1984 003a 4FF0FF31 		mov	r1, #-1
 1985 003e 2DE0     		b	.L107
 1986              	.LVL178:
 1987              	.L130:
  87:User/Inc/rosserialInc/STM32Hardware.h ****       if(rind != getRdmaInd()){
 1988              		.loc 8 87 11 view .LVU629
 1989              	.LBE193:
 1990              	.LBE192:
 227:User/Inc/rosserialInc/ros/node_handle.h ****         bytes_--;
 1991              		.loc 6 227 20 view .LVU630
 1992 0040 D4F8F836 		ldr	r3, [r4, #1784]
 227:User/Inc/rosserialInc/ros/node_handle.h ****         bytes_--;
 1993              		.loc 6 227 19 view .LVU631
 1994 0044 5A1C     		adds	r2, r3, #1
 1995 0046 C4F8F826 		str	r2, [r4, #1784]
 227:User/Inc/rosserialInc/ros/node_handle.h ****         bytes_--;
ARM GAS  /tmp/ccBu519l.s 			page 65


 1996              		.loc 6 227 30 view .LVU632
 1997 004a 2344     		add	r3, r3, r4
 1998 004c 83F82412 		strb	r1, [r3, #548]
 228:User/Inc/rosserialInc/ros/node_handle.h ****         if (bytes_ == 0)                 /* is message complete? if so, checksum */
 1999              		.loc 6 228 9 view .LVU633
 2000 0050 D4F8F036 		ldr	r3, [r4, #1776]
 2001 0054 013B     		subs	r3, r3, #1
 2002 0056 C4F8F036 		str	r3, [r4, #1776]
 229:User/Inc/rosserialInc/ros/node_handle.h ****           mode_ = MODE_MSG_CHECKSUM;
 2003              		.loc 6 229 9 view .LVU634
 2004 005a 13B9     		cbnz	r3, .L104
 230:User/Inc/rosserialInc/ros/node_handle.h ****       }
 2005              		.loc 6 230 17 view .LVU635
 2006 005c 0823     		movs	r3, #8
 2007 005e C4F8EC36 		str	r3, [r4, #1772]
 2008              	.LVL179:
 2009              	.L104:
 209:User/Inc/rosserialInc/ros/node_handle.h ****       {
 2010              		.loc 6 209 11 view .LVU636
 2011 0062 D4F82032 		ldr	r3, [r4, #544]
 209:User/Inc/rosserialInc/ros/node_handle.h ****       {
 2012              		.loc 6 209 7 view .LVU637
 2013 0066 3BB1     		cbz	r3, .L105
 2014              	.LVL180:
 2015              	.LBB197:
 2016              	.LBI197:
 2017              		.loc 8 129 19 is_stmt 1 view .LVU638
 2018              	.LBB198:
 2019              		.loc 8 129 27 view .LVU639
 2020              		.loc 8 129 45 is_stmt 0 view .LVU640
 2021 0068 FFF7FEFF 		bl	HAL_GetTick
 2022              	.LVL181:
 2023              		.loc 8 129 48 is_stmt 1 view .LVU641
 2024              		.loc 8 129 48 is_stmt 0 view .LVU642
 2025              	.LBE198:
 2026              	.LBE197:
 215:User/Inc/rosserialInc/ros/node_handle.h ****         {
 2027              		.loc 6 215 31 view .LVU643
 2028 006c 801B     		subs	r0, r0, r6
 215:User/Inc/rosserialInc/ros/node_handle.h ****         {
 2029              		.loc 6 215 43 view .LVU644
 2030 006e D4F82032 		ldr	r3, [r4, #544]
 215:User/Inc/rosserialInc/ros/node_handle.h ****         {
 2031              		.loc 6 215 9 view .LVU645
 2032 0072 9842     		cmp	r0, r3
 2033 0074 00F26A81 		bhi	.L125
 2034              	.L105:
 2035              	.LVL182:
 2036              	.LBB199:
 2037              	.LBI192:
  86:User/Inc/rosserialInc/STM32Hardware.h ****       int c = -1;
 2038              		.loc 8 86 9 is_stmt 1 view .LVU646
 2039              	.LBB196:
  87:User/Inc/rosserialInc/STM32Hardware.h ****       if(rind != getRdmaInd()){
 2040              		.loc 8 87 7 view .LVU647
  88:User/Inc/rosserialInc/STM32Hardware.h ****         c = rbuf[rind++];
 2041              		.loc 8 88 7 view .LVU648
ARM GAS  /tmp/ccBu519l.s 			page 66


  88:User/Inc/rosserialInc/STM32Hardware.h ****         c = rbuf[rind++];
 2042              		.loc 8 88 10 is_stmt 0 view .LVU649
 2043 0078 D5F80421 		ldr	r2, [r5, #260]
 2044              	.LVL183:
 2045              	.LBB194:
 2046              	.LBI194:
  58:User/Inc/rosserialInc/STM32Hardware.h **** 
 2047              		.loc 8 58 16 is_stmt 1 view .LVU650
 2048              	.LBB195:
  58:User/Inc/rosserialInc/STM32Hardware.h **** 
 2049              		.loc 8 58 34 view .LVU651
  58:User/Inc/rosserialInc/STM32Hardware.h **** 
 2050              		.loc 8 58 57 is_stmt 0 view .LVU652
 2051 007c 2B68     		ldr	r3, [r5]
 2052 007e 9B6B     		ldr	r3, [r3, #56]
 2053 0080 1B68     		ldr	r3, [r3]
 2054 0082 5B68     		ldr	r3, [r3, #4]
  58:User/Inc/rosserialInc/STM32Hardware.h **** 
 2055              		.loc 8 58 112 view .LVU653
 2056 0084 5B42     		rsbs	r3, r3, #0
 2057 0086 DBB2     		uxtb	r3, r3
 2058              	.LVL184:
  58:User/Inc/rosserialInc/STM32Hardware.h **** 
 2059              		.loc 8 58 112 view .LVU654
 2060              	.LBE195:
 2061              	.LBE194:
  88:User/Inc/rosserialInc/STM32Hardware.h ****         c = rbuf[rind++];
 2062              		.loc 8 88 7 view .LVU655
 2063 0088 9A42     		cmp	r2, r3
 2064 008a D6D0     		beq	.L126
  89:User/Inc/rosserialInc/STM32Hardware.h ****         rind &= rbuflen - 1;
 2065              		.loc 8 89 9 is_stmt 1 view .LVU656
  89:User/Inc/rosserialInc/STM32Hardware.h ****         rind &= rbuflen - 1;
 2066              		.loc 8 89 22 is_stmt 0 view .LVU657
 2067 008c 531C     		adds	r3, r2, #1
 2068 008e C5F80431 		str	r3, [r5, #260]
  89:User/Inc/rosserialInc/STM32Hardware.h ****         rind &= rbuflen - 1;
 2069              		.loc 8 89 24 view .LVU658
 2070 0092 2A44     		add	r2, r2, r5
 2071 0094 1179     		ldrb	r1, [r2, #4]	@ zero_extendqisi2
 2072              	.LVL185:
  90:User/Inc/rosserialInc/STM32Hardware.h ****       }
 2073              		.loc 8 90 9 is_stmt 1 view .LVU659
  90:User/Inc/rosserialInc/STM32Hardware.h ****       }
 2074              		.loc 8 90 14 is_stmt 0 view .LVU660
 2075 0096 DBB2     		uxtb	r3, r3
 2076 0098 C5F80431 		str	r3, [r5, #260]
 2077              	.LVL186:
 2078              	.L107:
  92:User/Inc/rosserialInc/STM32Hardware.h ****     }
 2079              		.loc 8 92 7 is_stmt 1 view .LVU661
  92:User/Inc/rosserialInc/STM32Hardware.h ****     }
 2080              		.loc 8 92 7 is_stmt 0 view .LVU662
 2081              	.LBE196:
 2082              	.LBE199:
 222:User/Inc/rosserialInc/ros/node_handle.h ****         break;
 2083              		.loc 6 222 7 view .LVU663
ARM GAS  /tmp/ccBu519l.s 			page 67


 2084 009c 0029     		cmp	r1, #0
 2085 009e C0F23481 		blt	.L108
 224:User/Inc/rosserialInc/ros/node_handle.h ****       if (mode_ == MODE_MESSAGE)          /* message data being recieved */
 2086              		.loc 6 224 17 view .LVU664
 2087 00a2 D4F8FC26 		ldr	r2, [r4, #1788]
 2088 00a6 0A44     		add	r2, r2, r1
 2089 00a8 C4F8FC26 		str	r2, [r4, #1788]
 225:User/Inc/rosserialInc/ros/node_handle.h ****       {
 2090              		.loc 6 225 11 view .LVU665
 2091 00ac D4F8EC36 		ldr	r3, [r4, #1772]
 225:User/Inc/rosserialInc/ros/node_handle.h ****       {
 2092              		.loc 6 225 7 view .LVU666
 2093 00b0 072B     		cmp	r3, #7
 2094 00b2 C5D0     		beq	.L130
 232:User/Inc/rosserialInc/ros/node_handle.h ****       {
 2095              		.loc 6 232 12 view .LVU667
 2096 00b4 B3B9     		cbnz	r3, .L111
 234:User/Inc/rosserialInc/ros/node_handle.h ****         {
 2097              		.loc 6 234 9 view .LVU668
 2098 00b6 FF29     		cmp	r1, #255
 2099 00b8 07D1     		bne	.L112
 236:User/Inc/rosserialInc/ros/node_handle.h ****           last_msg_timeout_time = c_time + SERIAL_MSG_TIMEOUT;
 2100              		.loc 6 236 11 view .LVU669
 2101 00ba 0133     		adds	r3, r3, #1
 2102 00bc C4F8EC36 		str	r3, [r4, #1772]
 237:User/Inc/rosserialInc/ros/node_handle.h ****         }
 2103              		.loc 6 237 42 view .LVU670
 2104 00c0 06F11403 		add	r3, r6, #20
 237:User/Inc/rosserialInc/ros/node_handle.h ****         }
 2105              		.loc 6 237 33 view .LVU671
 2106 00c4 C4F80C37 		str	r3, [r4, #1804]
 2107 00c8 CBE7     		b	.L104
 2108              	.L112:
 2109              	.LVL187:
 2110              	.LBB200:
 2111              	.LBI200:
 2112              		.loc 8 129 19 is_stmt 1 view .LVU672
 2113              	.LBB201:
 2114              		.loc 8 129 27 view .LVU673
 2115              		.loc 8 129 45 is_stmt 0 view .LVU674
 2116 00ca FFF7FEFF 		bl	HAL_GetTick
 2117              	.LVL188:
 2118              		.loc 8 129 48 is_stmt 1 view .LVU675
 2119              		.loc 8 129 48 is_stmt 0 view .LVU676
 2120              	.LBE201:
 2121              	.LBE200:
 239:User/Inc/rosserialInc/ros/node_handle.h ****         {
 2122              		.loc 6 239 35 view .LVU677
 2123 00ce 801B     		subs	r0, r0, r6
 239:User/Inc/rosserialInc/ros/node_handle.h ****         {
 2124              		.loc 6 239 14 view .LVU678
 2125 00d0 41F28833 		movw	r3, #5000
 2126 00d4 9842     		cmp	r0, r3
 2127 00d6 C4D9     		bls	.L104
 242:User/Inc/rosserialInc/ros/node_handle.h ****           return SPIN_TIMEOUT;
 2128              		.loc 6 242 23 view .LVU679
 2129 00d8 0023     		movs	r3, #0
ARM GAS  /tmp/ccBu519l.s 			page 68


 2130 00da 84F80037 		strb	r3, [r4, #1792]
 243:User/Inc/rosserialInc/ros/node_handle.h ****         }
 2131              		.loc 6 243 18 view .LVU680
 2132 00de 6FF00100 		mvn	r0, #1
 2133 00e2 35E1     		b	.L101
 2134              	.LVL189:
 2135              	.L111:
 246:User/Inc/rosserialInc/ros/node_handle.h ****       {
 2136              		.loc 6 246 12 view .LVU681
 2137 00e4 012B     		cmp	r3, #1
 2138 00e6 2ED0     		beq	.L131
 259:User/Inc/rosserialInc/ros/node_handle.h ****       {
 2139              		.loc 6 259 12 view .LVU682
 2140 00e8 022B     		cmp	r3, #2
 2141 00ea 4BD0     		beq	.L132
 266:User/Inc/rosserialInc/ros/node_handle.h ****       {
 2142              		.loc 6 266 12 view .LVU683
 2143 00ec 032B     		cmp	r3, #3
 2144 00ee 54D0     		beq	.L133
 271:User/Inc/rosserialInc/ros/node_handle.h ****       {
 2145              		.loc 6 271 12 view .LVU684
 2146 00f0 042B     		cmp	r3, #4
 2147 00f2 5CD0     		beq	.L134
 278:User/Inc/rosserialInc/ros/node_handle.h ****       {
 2148              		.loc 6 278 12 view .LVU685
 2149 00f4 052B     		cmp	r3, #5
 2150 00f6 69D0     		beq	.L135
 284:User/Inc/rosserialInc/ros/node_handle.h ****       {
 2151              		.loc 6 284 12 view .LVU686
 2152 00f8 062B     		cmp	r3, #6
 2153 00fa 6FD0     		beq	.L136
 291:User/Inc/rosserialInc/ros/node_handle.h ****       {
 2154              		.loc 6 291 12 view .LVU687
 2155 00fc 082B     		cmp	r3, #8
 2156 00fe B0D1     		bne	.L104
 293:User/Inc/rosserialInc/ros/node_handle.h ****         if ((checksum_ % 256) == 255)
 2157              		.loc 6 293 15 view .LVU688
 2158 0100 0023     		movs	r3, #0
 2159 0102 C4F8EC36 		str	r3, [r4, #1772]
 294:User/Inc/rosserialInc/ros/node_handle.h ****         {
 2160              		.loc 6 294 24 view .LVU689
 2161 0106 9B1A     		subs	r3, r3, r2
 2162 0108 D2B2     		uxtb	r2, r2
 2163 010a DBB2     		uxtb	r3, r3
 2164 010c 58BF     		it	pl
 2165 010e 5A42     		rsbpl	r2, r3, #0
 294:User/Inc/rosserialInc/ros/node_handle.h ****         {
 2166              		.loc 6 294 9 view .LVU690
 2167 0110 FF2A     		cmp	r2, #255
 2168 0112 A6D1     		bne	.L104
 296:User/Inc/rosserialInc/ros/node_handle.h ****           {
 2169              		.loc 6 296 15 view .LVU691
 2170 0114 D4F8F436 		ldr	r3, [r4, #1780]
 296:User/Inc/rosserialInc/ros/node_handle.h ****           {
 2171              		.loc 6 296 11 view .LVU692
 2172 0118 002B     		cmp	r3, #0
 2173 011a 71D0     		beq	.L137
ARM GAS  /tmp/ccBu519l.s 			page 69


 304:User/Inc/rosserialInc/ros/node_handle.h ****           {
 2174              		.loc 6 304 16 view .LVU693
 2175 011c 0A2B     		cmp	r3, #10
 2176 011e 00F08A80 		beq	.L138
 308:User/Inc/rosserialInc/ros/node_handle.h ****           {
 2177              		.loc 6 308 16 view .LVU694
 2178 0122 062B     		cmp	r3, #6
 2179 0124 00F0E380 		beq	.L139
 313:User/Inc/rosserialInc/ros/node_handle.h ****           {
 2180              		.loc 6 313 16 view .LVU695
 2181 0128 0B2B     		cmp	r3, #11
 2182 012a 00F0EA80 		beq	.L140
 319:User/Inc/rosserialInc/ros/node_handle.h ****               subscribers[topic_ - 100]->callback(message_in);
 2183              		.loc 6 319 28 view .LVU696
 2184 012e 03F59F73 		add	r3, r3, #318
 2185 0132 54F82300 		ldr	r0, [r4, r3, lsl #2]
 319:User/Inc/rosserialInc/ros/node_handle.h ****               subscribers[topic_ - 100]->callback(message_in);
 2186              		.loc 6 319 13 view .LVU697
 2187 0136 0028     		cmp	r0, #0
 2188 0138 93D0     		beq	.L104
 320:User/Inc/rosserialInc/ros/node_handle.h ****           }
 2189              		.loc 6 320 50 view .LVU698
 2190 013a 0368     		ldr	r3, [r0]
 2191 013c 1B68     		ldr	r3, [r3]
 2192 013e 04F50971 		add	r1, r4, #548
 2193              	.LVL190:
 320:User/Inc/rosserialInc/ros/node_handle.h ****           }
 2194              		.loc 6 320 50 view .LVU699
 2195 0142 9847     		blx	r3
 2196              	.LVL191:
 2197 0144 8DE7     		b	.L104
 2198              	.LVL192:
 2199              	.L131:
 248:User/Inc/rosserialInc/ros/node_handle.h ****         {
 2200              		.loc 6 248 9 view .LVU700
 2201 0146 FE29     		cmp	r1, #254
 2202 0148 18D0     		beq	.L141
 254:User/Inc/rosserialInc/ros/node_handle.h ****           if (configured_ == false)
 2203              		.loc 6 254 17 view .LVU701
 2204 014a 0023     		movs	r3, #0
 2205 014c C4F8EC36 		str	r3, [r4, #1772]
 255:User/Inc/rosserialInc/ros/node_handle.h ****             requestSyncTime();  /* send a msg back showing our protocol version */
 2206              		.loc 6 255 15 view .LVU702
 2207 0150 94F80037 		ldrb	r3, [r4, #1792]	@ zero_extendqisi2
 255:User/Inc/rosserialInc/ros/node_handle.h ****             requestSyncTime();  /* send a msg back showing our protocol version */
 2208              		.loc 6 255 11 view .LVU703
 2209 0154 002B     		cmp	r3, #0
 2210 0156 84D1     		bne	.L104
 2211              	.LVL193:
 2212              	.LBB202:
 2213              	.LBI202:
 347:User/Inc/rosserialInc/ros/node_handle.h ****   {
 2214              		.loc 6 347 8 is_stmt 1 view .LVU704
 2215              	.LBB203:
 2216              	.LBB204:
 2217              	.LBI204:
  19:User/Inc/rosserialInc/std_msgs/Time.h ****       data()
ARM GAS  /tmp/ccBu519l.s 			page 70


 2218              		.loc 1 19 5 view .LVU705
 2219              	.LBB205:
 2220              	.LBB206:
 2221              	.LBB207:
 2222              	.LBI207:
  46:User/Inc/rosserialInc/ros/msg.h **** {
 2223              		.loc 3 46 7 view .LVU706
 2224              	.LBB208:
 2225 0158 804B     		ldr	r3, .L144
 2226 015a 0193     		str	r3, [sp, #4]
 2227              	.LVL194:
  46:User/Inc/rosserialInc/ros/msg.h **** {
 2228              		.loc 3 46 7 is_stmt 0 view .LVU707
 2229              	.LBE208:
 2230              	.LBE207:
  20:User/Inc/rosserialInc/std_msgs/Time.h ****     {
 2231              		.loc 1 20 12 view .LVU708
 2232 015c 804B     		ldr	r3, .L144+4
 2233 015e 0193     		str	r3, [sp, #4]
 2234              	.LVL195:
 2235              	.LBB209:
 2236              	.LBI209:
 2237              		.file 9 "User/Inc/rosserialInc/ros/time.h"
   1:User/Inc/rosserialInc/ros/time.h **** /*
   2:User/Inc/rosserialInc/ros/time.h ****  * Software License Agreement (BSD License)
   3:User/Inc/rosserialInc/ros/time.h ****  *
   4:User/Inc/rosserialInc/ros/time.h ****  * Copyright (c) 2011, Willow Garage, Inc.
   5:User/Inc/rosserialInc/ros/time.h ****  * All rights reserved.
   6:User/Inc/rosserialInc/ros/time.h ****  *
   7:User/Inc/rosserialInc/ros/time.h ****  * Redistribution and use in source and binary forms, with or without
   8:User/Inc/rosserialInc/ros/time.h ****  * modification, are permitted provided that the following conditions
   9:User/Inc/rosserialInc/ros/time.h ****  * are met:
  10:User/Inc/rosserialInc/ros/time.h ****  *
  11:User/Inc/rosserialInc/ros/time.h ****  *  * Redistributions of source code must retain the above copyright
  12:User/Inc/rosserialInc/ros/time.h ****  *    notice, this list of conditions and the following disclaimer.
  13:User/Inc/rosserialInc/ros/time.h ****  *  * Redistributions in binary form must reproduce the above
  14:User/Inc/rosserialInc/ros/time.h ****  *    copyright notice, this list of conditions and the following
  15:User/Inc/rosserialInc/ros/time.h ****  *    disclaimer in the documentation and/or other materials provided
  16:User/Inc/rosserialInc/ros/time.h ****  *    with the distribution.
  17:User/Inc/rosserialInc/ros/time.h ****  *  * Neither the name of Willow Garage, Inc. nor the names of its
  18:User/Inc/rosserialInc/ros/time.h ****  *    contributors may be used to endorse or promote prducts derived
  19:User/Inc/rosserialInc/ros/time.h ****  *    from this software without specific prior written permission.
  20:User/Inc/rosserialInc/ros/time.h ****  *
  21:User/Inc/rosserialInc/ros/time.h ****  * THIS SOFTWARE IS PROVIDED BY THE COPYRIGHT HOLDERS AND CONTRIBUTORS
  22:User/Inc/rosserialInc/ros/time.h ****  * "AS IS" AND ANY EXPRESS OR IMPLIED WARRANTIES, INCLUDING, BUT NOT
  23:User/Inc/rosserialInc/ros/time.h ****  * LIMITED TO, THE IMPLIED WARRANTIES OF MERCHANTABILITY AND FITNESS
  24:User/Inc/rosserialInc/ros/time.h ****  * FOR A PARTICULAR PURPOSE ARE DISCLAIMED. IN NO EVENT SHALL THE
  25:User/Inc/rosserialInc/ros/time.h ****  * COPYRIGHT OWNER OR CONTRIBUTORS BE LIABLE FOR ANY DIRECT, INDIRECT,
  26:User/Inc/rosserialInc/ros/time.h ****  * INCIDENTAL, SPECIAL, EXEMPLARY, OR CONSEQUENTIAL DAMAGES (INCLUDING,
  27:User/Inc/rosserialInc/ros/time.h ****  * BUT NOT LIMITED TO, PROCUREMENT OF SUBSTITUTE GOODS OR SERVICES;
  28:User/Inc/rosserialInc/ros/time.h ****  * LOSS OF USE, DATA, OR PROFITS; OR BUSINESS INTERRUPTION) HOWEVER
  29:User/Inc/rosserialInc/ros/time.h ****  * CAUSED AND ON ANY THEORY OF LIABILITY, WHETHER IN CONTRACT, STRICT
  30:User/Inc/rosserialInc/ros/time.h ****  * LIABILITY, OR TORT (INCLUDING NEGLIGENCE OR OTHERWISE) ARISING IN
  31:User/Inc/rosserialInc/ros/time.h ****  * ANY WAY OUT OF THE USE OF THIS SOFTWARE, EVEN IF ADVISED OF THE
  32:User/Inc/rosserialInc/ros/time.h ****  * POSSIBILITY OF SUCH DAMAGE.
  33:User/Inc/rosserialInc/ros/time.h ****  */
  34:User/Inc/rosserialInc/ros/time.h **** 
ARM GAS  /tmp/ccBu519l.s 			page 71


  35:User/Inc/rosserialInc/ros/time.h **** #ifndef ROS_TIME_H_
  36:User/Inc/rosserialInc/ros/time.h **** #define ROS_TIME_H_
  37:User/Inc/rosserialInc/ros/time.h **** 
  38:User/Inc/rosserialInc/ros/time.h **** #include "ros/duration.h"
  39:User/Inc/rosserialInc/ros/time.h **** #include <math.h>
  40:User/Inc/rosserialInc/ros/time.h **** #include <stdint.h>
  41:User/Inc/rosserialInc/ros/time.h **** 
  42:User/Inc/rosserialInc/ros/time.h **** namespace ros
  43:User/Inc/rosserialInc/ros/time.h **** {
  44:User/Inc/rosserialInc/ros/time.h **** void normalizeSecNSec(uint32_t &sec, uint32_t &nsec);
  45:User/Inc/rosserialInc/ros/time.h **** 
  46:User/Inc/rosserialInc/ros/time.h **** class Time
  47:User/Inc/rosserialInc/ros/time.h **** {
  48:User/Inc/rosserialInc/ros/time.h **** public:
  49:User/Inc/rosserialInc/ros/time.h ****   uint32_t sec, nsec;
  50:User/Inc/rosserialInc/ros/time.h **** 
  51:User/Inc/rosserialInc/ros/time.h ****   Time() : sec(0), nsec(0) {}
 2238              		.loc 9 51 3 is_stmt 1 view .LVU709
 2239              	.LBB210:
 2240              	.LBB211:
 2241              		.loc 9 51 26 is_stmt 0 view .LVU710
 2242 0160 0023     		movs	r3, #0
 2243 0162 0293     		str	r3, [sp, #8]
 2244 0164 0393     		str	r3, [sp, #12]
 2245              	.LVL196:
 2246              		.loc 9 51 26 view .LVU711
 2247              	.LBE211:
 2248              	.LBE210:
 2249              	.LBE209:
 2250              	.LBE206:
 2251              	.LBE205:
 2252              	.LBE204:
 350:User/Inc/rosserialInc/ros/node_handle.h ****     rt_time = hardware_.time();
 2253              		.loc 6 350 12 view .LVU712
 2254 0166 2368     		ldr	r3, [r4]
 2255 0168 1B68     		ldr	r3, [r3]
 2256 016a 01AA     		add	r2, sp, #4
 2257 016c 0A21     		movs	r1, #10
 2258              	.LVL197:
 350:User/Inc/rosserialInc/ros/node_handle.h ****     rt_time = hardware_.time();
 2259              		.loc 6 350 12 view .LVU713
 2260 016e 2046     		mov	r0, r4
 2261 0170 9847     		blx	r3
 2262              	.LVL198:
 2263              	.LBB212:
 2264              	.LBI212:
 2265              		.loc 8 129 19 is_stmt 1 view .LVU714
 2266              	.LBB213:
 2267              		.loc 8 129 27 view .LVU715
 2268              		.loc 8 129 45 is_stmt 0 view .LVU716
 2269 0172 FFF7FEFF 		bl	HAL_GetTick
 2270              	.LVL199:
 2271              		.loc 8 129 48 is_stmt 1 view .LVU717
 2272              		.loc 8 129 48 is_stmt 0 view .LVU718
 2273              	.LBE213:
 2274              	.LBE212:
 351:User/Inc/rosserialInc/ros/node_handle.h ****   }
ARM GAS  /tmp/ccBu519l.s 			page 72


 2275              		.loc 6 351 13 view .LVU719
 2276 0176 C4F81402 		str	r0, [r4, #532]
 352:User/Inc/rosserialInc/ros/node_handle.h **** 
 2277              		.loc 6 352 3 view .LVU720
 2278 017a 72E7     		b	.L104
 2279              	.LVL200:
 2280              	.L141:
 352:User/Inc/rosserialInc/ros/node_handle.h **** 
 2281              		.loc 6 352 3 view .LVU721
 2282              	.LBE203:
 2283              	.LBE202:
 250:User/Inc/rosserialInc/ros/node_handle.h ****         }
 2284              		.loc 6 250 11 view .LVU722
 2285 017c 0133     		adds	r3, r3, #1
 2286 017e C4F8EC36 		str	r3, [r4, #1772]
 2287 0182 6EE7     		b	.L104
 2288              	.L132:
 261:User/Inc/rosserialInc/ros/node_handle.h ****         index_ = 0;
 2289              		.loc 6 261 16 view .LVU723
 2290 0184 C4F8F016 		str	r1, [r4, #1776]
 262:User/Inc/rosserialInc/ros/node_handle.h ****         mode_++;
 2291              		.loc 6 262 16 view .LVU724
 2292 0188 0022     		movs	r2, #0
 2293 018a C4F8F826 		str	r2, [r4, #1784]
 263:User/Inc/rosserialInc/ros/node_handle.h ****         checksum_ = data;               /* first byte for calculating size checksum */
 2294              		.loc 6 263 9 view .LVU725
 2295 018e 0133     		adds	r3, r3, #1
 2296 0190 C4F8EC36 		str	r3, [r4, #1772]
 264:User/Inc/rosserialInc/ros/node_handle.h ****       }
 2297              		.loc 6 264 19 view .LVU726
 2298 0194 C4F8FC16 		str	r1, [r4, #1788]
 2299 0198 63E7     		b	.L104
 2300              	.L133:
 268:User/Inc/rosserialInc/ros/node_handle.h ****         mode_++;
 2301              		.loc 6 268 16 view .LVU727
 2302 019a D4F8F026 		ldr	r2, [r4, #1776]
 2303 019e 02EB0122 		add	r2, r2, r1, lsl #8
 2304 01a2 C4F8F026 		str	r2, [r4, #1776]
 269:User/Inc/rosserialInc/ros/node_handle.h ****       }
 2305              		.loc 6 269 9 view .LVU728
 2306 01a6 0133     		adds	r3, r3, #1
 2307 01a8 C4F8EC36 		str	r3, [r4, #1772]
 2308 01ac 59E7     		b	.L104
 2309              	.L134:
 273:User/Inc/rosserialInc/ros/node_handle.h ****           mode_++;
 2310              		.loc 6 273 24 view .LVU729
 2311 01ae 5142     		rsbs	r1, r2, #0
 2312              	.LVL201:
 273:User/Inc/rosserialInc/ros/node_handle.h ****           mode_++;
 2313              		.loc 6 273 24 view .LVU730
 2314 01b0 D2B2     		uxtb	r2, r2
 2315 01b2 C9B2     		uxtb	r1, r1
 2316 01b4 58BF     		it	pl
 2317 01b6 4A42     		rsbpl	r2, r1, #0
 273:User/Inc/rosserialInc/ros/node_handle.h ****           mode_++;
 2318              		.loc 6 273 9 view .LVU731
 2319 01b8 FF2A     		cmp	r2, #255
ARM GAS  /tmp/ccBu519l.s 			page 73


 2320 01ba 03D0     		beq	.L142
 276:User/Inc/rosserialInc/ros/node_handle.h ****       }
 2321              		.loc 6 276 17 view .LVU732
 2322 01bc 0023     		movs	r3, #0
 2323 01be C4F8EC36 		str	r3, [r4, #1772]
 2324 01c2 4EE7     		b	.L104
 2325              	.L142:
 274:User/Inc/rosserialInc/ros/node_handle.h ****         else
 2326              		.loc 6 274 11 view .LVU733
 2327 01c4 0133     		adds	r3, r3, #1
 2328 01c6 C4F8EC36 		str	r3, [r4, #1772]
 2329 01ca 4AE7     		b	.L104
 2330              	.LVL202:
 2331              	.L135:
 280:User/Inc/rosserialInc/ros/node_handle.h ****         mode_++;
 2332              		.loc 6 280 16 view .LVU734
 2333 01cc C4F8F416 		str	r1, [r4, #1780]
 281:User/Inc/rosserialInc/ros/node_handle.h ****         checksum_ = data;               /* first byte included in checksum */
 2334              		.loc 6 281 9 view .LVU735
 2335 01d0 0133     		adds	r3, r3, #1
 2336 01d2 C4F8EC36 		str	r3, [r4, #1772]
 282:User/Inc/rosserialInc/ros/node_handle.h ****       }
 2337              		.loc 6 282 19 view .LVU736
 2338 01d6 C4F8FC16 		str	r1, [r4, #1788]
 2339 01da 42E7     		b	.L104
 2340              	.L136:
 286:User/Inc/rosserialInc/ros/node_handle.h ****         mode_ = MODE_MESSAGE;
 2341              		.loc 6 286 16 view .LVU737
 2342 01dc D4F8F436 		ldr	r3, [r4, #1780]
 2343 01e0 03EB0123 		add	r3, r3, r1, lsl #8
 2344 01e4 C4F8F436 		str	r3, [r4, #1780]
 287:User/Inc/rosserialInc/ros/node_handle.h ****         if (bytes_ == 0)
 2345              		.loc 6 287 15 view .LVU738
 2346 01e8 0723     		movs	r3, #7
 2347 01ea C4F8EC36 		str	r3, [r4, #1772]
 288:User/Inc/rosserialInc/ros/node_handle.h ****           mode_ = MODE_MSG_CHECKSUM;
 2348              		.loc 6 288 13 view .LVU739
 2349 01ee D4F8F036 		ldr	r3, [r4, #1776]
 288:User/Inc/rosserialInc/ros/node_handle.h ****           mode_ = MODE_MSG_CHECKSUM;
 2350              		.loc 6 288 9 view .LVU740
 2351 01f2 002B     		cmp	r3, #0
 2352 01f4 7FF435AF 		bne	.L104
 289:User/Inc/rosserialInc/ros/node_handle.h ****       }
 2353              		.loc 6 289 17 view .LVU741
 2354 01f8 0823     		movs	r3, #8
 2355 01fa C4F8EC36 		str	r3, [r4, #1772]
 2356 01fe 30E7     		b	.L104
 2357              	.L137:
 2358              	.LVL203:
 2359              	.LBB214:
 2360              	.LBI214:
 347:User/Inc/rosserialInc/ros/node_handle.h ****   {
 2361              		.loc 6 347 8 is_stmt 1 view .LVU742
 2362              	.LBB215:
 2363              	.LBB216:
 2364              	.LBI216:
  19:User/Inc/rosserialInc/std_msgs/Time.h ****       data()
ARM GAS  /tmp/ccBu519l.s 			page 74


 2365              		.loc 1 19 5 view .LVU743
 2366              	.LBB217:
 2367              	.LBB218:
 2368              	.LBB219:
 2369              	.LBI219:
  46:User/Inc/rosserialInc/ros/msg.h **** {
 2370              		.loc 3 46 7 view .LVU744
 2371              	.LBB220:
 2372 0200 564B     		ldr	r3, .L144
 2373 0202 0193     		str	r3, [sp, #4]
 2374              	.LVL204:
  46:User/Inc/rosserialInc/ros/msg.h **** {
 2375              		.loc 3 46 7 is_stmt 0 view .LVU745
 2376              	.LBE220:
 2377              	.LBE219:
  20:User/Inc/rosserialInc/std_msgs/Time.h ****     {
 2378              		.loc 1 20 12 view .LVU746
 2379 0204 564B     		ldr	r3, .L144+4
 2380 0206 0193     		str	r3, [sp, #4]
 2381              	.LVL205:
 2382              	.LBB221:
 2383              	.LBI221:
 2384              		.loc 9 51 3 is_stmt 1 view .LVU747
 2385              	.LBB222:
 2386              	.LBB223:
 2387              		.loc 9 51 26 is_stmt 0 view .LVU748
 2388 0208 0023     		movs	r3, #0
 2389 020a 0293     		str	r3, [sp, #8]
 2390 020c 0393     		str	r3, [sp, #12]
 2391              	.LVL206:
 2392              		.loc 9 51 26 view .LVU749
 2393              	.LBE223:
 2394              	.LBE222:
 2395              	.LBE221:
 2396              	.LBE218:
 2397              	.LBE217:
 2398              	.LBE216:
 350:User/Inc/rosserialInc/ros/node_handle.h ****     rt_time = hardware_.time();
 2399              		.loc 6 350 12 view .LVU750
 2400 020e 2368     		ldr	r3, [r4]
 2401 0210 1B68     		ldr	r3, [r3]
 2402 0212 01AA     		add	r2, sp, #4
 2403 0214 0A21     		movs	r1, #10
 2404              	.LVL207:
 350:User/Inc/rosserialInc/ros/node_handle.h ****     rt_time = hardware_.time();
 2405              		.loc 6 350 12 view .LVU751
 2406 0216 2046     		mov	r0, r4
 2407 0218 9847     		blx	r3
 2408              	.LVL208:
 2409              	.LBB224:
 2410              	.LBI224:
 2411              		.loc 8 129 19 is_stmt 1 view .LVU752
 2412              	.LBB225:
 2413              		.loc 8 129 27 view .LVU753
 2414              		.loc 8 129 45 is_stmt 0 view .LVU754
 2415 021a FFF7FEFF 		bl	HAL_GetTick
 2416              	.LVL209:
ARM GAS  /tmp/ccBu519l.s 			page 75


 2417              		.loc 8 129 48 is_stmt 1 view .LVU755
 2418              		.loc 8 129 48 is_stmt 0 view .LVU756
 2419              	.LBE225:
 2420              	.LBE224:
 351:User/Inc/rosserialInc/ros/node_handle.h ****   }
 2421              		.loc 6 351 13 view .LVU757
 2422 021e C4F81402 		str	r0, [r4, #532]
 2423              	.LVL210:
 351:User/Inc/rosserialInc/ros/node_handle.h ****   }
 2424              		.loc 6 351 13 view .LVU758
 2425              	.LBE215:
 2426              	.LBE214:
 299:User/Inc/rosserialInc/ros/node_handle.h ****             last_sync_time = c_time;
 2427              		.loc 6 299 28 view .LVU759
 2428 0222 2046     		mov	r0, r4
 2429 0224 FFF7FEFF 		bl	_ZN3ros11NodeHandle_I13STM32HardwareLi25ELi25ELi512ELi512EE15negotiateTopicsEv
 2430              	.LVL211:
 300:User/Inc/rosserialInc/ros/node_handle.h ****             last_sync_receive_time = c_time;
 2431              		.loc 6 300 28 view .LVU760
 2432 0228 C4F80467 		str	r6, [r4, #1796]
 301:User/Inc/rosserialInc/ros/node_handle.h ****             return SPIN_ERR;
 2433              		.loc 6 301 36 view .LVU761
 2434 022c C4F80867 		str	r6, [r4, #1800]
 302:User/Inc/rosserialInc/ros/node_handle.h ****           }
 2435              		.loc 6 302 20 view .LVU762
 2436 0230 4FF0FF30 		mov	r0, #-1
 2437 0234 8CE0     		b	.L101
 2438              	.LVL212:
 2439              	.L138:
 306:User/Inc/rosserialInc/ros/node_handle.h ****           }
 2440              		.loc 6 306 22 view .LVU763
 2441 0236 04F50977 		add	r7, r4, #548
 2442              	.LVL213:
 2443              	.LBB226:
 2444              	.LBI226:
 354:User/Inc/rosserialInc/ros/node_handle.h ****   {
 2445              		.loc 6 354 8 is_stmt 1 view .LVU764
 2446              	.LBB227:
 2447              	.LBB228:
 2448              	.LBI228:
  19:User/Inc/rosserialInc/std_msgs/Time.h ****       data()
 2449              		.loc 1 19 5 view .LVU765
 2450              	.LBB229:
 2451              	.LBB230:
 2452              	.LBB231:
 2453              	.LBI231:
  46:User/Inc/rosserialInc/ros/msg.h **** {
 2454              		.loc 3 46 7 view .LVU766
 2455              	.LBB232:
 2456 023a 484B     		ldr	r3, .L144
 2457 023c 0193     		str	r3, [sp, #4]
 2458              	.LVL214:
  46:User/Inc/rosserialInc/ros/msg.h **** {
 2459              		.loc 3 46 7 is_stmt 0 view .LVU767
 2460              	.LBE232:
 2461              	.LBE231:
  20:User/Inc/rosserialInc/std_msgs/Time.h ****     {
ARM GAS  /tmp/ccBu519l.s 			page 76


 2462              		.loc 1 20 12 view .LVU768
 2463 023e 484B     		ldr	r3, .L144+4
 2464 0240 0193     		str	r3, [sp, #4]
 2465              	.LVL215:
 2466              	.LBB233:
 2467              	.LBI233:
 2468              		.loc 9 51 3 is_stmt 1 view .LVU769
 2469              	.LBB234:
 2470              	.LBB235:
 2471              		.loc 9 51 26 is_stmt 0 view .LVU770
 2472 0242 0023     		movs	r3, #0
 2473 0244 0293     		str	r3, [sp, #8]
 2474 0246 0393     		str	r3, [sp, #12]
 2475              	.LVL216:
 2476              		.loc 9 51 26 view .LVU771
 2477              	.LBE235:
 2478              	.LBE234:
 2479              	.LBE233:
 2480              	.LBE230:
 2481              	.LBE229:
 2482              	.LBE228:
 2483              	.LBB236:
 2484              	.LBI236:
 2485              		.loc 8 129 19 is_stmt 1 view .LVU772
 2486              	.LBB237:
 2487              		.loc 8 129 27 view .LVU773
 2488              		.loc 8 129 45 is_stmt 0 view .LVU774
 2489 0248 FFF7FEFF 		bl	HAL_GetTick
 2490              	.LVL217:
 2491              		.loc 8 129 48 is_stmt 1 view .LVU775
 2492              		.loc 8 129 48 is_stmt 0 view .LVU776
 2493              	.LBE237:
 2494              	.LBE236:
 357:User/Inc/rosserialInc/ros/node_handle.h **** 
 2495              		.loc 6 357 42 view .LVU777
 2496 024c D4F81432 		ldr	r3, [r4, #532]
 357:User/Inc/rosserialInc/ros/node_handle.h **** 
 2497              		.loc 6 357 14 view .LVU778
 2498 0250 C01A     		subs	r0, r0, r3
 2499              	.LVL218:
 2500              	.LBB238:
 2501              	.LBI238:
  40:User/Inc/rosserialInc/std_msgs/Time.h ****     {
 2502              		.loc 1 40 17 is_stmt 1 view .LVU779
 2503              	.LBB239:
  42:User/Inc/rosserialInc/std_msgs/Time.h ****       this->data.sec =  ((uint32_t) (*(inbuffer + offset)));
 2504              		.loc 1 42 7 view .LVU780
  43:User/Inc/rosserialInc/std_msgs/Time.h ****       this->data.sec |= ((uint32_t) (*(inbuffer + offset + 1))) << (8 * 1);
 2505              		.loc 1 43 7 view .LVU781
  43:User/Inc/rosserialInc/std_msgs/Time.h ****       this->data.sec |= ((uint32_t) (*(inbuffer + offset + 1))) << (8 * 1);
 2506              		.loc 1 43 38 is_stmt 0 view .LVU782
 2507 0252 94F82422 		ldrb	r2, [r4, #548]	@ zero_extendqisi2
  43:User/Inc/rosserialInc/std_msgs/Time.h ****       this->data.sec |= ((uint32_t) (*(inbuffer + offset + 1))) << (8 * 1);
 2508              		.loc 1 43 22 view .LVU783
 2509 0256 0292     		str	r2, [sp, #8]
  44:User/Inc/rosserialInc/std_msgs/Time.h ****       this->data.sec |= ((uint32_t) (*(inbuffer + offset + 2))) << (8 * 2);
 2510              		.loc 1 44 7 is_stmt 1 view .LVU784
ARM GAS  /tmp/ccBu519l.s 			page 77


  44:User/Inc/rosserialInc/std_msgs/Time.h ****       this->data.sec |= ((uint32_t) (*(inbuffer + offset + 2))) << (8 * 2);
 2511              		.loc 1 44 38 is_stmt 0 view .LVU785
 2512 0258 3946     		mov	r1, r7
 2513 025a 7B78     		ldrb	r3, [r7, #1]	@ zero_extendqisi2
  44:User/Inc/rosserialInc/std_msgs/Time.h ****       this->data.sec |= ((uint32_t) (*(inbuffer + offset + 2))) << (8 * 2);
 2514              		.loc 1 44 22 view .LVU786
 2515 025c 42EA0322 		orr	r2, r2, r3, lsl #8
 2516 0260 0292     		str	r2, [sp, #8]
  45:User/Inc/rosserialInc/std_msgs/Time.h ****       this->data.sec |= ((uint32_t) (*(inbuffer + offset + 3))) << (8 * 3);
 2517              		.loc 1 45 7 is_stmt 1 view .LVU787
  45:User/Inc/rosserialInc/std_msgs/Time.h ****       this->data.sec |= ((uint32_t) (*(inbuffer + offset + 3))) << (8 * 3);
 2518              		.loc 1 45 38 is_stmt 0 view .LVU788
 2519 0262 BB78     		ldrb	r3, [r7, #2]	@ zero_extendqisi2
  45:User/Inc/rosserialInc/std_msgs/Time.h ****       this->data.sec |= ((uint32_t) (*(inbuffer + offset + 3))) << (8 * 3);
 2520              		.loc 1 45 22 view .LVU789
 2521 0264 42EA0342 		orr	r2, r2, r3, lsl #16
 2522 0268 0292     		str	r2, [sp, #8]
  46:User/Inc/rosserialInc/std_msgs/Time.h ****       offset += sizeof(this->data.sec);
 2523              		.loc 1 46 7 is_stmt 1 view .LVU790
  46:User/Inc/rosserialInc/std_msgs/Time.h ****       offset += sizeof(this->data.sec);
 2524              		.loc 1 46 38 is_stmt 0 view .LVU791
 2525 026a FB78     		ldrb	r3, [r7, #3]	@ zero_extendqisi2
  46:User/Inc/rosserialInc/std_msgs/Time.h ****       offset += sizeof(this->data.sec);
 2526              		.loc 1 46 22 view .LVU792
 2527 026c 42EA0362 		orr	r2, r2, r3, lsl #24
 2528 0270 0292     		str	r2, [sp, #8]
  47:User/Inc/rosserialInc/std_msgs/Time.h ****       this->data.nsec =  ((uint32_t) (*(inbuffer + offset)));
 2529              		.loc 1 47 7 is_stmt 1 view .LVU793
 2530              	.LVL219:
  48:User/Inc/rosserialInc/std_msgs/Time.h ****       this->data.nsec |= ((uint32_t) (*(inbuffer + offset + 1))) << (8 * 1);
 2531              		.loc 1 48 7 view .LVU794
  48:User/Inc/rosserialInc/std_msgs/Time.h ****       this->data.nsec |= ((uint32_t) (*(inbuffer + offset + 1))) << (8 * 1);
 2532              		.loc 1 48 39 is_stmt 0 view .LVU795
 2533 0272 3B79     		ldrb	r3, [r7, #4]	@ zero_extendqisi2
  48:User/Inc/rosserialInc/std_msgs/Time.h ****       this->data.nsec |= ((uint32_t) (*(inbuffer + offset + 1))) << (8 * 1);
 2534              		.loc 1 48 23 view .LVU796
 2535 0274 0393     		str	r3, [sp, #12]
  49:User/Inc/rosserialInc/std_msgs/Time.h ****       this->data.nsec |= ((uint32_t) (*(inbuffer + offset + 2))) << (8 * 2);
 2536              		.loc 1 49 7 is_stmt 1 view .LVU797
  49:User/Inc/rosserialInc/std_msgs/Time.h ****       this->data.nsec |= ((uint32_t) (*(inbuffer + offset + 2))) << (8 * 2);
 2537              		.loc 1 49 39 is_stmt 0 view .LVU798
 2538 0276 7F79     		ldrb	r7, [r7, #5]	@ zero_extendqisi2
  49:User/Inc/rosserialInc/std_msgs/Time.h ****       this->data.nsec |= ((uint32_t) (*(inbuffer + offset + 2))) << (8 * 2);
 2539              		.loc 1 49 23 view .LVU799
 2540 0278 43EA0723 		orr	r3, r3, r7, lsl #8
 2541 027c 0393     		str	r3, [sp, #12]
  50:User/Inc/rosserialInc/std_msgs/Time.h ****       this->data.nsec |= ((uint32_t) (*(inbuffer + offset + 3))) << (8 * 3);
 2542              		.loc 1 50 7 is_stmt 1 view .LVU800
  50:User/Inc/rosserialInc/std_msgs/Time.h ****       this->data.nsec |= ((uint32_t) (*(inbuffer + offset + 3))) << (8 * 3);
 2543              		.loc 1 50 39 is_stmt 0 view .LVU801
 2544 027e 8F79     		ldrb	r7, [r1, #6]	@ zero_extendqisi2
  50:User/Inc/rosserialInc/std_msgs/Time.h ****       this->data.nsec |= ((uint32_t) (*(inbuffer + offset + 3))) << (8 * 3);
 2545              		.loc 1 50 23 view .LVU802
 2546 0280 43EA0743 		orr	r3, r3, r7, lsl #16
 2547 0284 0393     		str	r3, [sp, #12]
  51:User/Inc/rosserialInc/std_msgs/Time.h ****       offset += sizeof(this->data.nsec);
 2548              		.loc 1 51 7 is_stmt 1 view .LVU803
ARM GAS  /tmp/ccBu519l.s 			page 78


  51:User/Inc/rosserialInc/std_msgs/Time.h ****       offset += sizeof(this->data.nsec);
 2549              		.loc 1 51 39 is_stmt 0 view .LVU804
 2550 0286 C979     		ldrb	r1, [r1, #7]	@ zero_extendqisi2
  51:User/Inc/rosserialInc/std_msgs/Time.h ****       offset += sizeof(this->data.nsec);
 2551              		.loc 1 51 23 view .LVU805
 2552 0288 43EA0163 		orr	r3, r3, r1, lsl #24
 2553 028c 0393     		str	r3, [sp, #12]
  52:User/Inc/rosserialInc/std_msgs/Time.h ****      return offset;
 2554              		.loc 1 52 7 is_stmt 1 view .LVU806
 2555              	.LVL220:
  53:User/Inc/rosserialInc/std_msgs/Time.h ****     }
 2556              		.loc 1 53 6 view .LVU807
  53:User/Inc/rosserialInc/std_msgs/Time.h ****     }
 2557              		.loc 1 53 6 is_stmt 0 view .LVU808
 2558              	.LBE239:
 2559              	.LBE238:
 360:User/Inc/rosserialInc/ros/node_handle.h ****     t.data.nsec += (offset % 1000) * 1000000UL;
 2560              		.loc 6 360 26 view .LVU809
 2561 028e 354F     		ldr	r7, .L144+8
 2562 0290 A7FB00C1 		umull	ip, r1, r7, r0
 2563 0294 4FEA911C 		lsr	ip, r1, #6
 360:User/Inc/rosserialInc/ros/node_handle.h ****     t.data.nsec += (offset % 1000) * 1000000UL;
 2564              		.loc 6 360 16 view .LVU810
 2565 0298 02EB9112 		add	r2, r2, r1, lsr #6
 2566 029c 0292     		str	r2, [sp, #8]
 361:User/Inc/rosserialInc/ros/node_handle.h **** 
 2567              		.loc 6 361 28 view .LVU811
 2568 029e 4FF47A78 		mov	r8, #1000
 2569 02a2 08FB1C00 		mls	r0, r8, ip, r0
 2570              	.LVL221:
 361:User/Inc/rosserialInc/ros/node_handle.h **** 
 2571              		.loc 6 361 36 view .LVU812
 2572 02a6 DFF8C090 		ldr	r9, .L144+12
 361:User/Inc/rosserialInc/ros/node_handle.h **** 
 2573              		.loc 6 361 17 view .LVU813
 2574 02aa 09FB0033 		mla	r3, r9, r0, r3
 2575 02ae 0393     		str	r3, [sp, #12]
 2576              	.LVL222:
 2577              	.LBB240:
 2578              	.LBI240:
 377:User/Inc/rosserialInc/ros/node_handle.h ****   {
 2579              		.loc 6 377 8 is_stmt 1 view .LVU814
 2580              	.LBB241:
 2581              	.LBB242:
 2582              	.LBI242:
 2583              		.loc 8 129 19 view .LVU815
 2584              	.LBB243:
 2585              		.loc 8 129 27 view .LVU816
 2586              		.loc 8 129 45 is_stmt 0 view .LVU817
 2587 02b0 FFF7FEFF 		bl	HAL_GetTick
 2588              	.LVL223:
 2589              		.loc 8 129 48 is_stmt 1 view .LVU818
 2590              		.loc 8 129 48 is_stmt 0 view .LVU819
 2591              	.LBE243:
 2592              	.LBE242:
 380:User/Inc/rosserialInc/ros/node_handle.h ****     nsec_offset = new_now.nsec - (ms % 1000) * 1000000UL + 1000000000UL;
 2593              		.loc 6 380 35 view .LVU820
ARM GAS  /tmp/ccBu519l.s 			page 79


 2594 02b4 A7FB0027 		umull	r2, r7, r7, r0
 2595 02b8 B909     		lsrs	r1, r7, #6
 380:User/Inc/rosserialInc/ros/node_handle.h ****     nsec_offset = new_now.nsec - (ms % 1000) * 1000000UL + 1000000000UL;
 2596              		.loc 6 380 30 view .LVU821
 2597 02ba 029A     		ldr	r2, [sp, #8]
 2598 02bc A2EB9712 		sub	r2, r2, r7, lsr #6
 380:User/Inc/rosserialInc/ros/node_handle.h ****     nsec_offset = new_now.nsec - (ms % 1000) * 1000000UL + 1000000000UL;
 2599              		.loc 6 380 42 view .LVU822
 2600 02c0 013A     		subs	r2, r2, #1
 380:User/Inc/rosserialInc/ros/node_handle.h ****     nsec_offset = new_now.nsec - (ms % 1000) * 1000000UL + 1000000000UL;
 2601              		.loc 6 380 16 view .LVU823
 2602 02c2 C4F81822 		str	r2, [r4, #536]
 381:User/Inc/rosserialInc/ros/node_handle.h ****     normalizeSecNSec(sec_offset, nsec_offset);
 2603              		.loc 6 381 38 view .LVU824
 2604 02c6 08FB1103 		mls	r3, r8, r1, r0
 381:User/Inc/rosserialInc/ros/node_handle.h ****     normalizeSecNSec(sec_offset, nsec_offset);
 2605              		.loc 6 381 32 view .LVU825
 2606 02ca 039A     		ldr	r2, [sp, #12]
 2607 02cc 09FB1322 		mls	r2, r9, r3, r2
 381:User/Inc/rosserialInc/ros/node_handle.h ****     normalizeSecNSec(sec_offset, nsec_offset);
 2608              		.loc 6 381 58 view .LVU826
 2609 02d0 264B     		ldr	r3, .L144+16
 2610 02d2 1344     		add	r3, r3, r2
 381:User/Inc/rosserialInc/ros/node_handle.h ****     normalizeSecNSec(sec_offset, nsec_offset);
 2611              		.loc 6 381 17 view .LVU827
 2612 02d4 C4F81C32 		str	r3, [r4, #540]
 382:User/Inc/rosserialInc/ros/node_handle.h ****   }
 2613              		.loc 6 382 21 view .LVU828
 2614 02d8 04F50771 		add	r1, r4, #540
 2615 02dc 04F50670 		add	r0, r4, #536
 2616              	.LVL224:
 382:User/Inc/rosserialInc/ros/node_handle.h ****   }
 2617              		.loc 6 382 21 view .LVU829
 2618 02e0 FFF7FEFF 		bl	_ZN3ros16normalizeSecNSecERmS0_
 2619              	.LVL225:
 382:User/Inc/rosserialInc/ros/node_handle.h ****   }
 2620              		.loc 6 382 21 view .LVU830
 2621              	.LBE241:
 2622              	.LBE240:
 2623              	.LBB244:
 2624              	.LBI244:
 2625              		.loc 8 129 19 is_stmt 1 view .LVU831
 2626              	.LBB245:
 2627              		.loc 8 129 27 view .LVU832
 2628              		.loc 8 129 45 is_stmt 0 view .LVU833
 2629 02e4 FFF7FEFF 		bl	HAL_GetTick
 2630              	.LVL226:
 2631              		.loc 8 129 48 is_stmt 1 view .LVU834
 2632              		.loc 8 129 48 is_stmt 0 view .LVU835
 2633              	.LBE245:
 2634              	.LBE244:
 364:User/Inc/rosserialInc/ros/node_handle.h ****   }
 2635              		.loc 6 364 28 view .LVU836
 2636 02e8 C4F80807 		str	r0, [r4, #1800]
 365:User/Inc/rosserialInc/ros/node_handle.h **** 
 2637              		.loc 6 365 3 view .LVU837
 2638 02ec B9E6     		b	.L104
ARM GAS  /tmp/ccBu519l.s 			page 80


 2639              	.LVL227:
 2640              	.L139:
 365:User/Inc/rosserialInc/ros/node_handle.h **** 
 2641              		.loc 6 365 3 view .LVU838
 2642              	.LBE227:
 2643              	.LBE226:
 310:User/Inc/rosserialInc/ros/node_handle.h ****             param_received = true;
 2644              		.loc 6 310 39 view .LVU839
 2645 02ee 04F50971 		add	r1, r4, #548
 2646              	.LVL228:
 310:User/Inc/rosserialInc/ros/node_handle.h ****             param_received = true;
 2647              		.loc 6 310 39 view .LVU840
 2648 02f2 04F21470 		addw	r0, r4, #1812
 2649 02f6 FFF7FEFF 		bl	_ZN14rosserial_msgs20RequestParamResponse11deserializeEPh
 2650              	.LVL229:
 311:User/Inc/rosserialInc/ros/node_handle.h ****           }
 2651              		.loc 6 311 28 view .LVU841
 2652 02fa 0123     		movs	r3, #1
 2653 02fc 84F81037 		strb	r3, [r4, #1808]
 2654 0300 AFE6     		b	.L104
 2655              	.LVL230:
 2656              	.L140:
 315:User/Inc/rosserialInc/ros/node_handle.h ****           }
 2657              		.loc 6 315 25 view .LVU842
 2658 0302 0023     		movs	r3, #0
 2659 0304 84F80037 		strb	r3, [r4, #1792]
 2660 0308 ABE6     		b	.L104
 2661              	.L108:
 315:User/Inc/rosserialInc/ros/node_handle.h ****           }
 2662              		.loc 6 315 25 view .LVU843
 2663              	.LBE191:
 327:User/Inc/rosserialInc/ros/node_handle.h ****     {
 2664              		.loc 6 327 9 view .LVU844
 2665 030a 94F80037 		ldrb	r3, [r4, #1792]	@ zero_extendqisi2
 327:User/Inc/rosserialInc/ros/node_handle.h ****     {
 2666              		.loc 6 327 5 view .LVU845
 2667 030e 13B3     		cbz	r3, .L127
 327:User/Inc/rosserialInc/ros/node_handle.h ****     {
 2668              		.loc 6 327 35 discriminator 1 view .LVU846
 2669 0310 D4F80437 		ldr	r3, [r4, #1796]
 327:User/Inc/rosserialInc/ros/node_handle.h ****     {
 2670              		.loc 6 327 33 discriminator 1 view .LVU847
 2671 0314 F31A     		subs	r3, r6, r3
 327:User/Inc/rosserialInc/ros/node_handle.h ****     {
 2672              		.loc 6 327 21 discriminator 1 view .LVU848
 2673 0316 40F6C412 		movw	r2, #2500
 2674 031a 9342     		cmp	r3, r2
 2675 031c 01D8     		bhi	.L143
 333:User/Inc/rosserialInc/ros/node_handle.h ****   }
 2676              		.loc 6 333 12 view .LVU849
 2677 031e 0020     		movs	r0, #0
 2678 0320 16E0     		b	.L101
 2679              	.L143:
 2680              	.LVL231:
 2681              	.LBB246:
 2682              	.LBI246:
 347:User/Inc/rosserialInc/ros/node_handle.h ****   {
ARM GAS  /tmp/ccBu519l.s 			page 81


 2683              		.loc 6 347 8 is_stmt 1 view .LVU850
 2684              	.LBB247:
 2685              	.LBB248:
 2686              	.LBI248:
  19:User/Inc/rosserialInc/std_msgs/Time.h ****       data()
 2687              		.loc 1 19 5 view .LVU851
 2688              	.LBB249:
 2689              	.LBB250:
 2690              	.LBB251:
 2691              	.LBI251:
  46:User/Inc/rosserialInc/ros/msg.h **** {
 2692              		.loc 3 46 7 view .LVU852
 2693              	.LBB252:
 2694 0322 0E4B     		ldr	r3, .L144
 2695 0324 0193     		str	r3, [sp, #4]
 2696              	.LVL232:
  46:User/Inc/rosserialInc/ros/msg.h **** {
 2697              		.loc 3 46 7 is_stmt 0 view .LVU853
 2698              	.LBE252:
 2699              	.LBE251:
  20:User/Inc/rosserialInc/std_msgs/Time.h ****     {
 2700              		.loc 1 20 12 view .LVU854
 2701 0326 0E4B     		ldr	r3, .L144+4
 2702 0328 0193     		str	r3, [sp, #4]
 2703              	.LVL233:
 2704              	.LBB253:
 2705              	.LBI253:
 2706              		.loc 9 51 3 is_stmt 1 view .LVU855
 2707              	.LBB254:
 2708              	.LBB255:
 2709              		.loc 9 51 26 is_stmt 0 view .LVU856
 2710 032a 0025     		movs	r5, #0
 2711 032c 0295     		str	r5, [sp, #8]
 2712 032e 0395     		str	r5, [sp, #12]
 2713              	.LVL234:
 2714              		.loc 9 51 26 view .LVU857
 2715              	.LBE255:
 2716              	.LBE254:
 2717              	.LBE253:
 2718              	.LBE250:
 2719              	.LBE249:
 2720              	.LBE248:
 350:User/Inc/rosserialInc/ros/node_handle.h ****     rt_time = hardware_.time();
 2721              		.loc 6 350 12 view .LVU858
 2722 0330 2368     		ldr	r3, [r4]
 2723 0332 1B68     		ldr	r3, [r3]
 2724 0334 01AA     		add	r2, sp, #4
 2725 0336 0A21     		movs	r1, #10
 2726              	.LVL235:
 350:User/Inc/rosserialInc/ros/node_handle.h ****     rt_time = hardware_.time();
 2727              		.loc 6 350 12 view .LVU859
 2728 0338 2046     		mov	r0, r4
 2729 033a 9847     		blx	r3
 2730              	.LVL236:
 2731              	.LBB256:
 2732              	.LBI256:
 2733              		.loc 8 129 19 is_stmt 1 view .LVU860
ARM GAS  /tmp/ccBu519l.s 			page 82


 2734              	.LBB257:
 2735              		.loc 8 129 27 view .LVU861
 2736              		.loc 8 129 45 is_stmt 0 view .LVU862
 2737 033c FFF7FEFF 		bl	HAL_GetTick
 2738              	.LVL237:
 2739              		.loc 8 129 48 is_stmt 1 view .LVU863
 2740              		.loc 8 129 48 is_stmt 0 view .LVU864
 2741              	.LBE257:
 2742              	.LBE256:
 351:User/Inc/rosserialInc/ros/node_handle.h ****   }
 2743              		.loc 6 351 13 view .LVU865
 2744 0340 C4F81402 		str	r0, [r4, #532]
 2745              	.LVL238:
 351:User/Inc/rosserialInc/ros/node_handle.h ****   }
 2746              		.loc 6 351 13 view .LVU866
 2747              	.LBE247:
 2748              	.LBE246:
 330:User/Inc/rosserialInc/ros/node_handle.h ****     }
 2749              		.loc 6 330 22 view .LVU867
 2750 0344 C4F80467 		str	r6, [r4, #1796]
 333:User/Inc/rosserialInc/ros/node_handle.h ****   }
 2751              		.loc 6 333 12 view .LVU868
 2752 0348 2846     		mov	r0, r5
 2753 034a 01E0     		b	.L101
 2754              	.L125:
 2755              	.LBB258:
 218:User/Inc/rosserialInc/ros/node_handle.h ****         }
 2756              		.loc 6 218 18 view .LVU869
 2757 034c 6FF00100 		mvn	r0, #1
 2758              	.L101:
 218:User/Inc/rosserialInc/ros/node_handle.h ****         }
 2759              		.loc 6 218 18 view .LVU870
 2760              	.LBE258:
 334:User/Inc/rosserialInc/ros/node_handle.h **** 
 2761              		.loc 6 334 3 view .LVU871
 2762 0350 05B0     		add	sp, sp, #20
 2763              	.LCFI11:
 2764              		.cfi_remember_state
 2765              		.cfi_def_cfa_offset 28
 2766              		@ sp needed
 2767 0352 BDE8F083 		pop	{r4, r5, r6, r7, r8, r9, pc}
 2768              	.LVL239:
 2769              	.L127:
 2770              	.LCFI12:
 2771              		.cfi_restore_state
 333:User/Inc/rosserialInc/ros/node_handle.h ****   }
 2772              		.loc 6 333 12 view .LVU872
 2773 0356 0020     		movs	r0, #0
 2774 0358 FAE7     		b	.L101
 2775              	.L145:
 2776 035a 00BF     		.align	2
 2777              	.L144:
 2778 035c 08000000 		.word	_ZTVN3ros3MsgE+8
 2779 0360 08000000 		.word	_ZTVN8std_msgs4TimeE+8
 2780 0364 D34D6210 		.word	274877907
 2781 0368 40420F00 		.word	1000000
 2782 036c 00CA9A3B 		.word	1000000000
ARM GAS  /tmp/ccBu519l.s 			page 83


 2783              		.cfi_endproc
 2784              	.LFE451:
 2785              		.fnend
 2787              		.section	.text.loop,"ax",%progbits
 2788              		.align	1
 2789              		.global	loop
 2790              		.syntax unified
 2791              		.thumb
 2792              		.thumb_func
 2793              		.fpu softvfp
 2795              	loop:
 2796              		.fnstart
 2797              	.LFB444:
  67:User/myMain.cpp **** {
 2798              		.loc 4 67 1 is_stmt 1 view -0
 2799              		.cfi_startproc
 2800              		@ args = 0, pretend = 0, frame = 0
 2801              		@ frame_needed = 0, uses_anonymous_args = 0
 2802 0000 38B5     		push	{r3, r4, r5, lr}
 2803              		.save {r3, r4, r5, lr}
 2804              	.LCFI13:
 2805              		.cfi_def_cfa_offset 16
 2806              		.cfi_offset 3, -16
 2807              		.cfi_offset 4, -12
 2808              		.cfi_offset 5, -8
 2809              		.cfi_offset 14, -4
  69:User/myMain.cpp ****   uwManipulator.pSource.readPressure();
 2810              		.loc 4 69 3 view .LVU874
  69:User/myMain.cpp ****   uwManipulator.pSource.readPressure();
 2811              		.loc 4 69 37 is_stmt 0 view .LVU875
 2812 0002 124C     		ldr	r4, .L148
 2813 0004 04F54370 		add	r0, r4, #780
 2814 0008 FFF7FEFF 		bl	_ZN15PRESSURE_SOURCE12readPressureEv
 2815              	.LVL240:
  70:User/myMain.cpp ****   uwManipulator.pSink.readPressure();
 2816              		.loc 4 70 3 is_stmt 1 view .LVU876
  70:User/myMain.cpp ****   uwManipulator.pSink.readPressure();
 2817              		.loc 4 70 35 is_stmt 0 view .LVU877
 2818 000c 04F55070 		add	r0, r4, #832
 2819 0010 FFF7FEFF 		bl	_ZN15PRESSURE_SOURCE12readPressureEv
 2820              	.LVL241:
  73:User/myMain.cpp ****   uwManipulator.decodeCommand();
 2821              		.loc 4 73 3 is_stmt 1 view .LVU878
  73:User/myMain.cpp ****   uwManipulator.decodeCommand();
 2822              		.loc 4 73 30 is_stmt 0 view .LVU879
 2823 0014 2046     		mov	r0, r4
 2824 0016 FFF7FEFF 		bl	_ZN26HydroUnderwaterManipulator13decodeCommandEv
 2825              	.LVL242:
  75:User/myMain.cpp ****   uwManipulator.control_pSource();
 2826              		.loc 4 75 3 is_stmt 1 view .LVU880
  75:User/myMain.cpp ****   uwManipulator.control_pSource();
 2827              		.loc 4 75 32 is_stmt 0 view .LVU881
 2828 001a 2046     		mov	r0, r4
 2829 001c FFF7FEFF 		bl	_ZN26HydroUnderwaterManipulator15control_pSourceEv
 2830              	.LVL243:
  76:User/myMain.cpp ****   uwManipulator.control_pSink();
 2831              		.loc 4 76 3 is_stmt 1 view .LVU882
ARM GAS  /tmp/ccBu519l.s 			page 84


  76:User/myMain.cpp ****   uwManipulator.control_pSink();
 2832              		.loc 4 76 30 is_stmt 0 view .LVU883
 2833 0020 2046     		mov	r0, r4
 2834 0022 FFF7FEFF 		bl	_ZN26HydroUnderwaterManipulator13control_pSinkEv
 2835              	.LVL244:
  77:User/myMain.cpp ****   uwManipulator.control_actuators();
 2836              		.loc 4 77 3 is_stmt 1 view .LVU884
  77:User/myMain.cpp ****   uwManipulator.control_actuators();
 2837              		.loc 4 77 34 is_stmt 0 view .LVU885
 2838 0026 2046     		mov	r0, r4
 2839 0028 FFF7FEFF 		bl	_ZN26HydroUnderwaterManipulator17control_actuatorsEv
 2840              	.LVL245:
  78:User/myMain.cpp ****   uwManipulator.control_gripper();
 2841              		.loc 4 78 3 is_stmt 1 view .LVU886
  78:User/myMain.cpp ****   uwManipulator.control_gripper();
 2842              		.loc 4 78 32 is_stmt 0 view .LVU887
 2843 002c 2046     		mov	r0, r4
 2844 002e FFF7FEFF 		bl	_ZN26HydroUnderwaterManipulator15control_gripperEv
 2845              	.LVL246:
  80:User/myMain.cpp ****   uwManipulator.encodeStatus();
 2846              		.loc 4 80 3 is_stmt 1 view .LVU888
  80:User/myMain.cpp ****   uwManipulator.encodeStatus();
 2847              		.loc 4 80 29 is_stmt 0 view .LVU889
 2848 0032 2046     		mov	r0, r4
 2849 0034 FFF7FEFF 		bl	_ZN26HydroUnderwaterManipulator12encodeStatusEv
 2850              	.LVL247:
  82:User/myMain.cpp ****   rosserialNode.publish(&(uwManipulator.manipulatorStatus));
 2851              		.loc 4 82 3 is_stmt 1 view .LVU890
  82:User/myMain.cpp ****   rosserialNode.publish(&(uwManipulator.manipulatorStatus));
 2852              		.loc 4 82 24 is_stmt 0 view .LVU891
 2853 0038 054D     		ldr	r5, .L148+4
 2854 003a 04F55D71 		add	r1, r4, #884
 2855 003e 2846     		mov	r0, r5
 2856 0040 FFF7FEFF 		bl	_ZN13RosserialNode7publishEPKN3ros3MsgE
 2857              	.LVL248:
  83:User/myMain.cpp ****   rosserialNode.spinOnce();
 2858              		.loc 4 83 3 is_stmt 1 view .LVU892
  83:User/myMain.cpp ****   rosserialNode.spinOnce();
 2859              		.loc 4 83 25 is_stmt 0 view .LVU893
 2860 0044 2846     		mov	r0, r5
 2861 0046 FFF7FEFF 		bl	_ZN3ros11NodeHandle_I13STM32HardwareLi25ELi25ELi512ELi512EE8spinOnceEv
 2862              	.LVL249:
  84:User/myMain.cpp **** }
 2863              		.loc 4 84 1 view .LVU894
 2864 004a 38BD     		pop	{r3, r4, r5, pc}
 2865              	.L149:
 2866              		.align	2
 2867              	.L148:
 2868 004c 00000000 		.word	.LANCHOR0
 2869 0050 00000000 		.word	rosserialNode
 2870              		.cfi_endproc
 2871              	.LFE444:
 2872              		.fnend
 2874              		.section	.text._GLOBAL__sub_I_actuatorInitPorts,"ax",%progbits
 2875              		.align	1
 2876              		.syntax unified
 2877              		.thumb
ARM GAS  /tmp/ccBu519l.s 			page 85


 2878              		.thumb_func
 2879              		.fpu softvfp
 2881              	_GLOBAL__sub_I_actuatorInitPorts:
 2882              		.fnstart
 2883              	.LFB460:
 2884              		.loc 4 121 1 is_stmt 1 view -0
 2885              		.cfi_startproc
 2886              		@ args = 0, pretend = 0, frame = 0
 2887              		@ frame_needed = 0, uses_anonymous_args = 0
 2888 0000 08B5     		push	{r3, lr}
 2889              	.LCFI14:
 2890              		.cfi_def_cfa_offset 8
 2891              		.cfi_offset 3, -8
 2892              		.cfi_offset 14, -4
 2893              		.loc 4 121 1 is_stmt 0 view .LVU896
 2894 0002 4FF6FF71 		movw	r1, #65535
 2895 0006 0120     		movs	r0, #1
 2896 0008 FFF7FEFF 		bl	_Z41__static_initialization_and_destruction_0ii
 2897              	.LVL250:
 2898 000c 08BD     		pop	{r3, pc}
 2899              		.cfi_endproc
 2900              	.LFE460:
 2901              		.cantunwind
 2902              		.fnend
 2904              		.section	.init_array,"aw",%init_array
 2905              		.align	2
 2906 0000 00000000 		.word	_GLOBAL__sub_I_actuatorInitPorts(target1)
 2907              		.weak	_ZTSN3ros3MsgE
 2908              		.section	.rodata._ZTSN3ros3MsgE,"aG",%progbits,_ZTSN3ros3MsgE,comdat
 2909              		.align	2
 2912              	_ZTSN3ros3MsgE:
 2913 0000 4E33726F 		.ascii	"N3ros3MsgE\000"
 2913      73334D73 
 2913      674500
 2914              		.weak	_ZTIN3ros3MsgE
 2915              		.section	.rodata._ZTIN3ros3MsgE,"aG",%progbits,_ZTIN3ros3MsgE,comdat
 2916              		.align	2
 2919              	_ZTIN3ros3MsgE:
 2920 0000 08000000 		.word	_ZTVN10__cxxabiv117__class_type_infoE+8
 2921 0004 00000000 		.word	_ZTSN3ros3MsgE
 2922              		.weak	_ZTSN8std_msgs4TimeE
 2923              		.section	.rodata._ZTSN8std_msgs4TimeE,"aG",%progbits,_ZTSN8std_msgs4TimeE,comdat
 2924              		.align	2
 2927              	_ZTSN8std_msgs4TimeE:
 2928 0000 4E387374 		.ascii	"N8std_msgs4TimeE\000"
 2928      645F6D73 
 2928      67733454 
 2928      696D6545 
 2928      00
 2929              		.weak	_ZTIN8std_msgs4TimeE
 2930              		.section	.rodata._ZTIN8std_msgs4TimeE,"aG",%progbits,_ZTIN8std_msgs4TimeE,comdat
 2931              		.align	2
 2934              	_ZTIN8std_msgs4TimeE:
 2935 0000 08000000 		.word	_ZTVN10__cxxabiv120__si_class_type_infoE+8
 2936 0004 00000000 		.word	_ZTSN8std_msgs4TimeE
 2937 0008 00000000 		.word	_ZTIN3ros3MsgE
 2938              		.weak	_ZTSN14rosserial_msgs9TopicInfoE
ARM GAS  /tmp/ccBu519l.s 			page 86


 2939              		.section	.rodata._ZTSN14rosserial_msgs9TopicInfoE,"aG",%progbits,_ZTSN14rosserial_msgs9TopicInfoE,
 2940              		.align	2
 2943              	_ZTSN14rosserial_msgs9TopicInfoE:
 2944 0000 4E313472 		.ascii	"N14rosserial_msgs9TopicInfoE\000"
 2944      6F737365 
 2944      7269616C 
 2944      5F6D7367 
 2944      7339546F 
 2945              		.weak	_ZTIN14rosserial_msgs9TopicInfoE
 2946              		.section	.rodata._ZTIN14rosserial_msgs9TopicInfoE,"aG",%progbits,_ZTIN14rosserial_msgs9TopicInfoE,
 2947              		.align	2
 2950              	_ZTIN14rosserial_msgs9TopicInfoE:
 2951 0000 08000000 		.word	_ZTVN10__cxxabiv120__si_class_type_infoE+8
 2952 0004 00000000 		.word	_ZTSN14rosserial_msgs9TopicInfoE
 2953 0008 00000000 		.word	_ZTIN3ros3MsgE
 2954              		.weak	_ZTVN3ros3MsgE
 2955              		.section	.rodata._ZTVN3ros3MsgE,"aG",%progbits,_ZTVN3ros3MsgE,comdat
 2956              		.align	2
 2959              	_ZTVN3ros3MsgE:
 2960 0000 00000000 		.word	0
 2961 0004 00000000 		.word	_ZTIN3ros3MsgE
 2962 0008 00000000 		.word	__cxa_pure_virtual
 2963 000c 00000000 		.word	__cxa_pure_virtual
 2964 0010 00000000 		.word	__cxa_pure_virtual
 2965 0014 00000000 		.word	__cxa_pure_virtual
 2966              		.weak	_ZTVN8std_msgs4TimeE
 2967              		.section	.rodata._ZTVN8std_msgs4TimeE,"aG",%progbits,_ZTVN8std_msgs4TimeE,comdat
 2968              		.align	2
 2971              	_ZTVN8std_msgs4TimeE:
 2972 0000 00000000 		.word	0
 2973 0004 00000000 		.word	_ZTIN8std_msgs4TimeE
 2974 0008 00000000 		.word	_ZNK8std_msgs4Time9serializeEPh
 2975 000c 00000000 		.word	_ZN8std_msgs4Time11deserializeEPh
 2976 0010 00000000 		.word	_ZN8std_msgs4Time7getTypeEv
 2977 0014 00000000 		.word	_ZN8std_msgs4Time6getMD5Ev
 2978              		.weak	_ZTVN14rosserial_msgs9TopicInfoE
 2979              		.section	.rodata._ZTVN14rosserial_msgs9TopicInfoE,"aG",%progbits,_ZTVN14rosserial_msgs9TopicInfoE,
 2980              		.align	2
 2983              	_ZTVN14rosserial_msgs9TopicInfoE:
 2984 0000 00000000 		.word	0
 2985 0004 00000000 		.word	_ZTIN14rosserial_msgs9TopicInfoE
 2986 0008 00000000 		.word	_ZNK14rosserial_msgs9TopicInfo9serializeEPh
 2987 000c 00000000 		.word	_ZN14rosserial_msgs9TopicInfo11deserializeEPh
 2988 0010 00000000 		.word	_ZN14rosserial_msgs9TopicInfo7getTypeEv
 2989 0014 00000000 		.word	_ZN14rosserial_msgs9TopicInfo6getMD5Ev
 2990              		.global	uwManipulator
 2991              		.global	pressureDown
 2992              		.global	pressureUp
 2993              		.global	pSinkSensorInitPort
 2994              		.global	pSinkValveInitPort
 2995              		.global	pSinkPumpInitPort
 2996              		.global	pSourceSensorInitPort
 2997              		.global	pSourceValveInitPort
 2998              		.global	pSourcePumpInitPort
 2999              		.global	gripperInitPort
 3000              		.global	actuatorInitPorts
 3001              		.section	.bss.uwManipulator,"aw",%nobits
ARM GAS  /tmp/ccBu519l.s 			page 87


 3002              		.align	2
 3003              		.set	.LANCHOR0,. + 0
 3006              	uwManipulator:
 3007 0000 00000000 		.space	1124
 3007      00000000 
 3007      00000000 
 3007      00000000 
 3007      00000000 
 3008              		.section	.data.actuatorInitPorts,"aw"
 3009              		.align	2
 3010              		.set	.LANCHOR1,. + 0
 3013              	actuatorInitPorts:
 3014 0000 0001     		.ascii	"\000\001"
 3015 0002 0203     		.ascii	"\002\003"
 3016 0004 0405     		.ascii	"\004\005"
 3017 0006 0607     		.ascii	"\006\007"
 3018 0008 0809     		.ascii	"\010\011"
 3019 000a 0A0B     		.ascii	"\012\013"
 3020 000c 0C0D     		.ascii	"\014\015"
 3021 000e 0E0F     		.ascii	"\016\017"
 3022 0010 1011     		.ascii	"\020\021"
 3023 0012 1213     		.ascii	"\022\023"
 3024 0014 1415     		.ascii	"\024\025"
 3025 0016 1617     		.ascii	"\026\027"
 3026              		.section	.data.gripperInitPort,"aw"
 3027              		.align	2
 3028              		.set	.LANCHOR2,. + 0
 3031              	gripperInitPort:
 3032 0000 1D2D     		.ascii	"\035-"
 3033              		.section	.data.pSinkPumpInitPort,"aw"
 3034              		.set	.LANCHOR8,. + 0
 3037              	pSinkPumpInitPort:
 3038 0000 19       		.byte	25
 3039              		.section	.data.pSinkSensorInitPort,"aw"
 3040              		.set	.LANCHOR6,. + 0
 3043              	pSinkSensorInitPort:
 3044 0000 2C       		.byte	44
 3045              		.section	.data.pSinkValveInitPort,"aw"
 3046              		.set	.LANCHOR7,. + 0
 3049              	pSinkValveInitPort:
 3050 0000 1B       		.byte	27
 3051              		.section	.data.pSourcePumpInitPort,"aw"
 3052              		.set	.LANCHOR5,. + 0
 3055              	pSourcePumpInitPort:
 3056 0000 29       		.byte	41
 3057              		.section	.data.pSourceSensorInitPort,"aw"
 3058              		.set	.LANCHOR3,. + 0
 3061              	pSourceSensorInitPort:
 3062 0000 2C       		.byte	44
 3063              		.section	.data.pSourceValveInitPort,"aw"
 3064              		.set	.LANCHOR4,. + 0
 3067              	pSourceValveInitPort:
 3068 0000 2B       		.byte	43
 3069              		.section	.data.pressureDown,"aw"
 3070              		.align	2
 3073              	pressureDown:
 3074 0000 D08AFFFF 		.word	-30000
ARM GAS  /tmp/ccBu519l.s 			page 88


 3075              		.section	.data.pressureUp,"aw"
 3076              		.align	2
 3079              	pressureUp:
 3080 0000 30750000 		.word	30000
 3081              		.text
 3082              	.Letext0:
 3083              		.file 10 "/home/softarm/.config/Code/User/globalStorage/bmd.stm32-for-vscode/@xpack-dev-tools/arm-
 3084              		.file 11 "/home/softarm/.config/Code/User/globalStorage/bmd.stm32-for-vscode/@xpack-dev-tools/arm-
 3085              		.file 12 "Drivers/CMSIS/Device/ST/STM32F1xx/Include/stm32f103xb.h"
 3086              		.file 13 "Drivers/CMSIS/Device/ST/STM32F1xx/Include/stm32f1xx.h"
 3087              		.file 14 "/home/softarm/.config/Code/User/globalStorage/bmd.stm32-for-vscode/@xpack-dev-tools/arm-
 3088              		.file 15 "Drivers/STM32F1xx_HAL_Driver/Inc/stm32f1xx_hal_def.h"
 3089              		.file 16 "Drivers/STM32F1xx_HAL_Driver/Inc/stm32f1xx_hal_dma.h"
 3090              		.file 17 "Drivers/STM32F1xx_HAL_Driver/Inc/stm32f1xx_hal_uart.h"
 3091              		.file 18 "Drivers/STM32F1xx_HAL_Driver/Inc/stm32f1xx_hal.h"
 3092              		.file 19 "/home/softarm/.config/Code/User/globalStorage/bmd.stm32-for-vscode/@xpack-dev-tools/arm-
 3093              		.file 20 "/home/softarm/.config/Code/User/globalStorage/bmd.stm32-for-vscode/@xpack-dev-tools/arm-
 3094              		.file 21 "/home/softarm/.config/Code/User/globalStorage/bmd.stm32-for-vscode/@xpack-dev-tools/arm-
 3095              		.file 22 "/home/softarm/.config/Code/User/globalStorage/bmd.stm32-for-vscode/@xpack-dev-tools/arm-
 3096              		.file 23 "/home/softarm/.config/Code/User/globalStorage/bmd.stm32-for-vscode/@xpack-dev-tools/arm-
 3097              		.file 24 "/home/softarm/.config/Code/User/globalStorage/bmd.stm32-for-vscode/@xpack-dev-tools/arm-
 3098              		.file 25 "/home/softarm/.config/Code/User/globalStorage/bmd.stm32-for-vscode/@xpack-dev-tools/arm-
 3099              		.file 26 "/home/softarm/.config/Code/User/globalStorage/bmd.stm32-for-vscode/@xpack-dev-tools/arm-
 3100              		.file 27 "/home/softarm/.config/Code/User/globalStorage/bmd.stm32-for-vscode/@xpack-dev-tools/arm-
 3101              		.file 28 "User/Inc/rosserialInc/ros/duration.h"
 3102              		.file 29 "User/Inc/rosserialInc/rosserialNode.h"
 3103              		.file 30 "User/Inc/PRESSURESENSOR.h"
 3104              		.file 31 "User/Inc/SOLENOIDVALVE.h"
 3105              		.file 32 "User/Inc/CHAMBER.h"
 3106              		.file 33 "User/Inc/PUMP.h"
 3107              		.file 34 "User/Inc/PRESSURESOURCE.h"
 3108              		.file 35 "User/Inc/HydroUnderwaterManipulator.h"
 3109              		.file 36 "User/Inc/rosserialInc/hydrosoft_ros/Command_Arm.h"
 3110              		.file 37 "User/Inc/rosserialInc/hydrosoft_ros/Sensor_Arm.h"
 3111              		.file 38 "User/Inc/LED_Driver.h"
 3112              		.file 39 "User/Inc/ads1115.h"
 3113              		.file 40 "User/Inc/CANbus.h"
 3114              		.file 41 "/home/softarm/.config/Code/User/globalStorage/bmd.stm32-for-vscode/@xpack-dev-tools/arm-
 3115              		.file 42 "<built-in>"
ARM GAS  /tmp/ccBu519l.s 			page 89


DEFINED SYMBOLS
                            *ABS*:0000000000000000 myMain.cpp
     /tmp/ccBu519l.s:16     .text._ZNK8std_msgs4Time9serializeEPh:0000000000000000 $t
     /tmp/ccBu519l.s:24     .text._ZNK8std_msgs4Time9serializeEPh:0000000000000000 _ZNK8std_msgs4Time9serializeEPh
.ARM.exidx.text._ZNK8std_msgs4Time9serializeEPh:0000000000000000 $d
     /tmp/ccBu519l.s:95     .text._ZN8std_msgs4Time11deserializeEPh:0000000000000000 $t
     /tmp/ccBu519l.s:102    .text._ZN8std_msgs4Time11deserializeEPh:0000000000000000 _ZN8std_msgs4Time11deserializeEPh
.ARM.exidx.text._ZN8std_msgs4Time11deserializeEPh:0000000000000000 $d
     /tmp/ccBu519l.s:174    .rodata._ZN8std_msgs4Time7getTypeEv.str1.4:0000000000000000 $d
     /tmp/ccBu519l.s:178    .text._ZN8std_msgs4Time7getTypeEv:0000000000000000 $t
     /tmp/ccBu519l.s:185    .text._ZN8std_msgs4Time7getTypeEv:0000000000000000 _ZN8std_msgs4Time7getTypeEv
     /tmp/ccBu519l.s:203    .text._ZN8std_msgs4Time7getTypeEv:0000000000000004 $d
.ARM.exidx.text._ZN8std_msgs4Time7getTypeEv:0000000000000000 $d
     /tmp/ccBu519l.s:210    .rodata._ZN8std_msgs4Time6getMD5Ev.str1.4:0000000000000000 $d
     /tmp/ccBu519l.s:214    .text._ZN8std_msgs4Time6getMD5Ev:0000000000000000 $t
     /tmp/ccBu519l.s:221    .text._ZN8std_msgs4Time6getMD5Ev:0000000000000000 _ZN8std_msgs4Time6getMD5Ev
     /tmp/ccBu519l.s:239    .text._ZN8std_msgs4Time6getMD5Ev:0000000000000004 $d
.ARM.exidx.text._ZN8std_msgs4Time6getMD5Ev:0000000000000000 $d
     /tmp/ccBu519l.s:246    .rodata._ZN14rosserial_msgs9TopicInfo7getTypeEv.str1.4:0000000000000000 $d
     /tmp/ccBu519l.s:250    .text._ZN14rosserial_msgs9TopicInfo7getTypeEv:0000000000000000 $t
     /tmp/ccBu519l.s:257    .text._ZN14rosserial_msgs9TopicInfo7getTypeEv:0000000000000000 _ZN14rosserial_msgs9TopicInfo7getTypeEv
     /tmp/ccBu519l.s:276    .text._ZN14rosserial_msgs9TopicInfo7getTypeEv:0000000000000004 $d
.ARM.exidx.text._ZN14rosserial_msgs9TopicInfo7getTypeEv:0000000000000000 $d
     /tmp/ccBu519l.s:283    .rodata._ZN14rosserial_msgs9TopicInfo6getMD5Ev.str1.4:0000000000000000 $d
     /tmp/ccBu519l.s:287    .text._ZN14rosserial_msgs9TopicInfo6getMD5Ev:0000000000000000 $t
     /tmp/ccBu519l.s:294    .text._ZN14rosserial_msgs9TopicInfo6getMD5Ev:0000000000000000 _ZN14rosserial_msgs9TopicInfo6getMD5Ev
     /tmp/ccBu519l.s:312    .text._ZN14rosserial_msgs9TopicInfo6getMD5Ev:0000000000000004 $d
.ARM.exidx.text._ZN14rosserial_msgs9TopicInfo6getMD5Ev:0000000000000000 $d
     /tmp/ccBu519l.s:319    .text._ZNK14rosserial_msgs9TopicInfo9serializeEPh:0000000000000000 $t
     /tmp/ccBu519l.s:326    .text._ZNK14rosserial_msgs9TopicInfo9serializeEPh:0000000000000000 _ZNK14rosserial_msgs9TopicInfo9serializeEPh
.ARM.exidx.text._ZNK14rosserial_msgs9TopicInfo9serializeEPh:0000000000000000 $d
     /tmp/ccBu519l.s:564    .text._Z41__static_initialization_and_destruction_0ii:0000000000000000 $t
     /tmp/ccBu519l.s:570    .text._Z41__static_initialization_and_destruction_0ii:0000000000000000 _Z41__static_initialization_and_destruction_0ii
     /tmp/ccBu519l.s:611    .text._Z41__static_initialization_and_destruction_0ii:000000000000001c $d
.ARM.exidx.text._Z41__static_initialization_and_destruction_0ii:0000000000000000 $d
     /tmp/ccBu519l.s:618    .text._ZN14rosserial_msgs9TopicInfo11deserializeEPh:0000000000000000 $t
     /tmp/ccBu519l.s:625    .text._ZN14rosserial_msgs9TopicInfo11deserializeEPh:0000000000000000 _ZN14rosserial_msgs9TopicInfo11deserializeEPh
.ARM.exidx.text._ZN14rosserial_msgs9TopicInfo11deserializeEPh:0000000000000000 $d
     /tmp/ccBu519l.s:950    .text._ZN14rosserial_msgs20RequestParamResponse11deserializeEPh:0000000000000000 $t
     /tmp/ccBu519l.s:957    .text._ZN14rosserial_msgs20RequestParamResponse11deserializeEPh:0000000000000000 _ZN14rosserial_msgs20RequestParamResponse11deserializeEPh
.ARM.exidx.text._ZN14rosserial_msgs20RequestParamResponse11deserializeEPh:0000000000000000 $d
     /tmp/ccBu519l.s:1397   .text.loop2:0000000000000000 $t
     /tmp/ccBu519l.s:1404   .text.loop2:0000000000000000 loop2
            .ARM.exidx.text.loop2:0000000000000000 $d
     /tmp/ccBu519l.s:1420   .text._Z12sub1CallbackRKN13hydrosoft_ros11Command_ArmE:0000000000000000 $t
     /tmp/ccBu519l.s:1427   .text._Z12sub1CallbackRKN13hydrosoft_ros11Command_ArmE:0000000000000000 _Z12sub1CallbackRKN13hydrosoft_ros11Command_ArmE
     /tmp/ccBu519l.s:1481   .text._Z12sub1CallbackRKN13hydrosoft_ros11Command_ArmE:0000000000000034 $d
.ARM.exidx.text._Z12sub1CallbackRKN13hydrosoft_ros11Command_ArmE:0000000000000000 $d
     /tmp/ccBu519l.s:1488   .text._Z18setupLoopFrequencys:0000000000000000 $t
     /tmp/ccBu519l.s:1495   .text._Z18setupLoopFrequencys:0000000000000000 _Z18setupLoopFrequencys
     /tmp/ccBu519l.s:1529   .text._Z18setupLoopFrequencys:0000000000000018 $d
.ARM.exidx.text._Z18setupLoopFrequencys:0000000000000000 $d
     /tmp/ccBu519l.s:1536   .text.setup:0000000000000000 $t
     /tmp/ccBu519l.s:1543   .text.setup:0000000000000000 setup
     /tmp/ccBu519l.s:1613   .text.setup:000000000000004c $d
            .ARM.exidx.text.setup:0000000000000000 $d
     /tmp/ccBu519l.s:1627   .text._Z19setupLoop2Frequencys:0000000000000000 $t
ARM GAS  /tmp/ccBu519l.s 			page 90


     /tmp/ccBu519l.s:1634   .text._Z19setupLoop2Frequencys:0000000000000000 _Z19setupLoop2Frequencys
     /tmp/ccBu519l.s:1668   .text._Z19setupLoop2Frequencys:0000000000000018 $d
.ARM.exidx.text._Z19setupLoop2Frequencys:0000000000000000 $d
     /tmp/ccBu519l.s:1675   .rodata._ZN3ros11NodeHandle_I13STM32HardwareLi25ELi25ELi512ELi512EE15negotiateTopicsEv.str1.4:0000000000000000 $d
     /tmp/ccBu519l.s:1679   .text._ZN3ros11NodeHandle_I13STM32HardwareLi25ELi25ELi512ELi512EE15negotiateTopicsEv:0000000000000000 $t
     /tmp/ccBu519l.s:1686   .text._ZN3ros11NodeHandle_I13STM32HardwareLi25ELi25ELi512ELi512EE15negotiateTopicsEv:0000000000000000 _ZN3ros11NodeHandle_I13STM32HardwareLi25ELi25ELi512ELi512EE15negotiateTopicsEv
     /tmp/ccBu519l.s:1894   .text._ZN3ros11NodeHandle_I13STM32HardwareLi25ELi25ELi512ELi512EE15negotiateTopicsEv:00000000000000d4 $d
     /tmp/ccBu519l.s:2959   .rodata._ZTVN3ros3MsgE:0000000000000000 _ZTVN3ros3MsgE
     /tmp/ccBu519l.s:2983   .rodata._ZTVN14rosserial_msgs9TopicInfoE:0000000000000000 _ZTVN14rosserial_msgs9TopicInfoE
.ARM.exidx.text._ZN3ros11NodeHandle_I13STM32HardwareLi25ELi25ELi512ELi512EE15negotiateTopicsEv:0000000000000000 $d
     /tmp/ccBu519l.s:1902   .text._ZN3ros11NodeHandle_I13STM32HardwareLi25ELi25ELi512ELi512EE8spinOnceEv:0000000000000000 $t
     /tmp/ccBu519l.s:1909   .text._ZN3ros11NodeHandle_I13STM32HardwareLi25ELi25ELi512ELi512EE8spinOnceEv:0000000000000000 _ZN3ros11NodeHandle_I13STM32HardwareLi25ELi25ELi512ELi512EE8spinOnceEv
     /tmp/ccBu519l.s:2778   .text._ZN3ros11NodeHandle_I13STM32HardwareLi25ELi25ELi512ELi512EE8spinOnceEv:000000000000035c $d
     /tmp/ccBu519l.s:2971   .rodata._ZTVN8std_msgs4TimeE:0000000000000000 _ZTVN8std_msgs4TimeE
.ARM.exidx.text._ZN3ros11NodeHandle_I13STM32HardwareLi25ELi25ELi512ELi512EE8spinOnceEv:0000000000000000 $d
     /tmp/ccBu519l.s:2788   .text.loop:0000000000000000 $t
     /tmp/ccBu519l.s:2795   .text.loop:0000000000000000 loop
     /tmp/ccBu519l.s:2868   .text.loop:000000000000004c $d
             .ARM.exidx.text.loop:0000000000000000 $d
     /tmp/ccBu519l.s:2875   .text._GLOBAL__sub_I_actuatorInitPorts:0000000000000000 $t
     /tmp/ccBu519l.s:2881   .text._GLOBAL__sub_I_actuatorInitPorts:0000000000000000 _GLOBAL__sub_I_actuatorInitPorts
.ARM.exidx.text._GLOBAL__sub_I_actuatorInitPorts:0000000000000000 $d
     /tmp/ccBu519l.s:2905   .init_array:0000000000000000 $d
     /tmp/ccBu519l.s:2912   .rodata._ZTSN3ros3MsgE:0000000000000000 _ZTSN3ros3MsgE
     /tmp/ccBu519l.s:2909   .rodata._ZTSN3ros3MsgE:0000000000000000 $d
     /tmp/ccBu519l.s:2919   .rodata._ZTIN3ros3MsgE:0000000000000000 _ZTIN3ros3MsgE
     /tmp/ccBu519l.s:2916   .rodata._ZTIN3ros3MsgE:0000000000000000 $d
     /tmp/ccBu519l.s:2927   .rodata._ZTSN8std_msgs4TimeE:0000000000000000 _ZTSN8std_msgs4TimeE
     /tmp/ccBu519l.s:2924   .rodata._ZTSN8std_msgs4TimeE:0000000000000000 $d
     /tmp/ccBu519l.s:2934   .rodata._ZTIN8std_msgs4TimeE:0000000000000000 _ZTIN8std_msgs4TimeE
     /tmp/ccBu519l.s:2931   .rodata._ZTIN8std_msgs4TimeE:0000000000000000 $d
     /tmp/ccBu519l.s:2943   .rodata._ZTSN14rosserial_msgs9TopicInfoE:0000000000000000 _ZTSN14rosserial_msgs9TopicInfoE
     /tmp/ccBu519l.s:2940   .rodata._ZTSN14rosserial_msgs9TopicInfoE:0000000000000000 $d
     /tmp/ccBu519l.s:2950   .rodata._ZTIN14rosserial_msgs9TopicInfoE:0000000000000000 _ZTIN14rosserial_msgs9TopicInfoE
     /tmp/ccBu519l.s:2947   .rodata._ZTIN14rosserial_msgs9TopicInfoE:0000000000000000 $d
     /tmp/ccBu519l.s:2956   .rodata._ZTVN3ros3MsgE:0000000000000000 $d
     /tmp/ccBu519l.s:2968   .rodata._ZTVN8std_msgs4TimeE:0000000000000000 $d
     /tmp/ccBu519l.s:2980   .rodata._ZTVN14rosserial_msgs9TopicInfoE:0000000000000000 $d
     /tmp/ccBu519l.s:3006   .bss.uwManipulator:0000000000000000 uwManipulator
     /tmp/ccBu519l.s:3073   .data.pressureDown:0000000000000000 pressureDown
     /tmp/ccBu519l.s:3079   .data.pressureUp:0000000000000000 pressureUp
     /tmp/ccBu519l.s:3043   .data.pSinkSensorInitPort:0000000000000000 pSinkSensorInitPort
     /tmp/ccBu519l.s:3049   .data.pSinkValveInitPort:0000000000000000 pSinkValveInitPort
     /tmp/ccBu519l.s:3037   .data.pSinkPumpInitPort:0000000000000000 pSinkPumpInitPort
     /tmp/ccBu519l.s:3061   .data.pSourceSensorInitPort:0000000000000000 pSourceSensorInitPort
     /tmp/ccBu519l.s:3067   .data.pSourceValveInitPort:0000000000000000 pSourceValveInitPort
     /tmp/ccBu519l.s:3055   .data.pSourcePumpInitPort:0000000000000000 pSourcePumpInitPort
     /tmp/ccBu519l.s:3031   .data.gripperInitPort:0000000000000000 gripperInitPort
     /tmp/ccBu519l.s:3013   .data.actuatorInitPorts:0000000000000000 actuatorInitPorts
     /tmp/ccBu519l.s:3002   .bss.uwManipulator:0000000000000000 $d
     /tmp/ccBu519l.s:3009   .data.actuatorInitPorts:0000000000000000 $d
     /tmp/ccBu519l.s:3027   .data.gripperInitPort:0000000000000000 $d
     /tmp/ccBu519l.s:3070   .data.pressureDown:0000000000000000 $d
     /tmp/ccBu519l.s:3076   .data.pressureUp:0000000000000000 $d

UNDEFINED SYMBOLS
strlen
ARM GAS  /tmp/ccBu519l.s 			page 91


memcpy
_ZN26HydroUnderwaterManipulatorC1Ev
realloc
globalSensorTaskPeriod
LED_Driver_Setup
ADS1115_Setup
canConfig
_ZN26HydroUnderwaterManipulator18setupActuatorPortsERA3_A4_A2_h
_ZN26HydroUnderwaterManipulator17setupGripperPortsERA2_h
_ZN26HydroUnderwaterManipulator17setupPsourcePortsEhhh
_ZN26HydroUnderwaterManipulator15setupPsinkPortsEhhh
__aeabi_unwind_cpp_pr0
globalCommunicationTaskPeriod
HAL_GetTick
_ZN3ros16normalizeSecNSecERmS0_
_ZN15PRESSURE_SOURCE12readPressureEv
_ZN26HydroUnderwaterManipulator13decodeCommandEv
_ZN26HydroUnderwaterManipulator15control_pSourceEv
_ZN26HydroUnderwaterManipulator13control_pSinkEv
_ZN26HydroUnderwaterManipulator17control_actuatorsEv
_ZN26HydroUnderwaterManipulator15control_gripperEv
_ZN26HydroUnderwaterManipulator12encodeStatusEv
_ZN13RosserialNode7publishEPKN3ros3MsgE
rosserialNode
_ZTVN10__cxxabiv117__class_type_infoE
_ZTVN10__cxxabiv120__si_class_type_infoE
__cxa_pure_virtual
