ARM GAS  /tmp/cc4HsajT.s 			page 1


   1              		.cpu cortex-m3
   2              		.eabi_attribute 20, 1
   3              		.eabi_attribute 21, 1
   4              		.eabi_attribute 23, 3
   5              		.eabi_attribute 24, 1
   6              		.eabi_attribute 25, 1
   7              		.eabi_attribute 26, 1
   8              		.eabi_attribute 30, 1
   9              		.eabi_attribute 34, 1
  10              		.eabi_attribute 18, 4
  11              		.file	"PUMP.cpp"
  12              		.text
  13              	.Ltext0:
  14              		.cfi_sections	.debug_frame
  15              		.section	.text._ZN4PUMP6attachEh,"ax",%progbits
  16              		.align	1
  17              		.global	_ZN4PUMP6attachEh
  18              		.arch armv7-m
  19              		.syntax unified
  20              		.thumb
  21              		.thumb_func
  22              		.fpu softvfp
  24              	_ZN4PUMP6attachEh:
  25              		.fnstart
  26              	.LVL0:
  27              	.LFB68:
  28              		.file 1 "User/PUMP.cpp"
   1:User/PUMP.cpp **** /*
   2:User/PUMP.cpp ****  * PUMP.cpp
   3:User/PUMP.cpp ****  *
   4:User/PUMP.cpp ****  *  Created on: Jun 15, 2018
   5:User/PUMP.cpp ****  *      Author: Xiaojiao Chen
   6:User/PUMP.cpp ****  *		 Email: chen2014@connect.hku.hk
   7:User/PUMP.cpp ****  *	Laboratory: Bio-Control Lab
   8:User/PUMP.cpp ****  * Orgnization: the University of Hong Kong
   9:User/PUMP.cpp ****  */
  10:User/PUMP.cpp **** 
  11:User/PUMP.cpp **** #include "main.h"
  12:User/PUMP.cpp **** #include "HydroDriveLL.h"
  13:User/PUMP.cpp **** #include "PUMP.h"
  14:User/PUMP.cpp **** 
  15:User/PUMP.cpp **** 
  16:User/PUMP.cpp **** PUMP::PUMP(uint8_t num) {
  17:User/PUMP.cpp **** 	status=0;
  18:User/PUMP.cpp **** 	attach(num);
  19:User/PUMP.cpp **** }
  20:User/PUMP.cpp **** 
  21:User/PUMP.cpp **** void PUMP::attach(uint8_t num)
  22:User/PUMP.cpp **** {
  29              		.loc 1 22 1 view -0
  30              		.cfi_startproc
  31              		@ args = 0, pretend = 0, frame = 0
  32              		@ frame_needed = 0, uses_anonymous_args = 0
  33              		@ link register save eliminated.
  23:User/PUMP.cpp **** 	DigitalPort = num;
  34              		.loc 1 23 2 view .LVU1
  35              		.loc 1 23 14 is_stmt 0 view .LVU2
ARM GAS  /tmp/cc4HsajT.s 			page 2


  36 0000 0170     		strb	r1, [r0]
  24:User/PUMP.cpp **** }
  37              		.loc 1 24 1 view .LVU3
  38 0002 7047     		bx	lr
  39              		.cfi_endproc
  40              	.LFE68:
  41              		.cantunwind
  42              		.fnend
  44              		.section	.text._ZN4PUMPC2Eh,"ax",%progbits
  45              		.align	1
  46              		.global	_ZN4PUMPC2Eh
  47              		.syntax unified
  48              		.thumb
  49              		.thumb_func
  50              		.fpu softvfp
  52              	_ZN4PUMPC2Eh:
  53              		.fnstart
  54              	.LVL1:
  55              	.LFB66:
  16:User/PUMP.cpp **** 	status=0;
  56              		.loc 1 16 1 is_stmt 1 view -0
  57              		.cfi_startproc
  58              		@ args = 0, pretend = 0, frame = 0
  59              		@ frame_needed = 0, uses_anonymous_args = 0
  16:User/PUMP.cpp **** 	status=0;
  60              		.loc 1 16 1 is_stmt 0 view .LVU5
  61 0000 10B5     		push	{r4, lr}
  62              	.LCFI0:
  63              		.cfi_def_cfa_offset 8
  64              		.cfi_offset 4, -8
  65              		.cfi_offset 14, -4
  66 0002 0446     		mov	r4, r0
  67              	.LBB2:
  17:User/PUMP.cpp **** 	attach(num);
  68              		.loc 1 17 2 is_stmt 1 view .LVU6
  17:User/PUMP.cpp **** 	attach(num);
  69              		.loc 1 17 8 is_stmt 0 view .LVU7
  70 0004 0023     		movs	r3, #0
  71 0006 4380     		strh	r3, [r0, #2]	@ movhi
  18:User/PUMP.cpp **** }
  72              		.loc 1 18 2 is_stmt 1 view .LVU8
  18:User/PUMP.cpp **** }
  73              		.loc 1 18 8 is_stmt 0 view .LVU9
  74 0008 FFF7FEFF 		bl	_ZN4PUMP6attachEh
  75              	.LVL2:
  18:User/PUMP.cpp **** }
  76              		.loc 1 18 8 view .LVU10
  77              	.LBE2:
  19:User/PUMP.cpp **** 
  78              		.loc 1 19 1 view .LVU11
  79 000c 2046     		mov	r0, r4
  80 000e 10BD     		pop	{r4, pc}
  19:User/PUMP.cpp **** 
  81              		.loc 1 19 1 view .LVU12
  82              		.cfi_endproc
  83              	.LFE66:
  84              		.cantunwind
ARM GAS  /tmp/cc4HsajT.s 			page 3


  85              		.fnend
  87              		.global	_ZN4PUMPC1Eh
  88              		.thumb_set _ZN4PUMPC1Eh,_ZN4PUMPC2Eh
  89              		.section	.text._ZN4PUMP5startEv,"ax",%progbits
  90              		.align	1
  91              		.global	_ZN4PUMP5startEv
  92              		.syntax unified
  93              		.thumb
  94              		.thumb_func
  95              		.fpu softvfp
  97              	_ZN4PUMP5startEv:
  98              		.fnstart
  99              	.LVL3:
 100              	.LFB69:
  25:User/PUMP.cpp **** 
  26:User/PUMP.cpp **** void PUMP::start()
  27:User/PUMP.cpp **** {
 101              		.loc 1 27 1 is_stmt 1 view -0
 102              		.cfi_startproc
 103              		@ args = 0, pretend = 0, frame = 0
 104              		@ frame_needed = 0, uses_anonymous_args = 0
 105              		.loc 1 27 1 is_stmt 0 view .LVU14
 106 0000 10B5     		push	{r4, lr}
 107              		.save {r4, lr}
 108              	.LCFI1:
 109              		.cfi_def_cfa_offset 8
 110              		.cfi_offset 4, -8
 111              		.cfi_offset 14, -4
 112 0002 0446     		mov	r4, r0
  28:User/PUMP.cpp **** 
  29:User/PUMP.cpp **** 	PWMWriteDuty(DigitalPort,(PWM_DIGITAL_OUTPUT_REVERSED?0:1));
 113              		.loc 1 29 2 is_stmt 1 view .LVU15
 114              		.loc 1 29 14 is_stmt 0 view .LVU16
 115 0004 0021     		movs	r1, #0
 116 0006 0078     		ldrb	r0, [r0]	@ zero_extendqisi2
 117              	.LVL4:
 118              		.loc 1 29 14 view .LVU17
 119 0008 FFF7FEFF 		bl	PWMWriteDuty
 120              	.LVL5:
  30:User/PUMP.cpp **** 	status=1;
 121              		.loc 1 30 2 is_stmt 1 view .LVU18
 122              		.loc 1 30 8 is_stmt 0 view .LVU19
 123 000c 0123     		movs	r3, #1
 124 000e 6380     		strh	r3, [r4, #2]	@ movhi
  31:User/PUMP.cpp **** 
  32:User/PUMP.cpp **** }
 125              		.loc 1 32 1 view .LVU20
 126 0010 10BD     		pop	{r4, pc}
 127              		.loc 1 32 1 view .LVU21
 128              		.cfi_endproc
 129              	.LFE69:
 130              		.fnend
 132              		.section	.text._ZN4PUMP4stopEv,"ax",%progbits
 133              		.align	1
 134              		.global	_ZN4PUMP4stopEv
 135              		.syntax unified
 136              		.thumb
ARM GAS  /tmp/cc4HsajT.s 			page 4


 137              		.thumb_func
 138              		.fpu softvfp
 140              	_ZN4PUMP4stopEv:
 141              		.fnstart
 142              	.LVL6:
 143              	.LFB70:
  33:User/PUMP.cpp **** 
  34:User/PUMP.cpp **** void PUMP::stop()
  35:User/PUMP.cpp **** {
 144              		.loc 1 35 1 is_stmt 1 view -0
 145              		.cfi_startproc
 146              		@ args = 0, pretend = 0, frame = 0
 147              		@ frame_needed = 0, uses_anonymous_args = 0
 148              		.loc 1 35 1 is_stmt 0 view .LVU23
 149 0000 10B5     		push	{r4, lr}
 150              		.save {r4, lr}
 151              	.LCFI2:
 152              		.cfi_def_cfa_offset 8
 153              		.cfi_offset 4, -8
 154              		.cfi_offset 14, -4
 155 0002 0446     		mov	r4, r0
  36:User/PUMP.cpp **** 	PWMWriteDuty(DigitalPort,(PWM_DIGITAL_OUTPUT_REVERSED?0:1));
 156              		.loc 1 36 2 is_stmt 1 view .LVU24
 157              		.loc 1 36 14 is_stmt 0 view .LVU25
 158 0004 0021     		movs	r1, #0
 159 0006 0078     		ldrb	r0, [r0]	@ zero_extendqisi2
 160              	.LVL7:
 161              		.loc 1 36 14 view .LVU26
 162 0008 FFF7FEFF 		bl	PWMWriteDuty
 163              	.LVL8:
  37:User/PUMP.cpp **** 	status=0;
 164              		.loc 1 37 2 is_stmt 1 view .LVU27
 165              		.loc 1 37 8 is_stmt 0 view .LVU28
 166 000c 0023     		movs	r3, #0
 167 000e 6380     		strh	r3, [r4, #2]	@ movhi
  38:User/PUMP.cpp **** 
  39:User/PUMP.cpp **** }
 168              		.loc 1 39 1 view .LVU29
 169 0010 10BD     		pop	{r4, pc}
 170              		.loc 1 39 1 view .LVU30
 171              		.cfi_endproc
 172              	.LFE70:
 173              		.fnend
 175              		.text
 176              	.Letext0:
 177              		.file 2 "/home/softarm/.config/Code/User/globalStorage/bmd.stm32-for-vscode/@xpack-dev-tools/arm-n
 178              		.file 3 "/home/softarm/.config/Code/User/globalStorage/bmd.stm32-for-vscode/@xpack-dev-tools/arm-n
 179              		.file 4 "User/Inc/PUMP.h"
 180              		.file 5 "User/Inc/HydroDriveLL.h"
ARM GAS  /tmp/cc4HsajT.s 			page 5

